
source_code.elf:     file format elf32-littlearm

Sections:
Idx Name          Size      VMA       LMA       File off  Algn
  0 .isr_vector   000001c4  08000000  08000000  00001000  2**0
                  CONTENTS, ALLOC, LOAD, READONLY, DATA
  1 .text         0000873c  080001d0  080001d0  000011d0  2**4
                  CONTENTS, ALLOC, LOAD, READONLY, CODE
  2 .rodata       000008e0  08008910  08008910  00009910  2**3
                  CONTENTS, ALLOC, LOAD, READONLY, DATA
  3 .ARM.extab    00000000  080091f0  080091f0  0000b1f8  2**0
                  CONTENTS, READONLY
  4 .ARM          00000008  080091f0  080091f0  0000a1f0  2**2
                  CONTENTS, ALLOC, LOAD, READONLY, DATA
  5 .preinit_array 00000000  080091f8  080091f8  0000b1f8  2**0
                  CONTENTS, ALLOC, LOAD, DATA
  6 .init_array   00000004  080091f8  080091f8  0000a1f8  2**2
                  CONTENTS, ALLOC, LOAD, READONLY, DATA
  7 .fini_array   00000004  080091fc  080091fc  0000a1fc  2**2
                  CONTENTS, ALLOC, LOAD, READONLY, DATA
  8 .data         000001f8  20000000  08009200  0000b000  2**2
                  CONTENTS, ALLOC, LOAD, DATA
  9 .bss          000004b8  200001f8  080093f8  0000b1f8  2**2
                  ALLOC
 10 ._user_heap_stack 00000600  200006b0  080093f8  0000b6b0  2**0
                  ALLOC
 11 .ARM.attributes 00000030  00000000  00000000  0000b1f8  2**0
                  CONTENTS, READONLY
 12 .debug_info   0000299c  00000000  00000000  0000b228  2**0
                  CONTENTS, READONLY, DEBUGGING, OCTETS
 13 .debug_abbrev 000008e9  00000000  00000000  0000dbc4  2**0
                  CONTENTS, READONLY, DEBUGGING, OCTETS
 14 .debug_aranges 000002c8  00000000  00000000  0000e4b0  2**3
                  CONTENTS, READONLY, DEBUGGING, OCTETS
 15 .debug_rnglists 00000264  00000000  00000000  0000e778  2**0
                  CONTENTS, READONLY, DEBUGGING, OCTETS
 16 .debug_macro  00003309  00000000  00000000  0000e9dc  2**0
                  CONTENTS, READONLY, DEBUGGING, OCTETS
 17 .debug_line   000036e8  00000000  00000000  00011ce5  2**0
                  CONTENTS, READONLY, DEBUGGING, OCTETS
 18 .debug_str    0000b7e1  00000000  00000000  000153cd  2**0
                  CONTENTS, READONLY, DEBUGGING, OCTETS
 19 .comment      00000043  00000000  00000000  00020bae  2**0
                  CONTENTS, READONLY
 20 .debug_frame  0000228c  00000000  00000000  00020bf4  2**2
                  CONTENTS, READONLY, DEBUGGING, OCTETS
 21 .debug_line_str 00000070  00000000  00000000  00022e80  2**0
                  CONTENTS, READONLY, DEBUGGING, OCTETS

Disassembly of section .text:

080001d0 <__do_global_dtors_aux>:
 80001d0:	b510      	push	{r4, lr}
 80001d2:	4c05      	ldr	r4, [pc, #20]	@ (80001e8 <__do_global_dtors_aux+0x18>)
 80001d4:	7823      	ldrb	r3, [r4, #0]
 80001d6:	b933      	cbnz	r3, 80001e6 <__do_global_dtors_aux+0x16>
 80001d8:	4b04      	ldr	r3, [pc, #16]	@ (80001ec <__do_global_dtors_aux+0x1c>)
 80001da:	b113      	cbz	r3, 80001e2 <__do_global_dtors_aux+0x12>
 80001dc:	4804      	ldr	r0, [pc, #16]	@ (80001f0 <__do_global_dtors_aux+0x20>)
 80001de:	f3af 8000 	nop.w
 80001e2:	2301      	movs	r3, #1
 80001e4:	7023      	strb	r3, [r4, #0]
 80001e6:	bd10      	pop	{r4, pc}
 80001e8:	200001f8 	.word	0x200001f8
 80001ec:	00000000 	.word	0x00000000
 80001f0:	080088f4 	.word	0x080088f4

080001f4 <frame_dummy>:
 80001f4:	b508      	push	{r3, lr}
 80001f6:	4b03      	ldr	r3, [pc, #12]	@ (8000204 <frame_dummy+0x10>)
 80001f8:	b11b      	cbz	r3, 8000202 <frame_dummy+0xe>
 80001fa:	4903      	ldr	r1, [pc, #12]	@ (8000208 <frame_dummy+0x14>)
 80001fc:	4803      	ldr	r0, [pc, #12]	@ (800020c <frame_dummy+0x18>)
 80001fe:	f3af 8000 	nop.w
 8000202:	bd08      	pop	{r3, pc}
 8000204:	00000000 	.word	0x00000000
 8000208:	200001fc 	.word	0x200001fc
 800020c:	080088f4 	.word	0x080088f4

08000210 <strlen>:
 8000210:	4603      	mov	r3, r0
 8000212:	f813 2b01 	ldrb.w	r2, [r3], #1
 8000216:	2a00      	cmp	r2, #0
 8000218:	d1fb      	bne.n	8000212 <strlen+0x2>
 800021a:	1a18      	subs	r0, r3, r0
 800021c:	3801      	subs	r0, #1
 800021e:	4770      	bx	lr

08000220 <memchr>:
 8000220:	f001 01ff 	and.w	r1, r1, #255	@ 0xff
 8000224:	2a10      	cmp	r2, #16
 8000226:	db2b      	blt.n	8000280 <memchr+0x60>
 8000228:	f010 0f07 	tst.w	r0, #7
 800022c:	d008      	beq.n	8000240 <memchr+0x20>
 800022e:	f810 3b01 	ldrb.w	r3, [r0], #1
 8000232:	3a01      	subs	r2, #1
 8000234:	428b      	cmp	r3, r1
 8000236:	d02d      	beq.n	8000294 <memchr+0x74>
 8000238:	f010 0f07 	tst.w	r0, #7
 800023c:	b342      	cbz	r2, 8000290 <memchr+0x70>
 800023e:	d1f6      	bne.n	800022e <memchr+0xe>
 8000240:	b4f0      	push	{r4, r5, r6, r7}
 8000242:	ea41 2101 	orr.w	r1, r1, r1, lsl #8
 8000246:	ea41 4101 	orr.w	r1, r1, r1, lsl #16
 800024a:	f022 0407 	bic.w	r4, r2, #7
 800024e:	f07f 0700 	mvns.w	r7, #0
 8000252:	2300      	movs	r3, #0
 8000254:	e8f0 5602 	ldrd	r5, r6, [r0], #8
 8000258:	3c08      	subs	r4, #8
 800025a:	ea85 0501 	eor.w	r5, r5, r1
 800025e:	ea86 0601 	eor.w	r6, r6, r1
 8000262:	fa85 f547 	uadd8	r5, r5, r7
 8000266:	faa3 f587 	sel	r5, r3, r7
 800026a:	fa86 f647 	uadd8	r6, r6, r7
 800026e:	faa5 f687 	sel	r6, r5, r7
 8000272:	b98e      	cbnz	r6, 8000298 <memchr+0x78>
 8000274:	d1ee      	bne.n	8000254 <memchr+0x34>
 8000276:	bcf0      	pop	{r4, r5, r6, r7}
 8000278:	f001 01ff 	and.w	r1, r1, #255	@ 0xff
 800027c:	f002 0207 	and.w	r2, r2, #7
 8000280:	b132      	cbz	r2, 8000290 <memchr+0x70>
 8000282:	f810 3b01 	ldrb.w	r3, [r0], #1
 8000286:	3a01      	subs	r2, #1
 8000288:	ea83 0301 	eor.w	r3, r3, r1
 800028c:	b113      	cbz	r3, 8000294 <memchr+0x74>
 800028e:	d1f8      	bne.n	8000282 <memchr+0x62>
 8000290:	2000      	movs	r0, #0
 8000292:	4770      	bx	lr
 8000294:	3801      	subs	r0, #1
 8000296:	4770      	bx	lr
 8000298:	2d00      	cmp	r5, #0
 800029a:	bf06      	itte	eq
 800029c:	4635      	moveq	r5, r6
 800029e:	3803      	subeq	r0, #3
 80002a0:	3807      	subne	r0, #7
 80002a2:	f015 0f01 	tst.w	r5, #1
 80002a6:	d107      	bne.n	80002b8 <memchr+0x98>
 80002a8:	3001      	adds	r0, #1
 80002aa:	f415 7f80 	tst.w	r5, #256	@ 0x100
 80002ae:	bf02      	ittt	eq
 80002b0:	3001      	addeq	r0, #1
 80002b2:	f415 3fc0 	tsteq.w	r5, #98304	@ 0x18000
 80002b6:	3001      	addeq	r0, #1
 80002b8:	bcf0      	pop	{r4, r5, r6, r7}
 80002ba:	3801      	subs	r0, #1
 80002bc:	4770      	bx	lr
 80002be:	bf00      	nop

080002c0 <__aeabi_drsub>:
 80002c0:	f081 4100 	eor.w	r1, r1, #2147483648	@ 0x80000000
 80002c4:	e002      	b.n	80002cc <__adddf3>
 80002c6:	bf00      	nop

080002c8 <__aeabi_dsub>:
 80002c8:	f083 4300 	eor.w	r3, r3, #2147483648	@ 0x80000000

080002cc <__adddf3>:
 80002cc:	b530      	push	{r4, r5, lr}
 80002ce:	ea4f 0441 	mov.w	r4, r1, lsl #1
 80002d2:	ea4f 0543 	mov.w	r5, r3, lsl #1
 80002d6:	ea94 0f05 	teq	r4, r5
 80002da:	bf08      	it	eq
 80002dc:	ea90 0f02 	teqeq	r0, r2
 80002e0:	bf1f      	itttt	ne
 80002e2:	ea54 0c00 	orrsne.w	ip, r4, r0
 80002e6:	ea55 0c02 	orrsne.w	ip, r5, r2
 80002ea:	ea7f 5c64 	mvnsne.w	ip, r4, asr #21
 80002ee:	ea7f 5c65 	mvnsne.w	ip, r5, asr #21
 80002f2:	f000 80e2 	beq.w	80004ba <__adddf3+0x1ee>
 80002f6:	ea4f 5454 	mov.w	r4, r4, lsr #21
 80002fa:	ebd4 5555 	rsbs	r5, r4, r5, lsr #21
 80002fe:	bfb8      	it	lt
 8000300:	426d      	neglt	r5, r5
 8000302:	dd0c      	ble.n	800031e <__adddf3+0x52>
 8000304:	442c      	add	r4, r5
 8000306:	ea80 0202 	eor.w	r2, r0, r2
 800030a:	ea81 0303 	eor.w	r3, r1, r3
 800030e:	ea82 0000 	eor.w	r0, r2, r0
 8000312:	ea83 0101 	eor.w	r1, r3, r1
 8000316:	ea80 0202 	eor.w	r2, r0, r2
 800031a:	ea81 0303 	eor.w	r3, r1, r3
 800031e:	2d36      	cmp	r5, #54	@ 0x36
 8000320:	bf88      	it	hi
 8000322:	bd30      	pophi	{r4, r5, pc}
 8000324:	f011 4f00 	tst.w	r1, #2147483648	@ 0x80000000
 8000328:	ea4f 3101 	mov.w	r1, r1, lsl #12
 800032c:	f44f 1c80 	mov.w	ip, #1048576	@ 0x100000
 8000330:	ea4c 3111 	orr.w	r1, ip, r1, lsr #12
 8000334:	d002      	beq.n	800033c <__adddf3+0x70>
 8000336:	4240      	negs	r0, r0
 8000338:	eb61 0141 	sbc.w	r1, r1, r1, lsl #1
 800033c:	f013 4f00 	tst.w	r3, #2147483648	@ 0x80000000
 8000340:	ea4f 3303 	mov.w	r3, r3, lsl #12
 8000344:	ea4c 3313 	orr.w	r3, ip, r3, lsr #12
 8000348:	d002      	beq.n	8000350 <__adddf3+0x84>
 800034a:	4252      	negs	r2, r2
 800034c:	eb63 0343 	sbc.w	r3, r3, r3, lsl #1
 8000350:	ea94 0f05 	teq	r4, r5
 8000354:	f000 80a7 	beq.w	80004a6 <__adddf3+0x1da>
 8000358:	f1a4 0401 	sub.w	r4, r4, #1
 800035c:	f1d5 0e20 	rsbs	lr, r5, #32
 8000360:	db0d      	blt.n	800037e <__adddf3+0xb2>
 8000362:	fa02 fc0e 	lsl.w	ip, r2, lr
 8000366:	fa22 f205 	lsr.w	r2, r2, r5
 800036a:	1880      	adds	r0, r0, r2
 800036c:	f141 0100 	adc.w	r1, r1, #0
 8000370:	fa03 f20e 	lsl.w	r2, r3, lr
 8000374:	1880      	adds	r0, r0, r2
 8000376:	fa43 f305 	asr.w	r3, r3, r5
 800037a:	4159      	adcs	r1, r3
 800037c:	e00e      	b.n	800039c <__adddf3+0xd0>
 800037e:	f1a5 0520 	sub.w	r5, r5, #32
 8000382:	f10e 0e20 	add.w	lr, lr, #32
 8000386:	2a01      	cmp	r2, #1
 8000388:	fa03 fc0e 	lsl.w	ip, r3, lr
 800038c:	bf28      	it	cs
 800038e:	f04c 0c02 	orrcs.w	ip, ip, #2
 8000392:	fa43 f305 	asr.w	r3, r3, r5
 8000396:	18c0      	adds	r0, r0, r3
 8000398:	eb51 71e3 	adcs.w	r1, r1, r3, asr #31
 800039c:	f001 4500 	and.w	r5, r1, #2147483648	@ 0x80000000
 80003a0:	d507      	bpl.n	80003b2 <__adddf3+0xe6>
 80003a2:	f04f 0e00 	mov.w	lr, #0
 80003a6:	f1dc 0c00 	rsbs	ip, ip, #0
 80003aa:	eb7e 0000 	sbcs.w	r0, lr, r0
 80003ae:	eb6e 0101 	sbc.w	r1, lr, r1
 80003b2:	f5b1 1f80 	cmp.w	r1, #1048576	@ 0x100000
 80003b6:	d31b      	bcc.n	80003f0 <__adddf3+0x124>
 80003b8:	f5b1 1f00 	cmp.w	r1, #2097152	@ 0x200000
 80003bc:	d30c      	bcc.n	80003d8 <__adddf3+0x10c>
 80003be:	0849      	lsrs	r1, r1, #1
 80003c0:	ea5f 0030 	movs.w	r0, r0, rrx
 80003c4:	ea4f 0c3c 	mov.w	ip, ip, rrx
 80003c8:	f104 0401 	add.w	r4, r4, #1
 80003cc:	ea4f 5244 	mov.w	r2, r4, lsl #21
 80003d0:	f512 0f80 	cmn.w	r2, #4194304	@ 0x400000
 80003d4:	f080 809a 	bcs.w	800050c <__adddf3+0x240>
 80003d8:	f1bc 4f00 	cmp.w	ip, #2147483648	@ 0x80000000
 80003dc:	bf08      	it	eq
 80003de:	ea5f 0c50 	movseq.w	ip, r0, lsr #1
 80003e2:	f150 0000 	adcs.w	r0, r0, #0
 80003e6:	eb41 5104 	adc.w	r1, r1, r4, lsl #20
 80003ea:	ea41 0105 	orr.w	r1, r1, r5
 80003ee:	bd30      	pop	{r4, r5, pc}
 80003f0:	ea5f 0c4c 	movs.w	ip, ip, lsl #1
 80003f4:	4140      	adcs	r0, r0
 80003f6:	eb41 0101 	adc.w	r1, r1, r1
 80003fa:	3c01      	subs	r4, #1
 80003fc:	bf28      	it	cs
 80003fe:	f5b1 1f80 	cmpcs.w	r1, #1048576	@ 0x100000
 8000402:	d2e9      	bcs.n	80003d8 <__adddf3+0x10c>
 8000404:	f091 0f00 	teq	r1, #0
 8000408:	bf04      	itt	eq
 800040a:	4601      	moveq	r1, r0
 800040c:	2000      	moveq	r0, #0
 800040e:	fab1 f381 	clz	r3, r1
 8000412:	bf08      	it	eq
 8000414:	3320      	addeq	r3, #32
 8000416:	f1a3 030b 	sub.w	r3, r3, #11
 800041a:	f1b3 0220 	subs.w	r2, r3, #32
 800041e:	da0c      	bge.n	800043a <__adddf3+0x16e>
 8000420:	320c      	adds	r2, #12
 8000422:	dd08      	ble.n	8000436 <__adddf3+0x16a>
 8000424:	f102 0c14 	add.w	ip, r2, #20
 8000428:	f1c2 020c 	rsb	r2, r2, #12
 800042c:	fa01 f00c 	lsl.w	r0, r1, ip
 8000430:	fa21 f102 	lsr.w	r1, r1, r2
 8000434:	e00c      	b.n	8000450 <__adddf3+0x184>
 8000436:	f102 0214 	add.w	r2, r2, #20
 800043a:	bfd8      	it	le
 800043c:	f1c2 0c20 	rsble	ip, r2, #32
 8000440:	fa01 f102 	lsl.w	r1, r1, r2
 8000444:	fa20 fc0c 	lsr.w	ip, r0, ip
 8000448:	bfdc      	itt	le
 800044a:	ea41 010c 	orrle.w	r1, r1, ip
 800044e:	4090      	lslle	r0, r2
 8000450:	1ae4      	subs	r4, r4, r3
 8000452:	bfa2      	ittt	ge
 8000454:	eb01 5104 	addge.w	r1, r1, r4, lsl #20
 8000458:	4329      	orrge	r1, r5
 800045a:	bd30      	popge	{r4, r5, pc}
 800045c:	ea6f 0404 	mvn.w	r4, r4
 8000460:	3c1f      	subs	r4, #31
 8000462:	da1c      	bge.n	800049e <__adddf3+0x1d2>
 8000464:	340c      	adds	r4, #12
 8000466:	dc0e      	bgt.n	8000486 <__adddf3+0x1ba>
 8000468:	f104 0414 	add.w	r4, r4, #20
 800046c:	f1c4 0220 	rsb	r2, r4, #32
 8000470:	fa20 f004 	lsr.w	r0, r0, r4
 8000474:	fa01 f302 	lsl.w	r3, r1, r2
 8000478:	ea40 0003 	orr.w	r0, r0, r3
 800047c:	fa21 f304 	lsr.w	r3, r1, r4
 8000480:	ea45 0103 	orr.w	r1, r5, r3
 8000484:	bd30      	pop	{r4, r5, pc}
 8000486:	f1c4 040c 	rsb	r4, r4, #12
 800048a:	f1c4 0220 	rsb	r2, r4, #32
 800048e:	fa20 f002 	lsr.w	r0, r0, r2
 8000492:	fa01 f304 	lsl.w	r3, r1, r4
 8000496:	ea40 0003 	orr.w	r0, r0, r3
 800049a:	4629      	mov	r1, r5
 800049c:	bd30      	pop	{r4, r5, pc}
 800049e:	fa21 f004 	lsr.w	r0, r1, r4
 80004a2:	4629      	mov	r1, r5
 80004a4:	bd30      	pop	{r4, r5, pc}
 80004a6:	f094 0f00 	teq	r4, #0
 80004aa:	f483 1380 	eor.w	r3, r3, #1048576	@ 0x100000
 80004ae:	bf06      	itte	eq
 80004b0:	f481 1180 	eoreq.w	r1, r1, #1048576	@ 0x100000
 80004b4:	3401      	addeq	r4, #1
 80004b6:	3d01      	subne	r5, #1
 80004b8:	e74e      	b.n	8000358 <__adddf3+0x8c>
 80004ba:	ea7f 5c64 	mvns.w	ip, r4, asr #21
 80004be:	bf18      	it	ne
 80004c0:	ea7f 5c65 	mvnsne.w	ip, r5, asr #21
 80004c4:	d029      	beq.n	800051a <__adddf3+0x24e>
 80004c6:	ea94 0f05 	teq	r4, r5
 80004ca:	bf08      	it	eq
 80004cc:	ea90 0f02 	teqeq	r0, r2
 80004d0:	d005      	beq.n	80004de <__adddf3+0x212>
 80004d2:	ea54 0c00 	orrs.w	ip, r4, r0
 80004d6:	bf04      	itt	eq
 80004d8:	4619      	moveq	r1, r3
 80004da:	4610      	moveq	r0, r2
 80004dc:	bd30      	pop	{r4, r5, pc}
 80004de:	ea91 0f03 	teq	r1, r3
 80004e2:	bf1e      	ittt	ne
 80004e4:	2100      	movne	r1, #0
 80004e6:	2000      	movne	r0, #0
 80004e8:	bd30      	popne	{r4, r5, pc}
 80004ea:	ea5f 5c54 	movs.w	ip, r4, lsr #21
 80004ee:	d105      	bne.n	80004fc <__adddf3+0x230>
 80004f0:	0040      	lsls	r0, r0, #1
 80004f2:	4149      	adcs	r1, r1
 80004f4:	bf28      	it	cs
 80004f6:	f041 4100 	orrcs.w	r1, r1, #2147483648	@ 0x80000000
 80004fa:	bd30      	pop	{r4, r5, pc}
 80004fc:	f514 0480 	adds.w	r4, r4, #4194304	@ 0x400000
 8000500:	bf3c      	itt	cc
 8000502:	f501 1180 	addcc.w	r1, r1, #1048576	@ 0x100000
 8000506:	bd30      	popcc	{r4, r5, pc}
 8000508:	f001 4500 	and.w	r5, r1, #2147483648	@ 0x80000000
 800050c:	f045 41fe 	orr.w	r1, r5, #2130706432	@ 0x7f000000
 8000510:	f441 0170 	orr.w	r1, r1, #15728640	@ 0xf00000
 8000514:	f04f 0000 	mov.w	r0, #0
 8000518:	bd30      	pop	{r4, r5, pc}
 800051a:	ea7f 5c64 	mvns.w	ip, r4, asr #21
 800051e:	bf1a      	itte	ne
 8000520:	4619      	movne	r1, r3
 8000522:	4610      	movne	r0, r2
 8000524:	ea7f 5c65 	mvnseq.w	ip, r5, asr #21
 8000528:	bf1c      	itt	ne
 800052a:	460b      	movne	r3, r1
 800052c:	4602      	movne	r2, r0
 800052e:	ea50 3401 	orrs.w	r4, r0, r1, lsl #12
 8000532:	bf06      	itte	eq
 8000534:	ea52 3503 	orrseq.w	r5, r2, r3, lsl #12
 8000538:	ea91 0f03 	teqeq	r1, r3
 800053c:	f441 2100 	orrne.w	r1, r1, #524288	@ 0x80000
 8000540:	bd30      	pop	{r4, r5, pc}
 8000542:	bf00      	nop

08000544 <__aeabi_ui2d>:
 8000544:	f090 0f00 	teq	r0, #0
 8000548:	bf04      	itt	eq
 800054a:	2100      	moveq	r1, #0
 800054c:	4770      	bxeq	lr
 800054e:	b530      	push	{r4, r5, lr}
 8000550:	f44f 6480 	mov.w	r4, #1024	@ 0x400
 8000554:	f104 0432 	add.w	r4, r4, #50	@ 0x32
 8000558:	f04f 0500 	mov.w	r5, #0
 800055c:	f04f 0100 	mov.w	r1, #0
 8000560:	e750      	b.n	8000404 <__adddf3+0x138>
 8000562:	bf00      	nop

08000564 <__aeabi_i2d>:
 8000564:	f090 0f00 	teq	r0, #0
 8000568:	bf04      	itt	eq
 800056a:	2100      	moveq	r1, #0
 800056c:	4770      	bxeq	lr
 800056e:	b530      	push	{r4, r5, lr}
 8000570:	f44f 6480 	mov.w	r4, #1024	@ 0x400
 8000574:	f104 0432 	add.w	r4, r4, #50	@ 0x32
 8000578:	f010 4500 	ands.w	r5, r0, #2147483648	@ 0x80000000
 800057c:	bf48      	it	mi
 800057e:	4240      	negmi	r0, r0
 8000580:	f04f 0100 	mov.w	r1, #0
 8000584:	e73e      	b.n	8000404 <__adddf3+0x138>
 8000586:	bf00      	nop

08000588 <__aeabi_f2d>:
 8000588:	0042      	lsls	r2, r0, #1
 800058a:	ea4f 01e2 	mov.w	r1, r2, asr #3
 800058e:	ea4f 0131 	mov.w	r1, r1, rrx
 8000592:	ea4f 7002 	mov.w	r0, r2, lsl #28
 8000596:	bf1f      	itttt	ne
 8000598:	f012 437f 	andsne.w	r3, r2, #4278190080	@ 0xff000000
 800059c:	f093 4f7f 	teqne	r3, #4278190080	@ 0xff000000
 80005a0:	f081 5160 	eorne.w	r1, r1, #939524096	@ 0x38000000
 80005a4:	4770      	bxne	lr
 80005a6:	f032 427f 	bics.w	r2, r2, #4278190080	@ 0xff000000
 80005aa:	bf08      	it	eq
 80005ac:	4770      	bxeq	lr
 80005ae:	f093 4f7f 	teq	r3, #4278190080	@ 0xff000000
 80005b2:	bf04      	itt	eq
 80005b4:	f441 2100 	orreq.w	r1, r1, #524288	@ 0x80000
 80005b8:	4770      	bxeq	lr
 80005ba:	b530      	push	{r4, r5, lr}
 80005bc:	f44f 7460 	mov.w	r4, #896	@ 0x380
 80005c0:	f001 4500 	and.w	r5, r1, #2147483648	@ 0x80000000
 80005c4:	f021 4100 	bic.w	r1, r1, #2147483648	@ 0x80000000
 80005c8:	e71c      	b.n	8000404 <__adddf3+0x138>
 80005ca:	bf00      	nop

080005cc <__aeabi_ul2d>:
 80005cc:	ea50 0201 	orrs.w	r2, r0, r1
 80005d0:	bf08      	it	eq
 80005d2:	4770      	bxeq	lr
 80005d4:	b530      	push	{r4, r5, lr}
 80005d6:	f04f 0500 	mov.w	r5, #0
 80005da:	e00a      	b.n	80005f2 <__aeabi_l2d+0x16>

080005dc <__aeabi_l2d>:
 80005dc:	ea50 0201 	orrs.w	r2, r0, r1
 80005e0:	bf08      	it	eq
 80005e2:	4770      	bxeq	lr
 80005e4:	b530      	push	{r4, r5, lr}
 80005e6:	f011 4500 	ands.w	r5, r1, #2147483648	@ 0x80000000
 80005ea:	d502      	bpl.n	80005f2 <__aeabi_l2d+0x16>
 80005ec:	4240      	negs	r0, r0
 80005ee:	eb61 0141 	sbc.w	r1, r1, r1, lsl #1
 80005f2:	f44f 6480 	mov.w	r4, #1024	@ 0x400
 80005f6:	f104 0432 	add.w	r4, r4, #50	@ 0x32
 80005fa:	ea5f 5c91 	movs.w	ip, r1, lsr #22
 80005fe:	f43f aed8 	beq.w	80003b2 <__adddf3+0xe6>
 8000602:	f04f 0203 	mov.w	r2, #3
 8000606:	ea5f 0cdc 	movs.w	ip, ip, lsr #3
 800060a:	bf18      	it	ne
 800060c:	3203      	addne	r2, #3
 800060e:	ea5f 0cdc 	movs.w	ip, ip, lsr #3
 8000612:	bf18      	it	ne
 8000614:	3203      	addne	r2, #3
 8000616:	eb02 02dc 	add.w	r2, r2, ip, lsr #3
 800061a:	f1c2 0320 	rsb	r3, r2, #32
 800061e:	fa00 fc03 	lsl.w	ip, r0, r3
 8000622:	fa20 f002 	lsr.w	r0, r0, r2
 8000626:	fa01 fe03 	lsl.w	lr, r1, r3
 800062a:	ea40 000e 	orr.w	r0, r0, lr
 800062e:	fa21 f102 	lsr.w	r1, r1, r2
 8000632:	4414      	add	r4, r2
 8000634:	e6bd      	b.n	80003b2 <__adddf3+0xe6>
 8000636:	bf00      	nop

08000638 <__aeabi_dmul>:
 8000638:	b570      	push	{r4, r5, r6, lr}
 800063a:	f04f 0cff 	mov.w	ip, #255	@ 0xff
 800063e:	f44c 6ce0 	orr.w	ip, ip, #1792	@ 0x700
 8000642:	ea1c 5411 	ands.w	r4, ip, r1, lsr #20
 8000646:	bf1d      	ittte	ne
 8000648:	ea1c 5513 	andsne.w	r5, ip, r3, lsr #20
 800064c:	ea94 0f0c 	teqne	r4, ip
 8000650:	ea95 0f0c 	teqne	r5, ip
 8000654:	f000 f8de 	bleq	8000814 <__aeabi_dmul+0x1dc>
 8000658:	442c      	add	r4, r5
 800065a:	ea81 0603 	eor.w	r6, r1, r3
 800065e:	ea21 514c 	bic.w	r1, r1, ip, lsl #21
 8000662:	ea23 534c 	bic.w	r3, r3, ip, lsl #21
 8000666:	ea50 3501 	orrs.w	r5, r0, r1, lsl #12
 800066a:	bf18      	it	ne
 800066c:	ea52 3503 	orrsne.w	r5, r2, r3, lsl #12
 8000670:	f441 1180 	orr.w	r1, r1, #1048576	@ 0x100000
 8000674:	f443 1380 	orr.w	r3, r3, #1048576	@ 0x100000
 8000678:	d038      	beq.n	80006ec <__aeabi_dmul+0xb4>
 800067a:	fba0 ce02 	umull	ip, lr, r0, r2
 800067e:	f04f 0500 	mov.w	r5, #0
 8000682:	fbe1 e502 	umlal	lr, r5, r1, r2
 8000686:	f006 4200 	and.w	r2, r6, #2147483648	@ 0x80000000
 800068a:	fbe0 e503 	umlal	lr, r5, r0, r3
 800068e:	f04f 0600 	mov.w	r6, #0
 8000692:	fbe1 5603 	umlal	r5, r6, r1, r3
 8000696:	f09c 0f00 	teq	ip, #0
 800069a:	bf18      	it	ne
 800069c:	f04e 0e01 	orrne.w	lr, lr, #1
 80006a0:	f1a4 04ff 	sub.w	r4, r4, #255	@ 0xff
 80006a4:	f5b6 7f00 	cmp.w	r6, #512	@ 0x200
 80006a8:	f564 7440 	sbc.w	r4, r4, #768	@ 0x300
 80006ac:	d204      	bcs.n	80006b8 <__aeabi_dmul+0x80>
 80006ae:	ea5f 0e4e 	movs.w	lr, lr, lsl #1
 80006b2:	416d      	adcs	r5, r5
 80006b4:	eb46 0606 	adc.w	r6, r6, r6
 80006b8:	ea42 21c6 	orr.w	r1, r2, r6, lsl #11
 80006bc:	ea41 5155 	orr.w	r1, r1, r5, lsr #21
 80006c0:	ea4f 20c5 	mov.w	r0, r5, lsl #11
 80006c4:	ea40 505e 	orr.w	r0, r0, lr, lsr #21
 80006c8:	ea4f 2ece 	mov.w	lr, lr, lsl #11
 80006cc:	f1b4 0cfd 	subs.w	ip, r4, #253	@ 0xfd
 80006d0:	bf88      	it	hi
 80006d2:	f5bc 6fe0 	cmphi.w	ip, #1792	@ 0x700
 80006d6:	d81e      	bhi.n	8000716 <__aeabi_dmul+0xde>
 80006d8:	f1be 4f00 	cmp.w	lr, #2147483648	@ 0x80000000
 80006dc:	bf08      	it	eq
 80006de:	ea5f 0e50 	movseq.w	lr, r0, lsr #1
 80006e2:	f150 0000 	adcs.w	r0, r0, #0
 80006e6:	eb41 5104 	adc.w	r1, r1, r4, lsl #20
 80006ea:	bd70      	pop	{r4, r5, r6, pc}
 80006ec:	f006 4600 	and.w	r6, r6, #2147483648	@ 0x80000000
 80006f0:	ea46 0101 	orr.w	r1, r6, r1
 80006f4:	ea40 0002 	orr.w	r0, r0, r2
 80006f8:	ea81 0103 	eor.w	r1, r1, r3
 80006fc:	ebb4 045c 	subs.w	r4, r4, ip, lsr #1
 8000700:	bfc2      	ittt	gt
 8000702:	ebd4 050c 	rsbsgt	r5, r4, ip
 8000706:	ea41 5104 	orrgt.w	r1, r1, r4, lsl #20
 800070a:	bd70      	popgt	{r4, r5, r6, pc}
 800070c:	f441 1180 	orr.w	r1, r1, #1048576	@ 0x100000
 8000710:	f04f 0e00 	mov.w	lr, #0
 8000714:	3c01      	subs	r4, #1
 8000716:	f300 80ab 	bgt.w	8000870 <__aeabi_dmul+0x238>
 800071a:	f114 0f36 	cmn.w	r4, #54	@ 0x36
 800071e:	bfde      	ittt	le
 8000720:	2000      	movle	r0, #0
 8000722:	f001 4100 	andle.w	r1, r1, #2147483648	@ 0x80000000
 8000726:	bd70      	pople	{r4, r5, r6, pc}
 8000728:	f1c4 0400 	rsb	r4, r4, #0
 800072c:	3c20      	subs	r4, #32
 800072e:	da35      	bge.n	800079c <__aeabi_dmul+0x164>
 8000730:	340c      	adds	r4, #12
 8000732:	dc1b      	bgt.n	800076c <__aeabi_dmul+0x134>
 8000734:	f104 0414 	add.w	r4, r4, #20
 8000738:	f1c4 0520 	rsb	r5, r4, #32
 800073c:	fa00 f305 	lsl.w	r3, r0, r5
 8000740:	fa20 f004 	lsr.w	r0, r0, r4
 8000744:	fa01 f205 	lsl.w	r2, r1, r5
 8000748:	ea40 0002 	orr.w	r0, r0, r2
 800074c:	f001 4200 	and.w	r2, r1, #2147483648	@ 0x80000000
 8000750:	f021 4100 	bic.w	r1, r1, #2147483648	@ 0x80000000
 8000754:	eb10 70d3 	adds.w	r0, r0, r3, lsr #31
 8000758:	fa21 f604 	lsr.w	r6, r1, r4
 800075c:	eb42 0106 	adc.w	r1, r2, r6
 8000760:	ea5e 0e43 	orrs.w	lr, lr, r3, lsl #1
 8000764:	bf08      	it	eq
 8000766:	ea20 70d3 	biceq.w	r0, r0, r3, lsr #31
 800076a:	bd70      	pop	{r4, r5, r6, pc}
 800076c:	f1c4 040c 	rsb	r4, r4, #12
 8000770:	f1c4 0520 	rsb	r5, r4, #32
 8000774:	fa00 f304 	lsl.w	r3, r0, r4
 8000778:	fa20 f005 	lsr.w	r0, r0, r5
 800077c:	fa01 f204 	lsl.w	r2, r1, r4
 8000780:	ea40 0002 	orr.w	r0, r0, r2
 8000784:	f001 4100 	and.w	r1, r1, #2147483648	@ 0x80000000
 8000788:	eb10 70d3 	adds.w	r0, r0, r3, lsr #31
 800078c:	f141 0100 	adc.w	r1, r1, #0
 8000790:	ea5e 0e43 	orrs.w	lr, lr, r3, lsl #1
 8000794:	bf08      	it	eq
 8000796:	ea20 70d3 	biceq.w	r0, r0, r3, lsr #31
 800079a:	bd70      	pop	{r4, r5, r6, pc}
 800079c:	f1c4 0520 	rsb	r5, r4, #32
 80007a0:	fa00 f205 	lsl.w	r2, r0, r5
 80007a4:	ea4e 0e02 	orr.w	lr, lr, r2
 80007a8:	fa20 f304 	lsr.w	r3, r0, r4
 80007ac:	fa01 f205 	lsl.w	r2, r1, r5
 80007b0:	ea43 0302 	orr.w	r3, r3, r2
 80007b4:	fa21 f004 	lsr.w	r0, r1, r4
 80007b8:	f001 4100 	and.w	r1, r1, #2147483648	@ 0x80000000
 80007bc:	fa21 f204 	lsr.w	r2, r1, r4
 80007c0:	ea20 0002 	bic.w	r0, r0, r2
 80007c4:	eb00 70d3 	add.w	r0, r0, r3, lsr #31
 80007c8:	ea5e 0e43 	orrs.w	lr, lr, r3, lsl #1
 80007cc:	bf08      	it	eq
 80007ce:	ea20 70d3 	biceq.w	r0, r0, r3, lsr #31
 80007d2:	bd70      	pop	{r4, r5, r6, pc}
 80007d4:	f094 0f00 	teq	r4, #0
 80007d8:	d10f      	bne.n	80007fa <__aeabi_dmul+0x1c2>
 80007da:	f001 4600 	and.w	r6, r1, #2147483648	@ 0x80000000
 80007de:	0040      	lsls	r0, r0, #1
 80007e0:	eb41 0101 	adc.w	r1, r1, r1
 80007e4:	f411 1f80 	tst.w	r1, #1048576	@ 0x100000
 80007e8:	bf08      	it	eq
 80007ea:	3c01      	subeq	r4, #1
 80007ec:	d0f7      	beq.n	80007de <__aeabi_dmul+0x1a6>
 80007ee:	ea41 0106 	orr.w	r1, r1, r6
 80007f2:	f095 0f00 	teq	r5, #0
 80007f6:	bf18      	it	ne
 80007f8:	4770      	bxne	lr
 80007fa:	f003 4600 	and.w	r6, r3, #2147483648	@ 0x80000000
 80007fe:	0052      	lsls	r2, r2, #1
 8000800:	eb43 0303 	adc.w	r3, r3, r3
 8000804:	f413 1f80 	tst.w	r3, #1048576	@ 0x100000
 8000808:	bf08      	it	eq
 800080a:	3d01      	subeq	r5, #1
 800080c:	d0f7      	beq.n	80007fe <__aeabi_dmul+0x1c6>
 800080e:	ea43 0306 	orr.w	r3, r3, r6
 8000812:	4770      	bx	lr
 8000814:	ea94 0f0c 	teq	r4, ip
 8000818:	ea0c 5513 	and.w	r5, ip, r3, lsr #20
 800081c:	bf18      	it	ne
 800081e:	ea95 0f0c 	teqne	r5, ip
 8000822:	d00c      	beq.n	800083e <__aeabi_dmul+0x206>
 8000824:	ea50 0641 	orrs.w	r6, r0, r1, lsl #1
 8000828:	bf18      	it	ne
 800082a:	ea52 0643 	orrsne.w	r6, r2, r3, lsl #1
 800082e:	d1d1      	bne.n	80007d4 <__aeabi_dmul+0x19c>
 8000830:	ea81 0103 	eor.w	r1, r1, r3
 8000834:	f001 4100 	and.w	r1, r1, #2147483648	@ 0x80000000
 8000838:	f04f 0000 	mov.w	r0, #0
 800083c:	bd70      	pop	{r4, r5, r6, pc}
 800083e:	ea50 0641 	orrs.w	r6, r0, r1, lsl #1
 8000842:	bf06      	itte	eq
 8000844:	4610      	moveq	r0, r2
 8000846:	4619      	moveq	r1, r3
 8000848:	ea52 0643 	orrsne.w	r6, r2, r3, lsl #1
 800084c:	d019      	beq.n	8000882 <__aeabi_dmul+0x24a>
 800084e:	ea94 0f0c 	teq	r4, ip
 8000852:	d102      	bne.n	800085a <__aeabi_dmul+0x222>
 8000854:	ea50 3601 	orrs.w	r6, r0, r1, lsl #12
 8000858:	d113      	bne.n	8000882 <__aeabi_dmul+0x24a>
 800085a:	ea95 0f0c 	teq	r5, ip
 800085e:	d105      	bne.n	800086c <__aeabi_dmul+0x234>
 8000860:	ea52 3603 	orrs.w	r6, r2, r3, lsl #12
 8000864:	bf1c      	itt	ne
 8000866:	4610      	movne	r0, r2
 8000868:	4619      	movne	r1, r3
 800086a:	d10a      	bne.n	8000882 <__aeabi_dmul+0x24a>
 800086c:	ea81 0103 	eor.w	r1, r1, r3
 8000870:	f001 4100 	and.w	r1, r1, #2147483648	@ 0x80000000
 8000874:	f041 41fe 	orr.w	r1, r1, #2130706432	@ 0x7f000000
 8000878:	f441 0170 	orr.w	r1, r1, #15728640	@ 0xf00000
 800087c:	f04f 0000 	mov.w	r0, #0
 8000880:	bd70      	pop	{r4, r5, r6, pc}
 8000882:	f041 41fe 	orr.w	r1, r1, #2130706432	@ 0x7f000000
 8000886:	f441 0178 	orr.w	r1, r1, #16252928	@ 0xf80000
 800088a:	bd70      	pop	{r4, r5, r6, pc}

0800088c <__aeabi_ddiv>:
 800088c:	b570      	push	{r4, r5, r6, lr}
 800088e:	f04f 0cff 	mov.w	ip, #255	@ 0xff
 8000892:	f44c 6ce0 	orr.w	ip, ip, #1792	@ 0x700
 8000896:	ea1c 5411 	ands.w	r4, ip, r1, lsr #20
 800089a:	bf1d      	ittte	ne
 800089c:	ea1c 5513 	andsne.w	r5, ip, r3, lsr #20
 80008a0:	ea94 0f0c 	teqne	r4, ip
 80008a4:	ea95 0f0c 	teqne	r5, ip
 80008a8:	f000 f8a7 	bleq	80009fa <__aeabi_ddiv+0x16e>
 80008ac:	eba4 0405 	sub.w	r4, r4, r5
 80008b0:	ea81 0e03 	eor.w	lr, r1, r3
 80008b4:	ea52 3503 	orrs.w	r5, r2, r3, lsl #12
 80008b8:	ea4f 3101 	mov.w	r1, r1, lsl #12
 80008bc:	f000 8088 	beq.w	80009d0 <__aeabi_ddiv+0x144>
 80008c0:	ea4f 3303 	mov.w	r3, r3, lsl #12
 80008c4:	f04f 5580 	mov.w	r5, #268435456	@ 0x10000000
 80008c8:	ea45 1313 	orr.w	r3, r5, r3, lsr #4
 80008cc:	ea43 6312 	orr.w	r3, r3, r2, lsr #24
 80008d0:	ea4f 2202 	mov.w	r2, r2, lsl #8
 80008d4:	ea45 1511 	orr.w	r5, r5, r1, lsr #4
 80008d8:	ea45 6510 	orr.w	r5, r5, r0, lsr #24
 80008dc:	ea4f 2600 	mov.w	r6, r0, lsl #8
 80008e0:	f00e 4100 	and.w	r1, lr, #2147483648	@ 0x80000000
 80008e4:	429d      	cmp	r5, r3
 80008e6:	bf08      	it	eq
 80008e8:	4296      	cmpeq	r6, r2
 80008ea:	f144 04fd 	adc.w	r4, r4, #253	@ 0xfd
 80008ee:	f504 7440 	add.w	r4, r4, #768	@ 0x300
 80008f2:	d202      	bcs.n	80008fa <__aeabi_ddiv+0x6e>
 80008f4:	085b      	lsrs	r3, r3, #1
 80008f6:	ea4f 0232 	mov.w	r2, r2, rrx
 80008fa:	1ab6      	subs	r6, r6, r2
 80008fc:	eb65 0503 	sbc.w	r5, r5, r3
 8000900:	085b      	lsrs	r3, r3, #1
 8000902:	ea4f 0232 	mov.w	r2, r2, rrx
 8000906:	f44f 1080 	mov.w	r0, #1048576	@ 0x100000
 800090a:	f44f 2c00 	mov.w	ip, #524288	@ 0x80000
 800090e:	ebb6 0e02 	subs.w	lr, r6, r2
 8000912:	eb75 0e03 	sbcs.w	lr, r5, r3
 8000916:	bf22      	ittt	cs
 8000918:	1ab6      	subcs	r6, r6, r2
 800091a:	4675      	movcs	r5, lr
 800091c:	ea40 000c 	orrcs.w	r0, r0, ip
 8000920:	085b      	lsrs	r3, r3, #1
 8000922:	ea4f 0232 	mov.w	r2, r2, rrx
 8000926:	ebb6 0e02 	subs.w	lr, r6, r2
 800092a:	eb75 0e03 	sbcs.w	lr, r5, r3
 800092e:	bf22      	ittt	cs
 8000930:	1ab6      	subcs	r6, r6, r2
 8000932:	4675      	movcs	r5, lr
 8000934:	ea40 005c 	orrcs.w	r0, r0, ip, lsr #1
 8000938:	085b      	lsrs	r3, r3, #1
 800093a:	ea4f 0232 	mov.w	r2, r2, rrx
 800093e:	ebb6 0e02 	subs.w	lr, r6, r2
 8000942:	eb75 0e03 	sbcs.w	lr, r5, r3
 8000946:	bf22      	ittt	cs
 8000948:	1ab6      	subcs	r6, r6, r2
 800094a:	4675      	movcs	r5, lr
 800094c:	ea40 009c 	orrcs.w	r0, r0, ip, lsr #2
 8000950:	085b      	lsrs	r3, r3, #1
 8000952:	ea4f 0232 	mov.w	r2, r2, rrx
 8000956:	ebb6 0e02 	subs.w	lr, r6, r2
 800095a:	eb75 0e03 	sbcs.w	lr, r5, r3
 800095e:	bf22      	ittt	cs
 8000960:	1ab6      	subcs	r6, r6, r2
 8000962:	4675      	movcs	r5, lr
 8000964:	ea40 00dc 	orrcs.w	r0, r0, ip, lsr #3
 8000968:	ea55 0e06 	orrs.w	lr, r5, r6
 800096c:	d018      	beq.n	80009a0 <__aeabi_ddiv+0x114>
 800096e:	ea4f 1505 	mov.w	r5, r5, lsl #4
 8000972:	ea45 7516 	orr.w	r5, r5, r6, lsr #28
 8000976:	ea4f 1606 	mov.w	r6, r6, lsl #4
 800097a:	ea4f 03c3 	mov.w	r3, r3, lsl #3
 800097e:	ea43 7352 	orr.w	r3, r3, r2, lsr #29
 8000982:	ea4f 02c2 	mov.w	r2, r2, lsl #3
 8000986:	ea5f 1c1c 	movs.w	ip, ip, lsr #4
 800098a:	d1c0      	bne.n	800090e <__aeabi_ddiv+0x82>
 800098c:	f411 1f80 	tst.w	r1, #1048576	@ 0x100000
 8000990:	d10b      	bne.n	80009aa <__aeabi_ddiv+0x11e>
 8000992:	ea41 0100 	orr.w	r1, r1, r0
 8000996:	f04f 0000 	mov.w	r0, #0
 800099a:	f04f 4c00 	mov.w	ip, #2147483648	@ 0x80000000
 800099e:	e7b6      	b.n	800090e <__aeabi_ddiv+0x82>
 80009a0:	f411 1f80 	tst.w	r1, #1048576	@ 0x100000
 80009a4:	bf04      	itt	eq
 80009a6:	4301      	orreq	r1, r0
 80009a8:	2000      	moveq	r0, #0
 80009aa:	f1b4 0cfd 	subs.w	ip, r4, #253	@ 0xfd
 80009ae:	bf88      	it	hi
 80009b0:	f5bc 6fe0 	cmphi.w	ip, #1792	@ 0x700
 80009b4:	f63f aeaf 	bhi.w	8000716 <__aeabi_dmul+0xde>
 80009b8:	ebb5 0c03 	subs.w	ip, r5, r3
 80009bc:	bf04      	itt	eq
 80009be:	ebb6 0c02 	subseq.w	ip, r6, r2
 80009c2:	ea5f 0c50 	movseq.w	ip, r0, lsr #1
 80009c6:	f150 0000 	adcs.w	r0, r0, #0
 80009ca:	eb41 5104 	adc.w	r1, r1, r4, lsl #20
 80009ce:	bd70      	pop	{r4, r5, r6, pc}
 80009d0:	f00e 4e00 	and.w	lr, lr, #2147483648	@ 0x80000000
 80009d4:	ea4e 3111 	orr.w	r1, lr, r1, lsr #12
 80009d8:	eb14 045c 	adds.w	r4, r4, ip, lsr #1
 80009dc:	bfc2      	ittt	gt
 80009de:	ebd4 050c 	rsbsgt	r5, r4, ip
 80009e2:	ea41 5104 	orrgt.w	r1, r1, r4, lsl #20
 80009e6:	bd70      	popgt	{r4, r5, r6, pc}
 80009e8:	f441 1180 	orr.w	r1, r1, #1048576	@ 0x100000
 80009ec:	f04f 0e00 	mov.w	lr, #0
 80009f0:	3c01      	subs	r4, #1
 80009f2:	e690      	b.n	8000716 <__aeabi_dmul+0xde>
 80009f4:	ea45 0e06 	orr.w	lr, r5, r6
 80009f8:	e68d      	b.n	8000716 <__aeabi_dmul+0xde>
 80009fa:	ea0c 5513 	and.w	r5, ip, r3, lsr #20
 80009fe:	ea94 0f0c 	teq	r4, ip
 8000a02:	bf08      	it	eq
 8000a04:	ea95 0f0c 	teqeq	r5, ip
 8000a08:	f43f af3b 	beq.w	8000882 <__aeabi_dmul+0x24a>
 8000a0c:	ea94 0f0c 	teq	r4, ip
 8000a10:	d10a      	bne.n	8000a28 <__aeabi_ddiv+0x19c>
 8000a12:	ea50 3401 	orrs.w	r4, r0, r1, lsl #12
 8000a16:	f47f af34 	bne.w	8000882 <__aeabi_dmul+0x24a>
 8000a1a:	ea95 0f0c 	teq	r5, ip
 8000a1e:	f47f af25 	bne.w	800086c <__aeabi_dmul+0x234>
 8000a22:	4610      	mov	r0, r2
 8000a24:	4619      	mov	r1, r3
 8000a26:	e72c      	b.n	8000882 <__aeabi_dmul+0x24a>
 8000a28:	ea95 0f0c 	teq	r5, ip
 8000a2c:	d106      	bne.n	8000a3c <__aeabi_ddiv+0x1b0>
 8000a2e:	ea52 3503 	orrs.w	r5, r2, r3, lsl #12
 8000a32:	f43f aefd 	beq.w	8000830 <__aeabi_dmul+0x1f8>
 8000a36:	4610      	mov	r0, r2
 8000a38:	4619      	mov	r1, r3
 8000a3a:	e722      	b.n	8000882 <__aeabi_dmul+0x24a>
 8000a3c:	ea50 0641 	orrs.w	r6, r0, r1, lsl #1
 8000a40:	bf18      	it	ne
 8000a42:	ea52 0643 	orrsne.w	r6, r2, r3, lsl #1
 8000a46:	f47f aec5 	bne.w	80007d4 <__aeabi_dmul+0x19c>
 8000a4a:	ea50 0441 	orrs.w	r4, r0, r1, lsl #1
 8000a4e:	f47f af0d 	bne.w	800086c <__aeabi_dmul+0x234>
 8000a52:	ea52 0543 	orrs.w	r5, r2, r3, lsl #1
 8000a56:	f47f aeeb 	bne.w	8000830 <__aeabi_dmul+0x1f8>
 8000a5a:	e712      	b.n	8000882 <__aeabi_dmul+0x24a>

08000a5c <__gedf2>:
 8000a5c:	f04f 3cff 	mov.w	ip, #4294967295
 8000a60:	e006      	b.n	8000a70 <__cmpdf2+0x4>
 8000a62:	bf00      	nop

08000a64 <__ledf2>:
 8000a64:	f04f 0c01 	mov.w	ip, #1
 8000a68:	e002      	b.n	8000a70 <__cmpdf2+0x4>
 8000a6a:	bf00      	nop

08000a6c <__cmpdf2>:
 8000a6c:	f04f 0c01 	mov.w	ip, #1
 8000a70:	f84d cd04 	str.w	ip, [sp, #-4]!
 8000a74:	ea4f 0c41 	mov.w	ip, r1, lsl #1
 8000a78:	ea7f 5c6c 	mvns.w	ip, ip, asr #21
 8000a7c:	ea4f 0c43 	mov.w	ip, r3, lsl #1
 8000a80:	bf18      	it	ne
 8000a82:	ea7f 5c6c 	mvnsne.w	ip, ip, asr #21
 8000a86:	d01b      	beq.n	8000ac0 <__cmpdf2+0x54>
 8000a88:	b001      	add	sp, #4
 8000a8a:	ea50 0c41 	orrs.w	ip, r0, r1, lsl #1
 8000a8e:	bf0c      	ite	eq
 8000a90:	ea52 0c43 	orrseq.w	ip, r2, r3, lsl #1
 8000a94:	ea91 0f03 	teqne	r1, r3
 8000a98:	bf02      	ittt	eq
 8000a9a:	ea90 0f02 	teqeq	r0, r2
 8000a9e:	2000      	moveq	r0, #0
 8000aa0:	4770      	bxeq	lr
 8000aa2:	f110 0f00 	cmn.w	r0, #0
 8000aa6:	ea91 0f03 	teq	r1, r3
 8000aaa:	bf58      	it	pl
 8000aac:	4299      	cmppl	r1, r3
 8000aae:	bf08      	it	eq
 8000ab0:	4290      	cmpeq	r0, r2
 8000ab2:	bf2c      	ite	cs
 8000ab4:	17d8      	asrcs	r0, r3, #31
 8000ab6:	ea6f 70e3 	mvncc.w	r0, r3, asr #31
 8000aba:	f040 0001 	orr.w	r0, r0, #1
 8000abe:	4770      	bx	lr
 8000ac0:	ea4f 0c41 	mov.w	ip, r1, lsl #1
 8000ac4:	ea7f 5c6c 	mvns.w	ip, ip, asr #21
 8000ac8:	d102      	bne.n	8000ad0 <__cmpdf2+0x64>
 8000aca:	ea50 3c01 	orrs.w	ip, r0, r1, lsl #12
 8000ace:	d107      	bne.n	8000ae0 <__cmpdf2+0x74>
 8000ad0:	ea4f 0c43 	mov.w	ip, r3, lsl #1
 8000ad4:	ea7f 5c6c 	mvns.w	ip, ip, asr #21
 8000ad8:	d1d6      	bne.n	8000a88 <__cmpdf2+0x1c>
 8000ada:	ea52 3c03 	orrs.w	ip, r2, r3, lsl #12
 8000ade:	d0d3      	beq.n	8000a88 <__cmpdf2+0x1c>
 8000ae0:	f85d 0b04 	ldr.w	r0, [sp], #4
 8000ae4:	4770      	bx	lr
 8000ae6:	bf00      	nop

08000ae8 <__aeabi_cdrcmple>:
 8000ae8:	4684      	mov	ip, r0
 8000aea:	4610      	mov	r0, r2
 8000aec:	4662      	mov	r2, ip
 8000aee:	468c      	mov	ip, r1
 8000af0:	4619      	mov	r1, r3
 8000af2:	4663      	mov	r3, ip
 8000af4:	e000      	b.n	8000af8 <__aeabi_cdcmpeq>
 8000af6:	bf00      	nop

08000af8 <__aeabi_cdcmpeq>:
 8000af8:	b501      	push	{r0, lr}
 8000afa:	f7ff ffb7 	bl	8000a6c <__cmpdf2>
 8000afe:	2800      	cmp	r0, #0
 8000b00:	bf48      	it	mi
 8000b02:	f110 0f00 	cmnmi.w	r0, #0
 8000b06:	bd01      	pop	{r0, pc}

08000b08 <__aeabi_dcmpeq>:
 8000b08:	f84d ed08 	str.w	lr, [sp, #-8]!
 8000b0c:	f7ff fff4 	bl	8000af8 <__aeabi_cdcmpeq>
 8000b10:	bf0c      	ite	eq
 8000b12:	2001      	moveq	r0, #1
 8000b14:	2000      	movne	r0, #0
 8000b16:	f85d fb08 	ldr.w	pc, [sp], #8
 8000b1a:	bf00      	nop

08000b1c <__aeabi_dcmplt>:
 8000b1c:	f84d ed08 	str.w	lr, [sp, #-8]!
 8000b20:	f7ff ffea 	bl	8000af8 <__aeabi_cdcmpeq>
 8000b24:	bf34      	ite	cc
 8000b26:	2001      	movcc	r0, #1
 8000b28:	2000      	movcs	r0, #0
 8000b2a:	f85d fb08 	ldr.w	pc, [sp], #8
 8000b2e:	bf00      	nop

08000b30 <__aeabi_dcmple>:
 8000b30:	f84d ed08 	str.w	lr, [sp, #-8]!
 8000b34:	f7ff ffe0 	bl	8000af8 <__aeabi_cdcmpeq>
 8000b38:	bf94      	ite	ls
 8000b3a:	2001      	movls	r0, #1
 8000b3c:	2000      	movhi	r0, #0
 8000b3e:	f85d fb08 	ldr.w	pc, [sp], #8
 8000b42:	bf00      	nop

08000b44 <__aeabi_dcmpge>:
 8000b44:	f84d ed08 	str.w	lr, [sp, #-8]!
 8000b48:	f7ff ffce 	bl	8000ae8 <__aeabi_cdrcmple>
 8000b4c:	bf94      	ite	ls
 8000b4e:	2001      	movls	r0, #1
 8000b50:	2000      	movhi	r0, #0
 8000b52:	f85d fb08 	ldr.w	pc, [sp], #8
 8000b56:	bf00      	nop

08000b58 <__aeabi_dcmpgt>:
 8000b58:	f84d ed08 	str.w	lr, [sp, #-8]!
 8000b5c:	f7ff ffc4 	bl	8000ae8 <__aeabi_cdrcmple>
 8000b60:	bf34      	ite	cc
 8000b62:	2001      	movcc	r0, #1
 8000b64:	2000      	movcs	r0, #0
 8000b66:	f85d fb08 	ldr.w	pc, [sp], #8
 8000b6a:	bf00      	nop

08000b6c <__aeabi_dcmpun>:
 8000b6c:	ea4f 0c41 	mov.w	ip, r1, lsl #1
 8000b70:	ea7f 5c6c 	mvns.w	ip, ip, asr #21
 8000b74:	d102      	bne.n	8000b7c <__aeabi_dcmpun+0x10>
 8000b76:	ea50 3c01 	orrs.w	ip, r0, r1, lsl #12
 8000b7a:	d10a      	bne.n	8000b92 <__aeabi_dcmpun+0x26>
 8000b7c:	ea4f 0c43 	mov.w	ip, r3, lsl #1
 8000b80:	ea7f 5c6c 	mvns.w	ip, ip, asr #21
 8000b84:	d102      	bne.n	8000b8c <__aeabi_dcmpun+0x20>
 8000b86:	ea52 3c03 	orrs.w	ip, r2, r3, lsl #12
 8000b8a:	d102      	bne.n	8000b92 <__aeabi_dcmpun+0x26>
 8000b8c:	f04f 0000 	mov.w	r0, #0
 8000b90:	4770      	bx	lr
 8000b92:	f04f 0001 	mov.w	r0, #1
 8000b96:	4770      	bx	lr

08000b98 <__aeabi_d2uiz>:
 8000b98:	004a      	lsls	r2, r1, #1
 8000b9a:	d211      	bcs.n	8000bc0 <__aeabi_d2uiz+0x28>
 8000b9c:	f512 1200 	adds.w	r2, r2, #2097152	@ 0x200000
 8000ba0:	d211      	bcs.n	8000bc6 <__aeabi_d2uiz+0x2e>
 8000ba2:	d50d      	bpl.n	8000bc0 <__aeabi_d2uiz+0x28>
 8000ba4:	f46f 7378 	mvn.w	r3, #992	@ 0x3e0
 8000ba8:	ebb3 5262 	subs.w	r2, r3, r2, asr #21
 8000bac:	d40e      	bmi.n	8000bcc <__aeabi_d2uiz+0x34>
 8000bae:	ea4f 23c1 	mov.w	r3, r1, lsl #11
 8000bb2:	f043 4300 	orr.w	r3, r3, #2147483648	@ 0x80000000
 8000bb6:	ea43 5350 	orr.w	r3, r3, r0, lsr #21
 8000bba:	fa23 f002 	lsr.w	r0, r3, r2
 8000bbe:	4770      	bx	lr
 8000bc0:	f04f 0000 	mov.w	r0, #0
 8000bc4:	4770      	bx	lr
 8000bc6:	ea50 3001 	orrs.w	r0, r0, r1, lsl #12
 8000bca:	d102      	bne.n	8000bd2 <__aeabi_d2uiz+0x3a>
 8000bcc:	f04f 30ff 	mov.w	r0, #4294967295
 8000bd0:	4770      	bx	lr
 8000bd2:	f04f 0000 	mov.w	r0, #0
 8000bd6:	4770      	bx	lr

08000bd8 <__aeabi_d2f>:
 8000bd8:	ea4f 0241 	mov.w	r2, r1, lsl #1
 8000bdc:	f1b2 43e0 	subs.w	r3, r2, #1879048192	@ 0x70000000
 8000be0:	bf24      	itt	cs
 8000be2:	f5b3 1c00 	subscs.w	ip, r3, #2097152	@ 0x200000
 8000be6:	f1dc 5cfe 	rsbscs	ip, ip, #532676608	@ 0x1fc00000
 8000bea:	d90d      	bls.n	8000c08 <__aeabi_d2f+0x30>
 8000bec:	f001 4c00 	and.w	ip, r1, #2147483648	@ 0x80000000
 8000bf0:	ea4f 02c0 	mov.w	r2, r0, lsl #3
 8000bf4:	ea4c 7050 	orr.w	r0, ip, r0, lsr #29
 8000bf8:	f1b2 4f00 	cmp.w	r2, #2147483648	@ 0x80000000
 8000bfc:	eb40 0083 	adc.w	r0, r0, r3, lsl #2
 8000c00:	bf08      	it	eq
 8000c02:	f020 0001 	biceq.w	r0, r0, #1
 8000c06:	4770      	bx	lr
 8000c08:	f011 4f80 	tst.w	r1, #1073741824	@ 0x40000000
 8000c0c:	d121      	bne.n	8000c52 <__aeabi_d2f+0x7a>
 8000c0e:	f113 7238 	adds.w	r2, r3, #48234496	@ 0x2e00000
 8000c12:	bfbc      	itt	lt
 8000c14:	f001 4000 	andlt.w	r0, r1, #2147483648	@ 0x80000000
 8000c18:	4770      	bxlt	lr
 8000c1a:	f441 1180 	orr.w	r1, r1, #1048576	@ 0x100000
 8000c1e:	ea4f 5252 	mov.w	r2, r2, lsr #21
 8000c22:	f1c2 0218 	rsb	r2, r2, #24
 8000c26:	f1c2 0c20 	rsb	ip, r2, #32
 8000c2a:	fa10 f30c 	lsls.w	r3, r0, ip
 8000c2e:	fa20 f002 	lsr.w	r0, r0, r2
 8000c32:	bf18      	it	ne
 8000c34:	f040 0001 	orrne.w	r0, r0, #1
 8000c38:	ea4f 23c1 	mov.w	r3, r1, lsl #11
 8000c3c:	ea4f 23d3 	mov.w	r3, r3, lsr #11
 8000c40:	fa03 fc0c 	lsl.w	ip, r3, ip
 8000c44:	ea40 000c 	orr.w	r0, r0, ip
 8000c48:	fa23 f302 	lsr.w	r3, r3, r2
 8000c4c:	ea4f 0343 	mov.w	r3, r3, lsl #1
 8000c50:	e7cc      	b.n	8000bec <__aeabi_d2f+0x14>
 8000c52:	ea7f 5362 	mvns.w	r3, r2, asr #21
 8000c56:	d107      	bne.n	8000c68 <__aeabi_d2f+0x90>
 8000c58:	ea50 3301 	orrs.w	r3, r0, r1, lsl #12
 8000c5c:	bf1e      	ittt	ne
 8000c5e:	f04f 40fe 	movne.w	r0, #2130706432	@ 0x7f000000
 8000c62:	f440 0040 	orrne.w	r0, r0, #12582912	@ 0xc00000
 8000c66:	4770      	bxne	lr
 8000c68:	f001 4000 	and.w	r0, r1, #2147483648	@ 0x80000000
 8000c6c:	f040 40fe 	orr.w	r0, r0, #2130706432	@ 0x7f000000
 8000c70:	f440 0000 	orr.w	r0, r0, #8388608	@ 0x800000
 8000c74:	4770      	bx	lr
 8000c76:	bf00      	nop

08000c78 <__aeabi_d2lz>:
 8000c78:	b538      	push	{r3, r4, r5, lr}
 8000c7a:	2200      	movs	r2, #0
 8000c7c:	2300      	movs	r3, #0
 8000c7e:	4604      	mov	r4, r0
 8000c80:	460d      	mov	r5, r1
 8000c82:	f7ff ff4b 	bl	8000b1c <__aeabi_dcmplt>
 8000c86:	b928      	cbnz	r0, 8000c94 <__aeabi_d2lz+0x1c>
 8000c88:	4620      	mov	r0, r4
 8000c8a:	4629      	mov	r1, r5
 8000c8c:	e8bd 4038 	ldmia.w	sp!, {r3, r4, r5, lr}
 8000c90:	f000 b80a 	b.w	8000ca8 <__aeabi_d2ulz>
 8000c94:	4620      	mov	r0, r4
 8000c96:	f105 4100 	add.w	r1, r5, #2147483648	@ 0x80000000
 8000c9a:	f000 f805 	bl	8000ca8 <__aeabi_d2ulz>
 8000c9e:	4240      	negs	r0, r0
 8000ca0:	eb61 0141 	sbc.w	r1, r1, r1, lsl #1
 8000ca4:	bd38      	pop	{r3, r4, r5, pc}
 8000ca6:	bf00      	nop

08000ca8 <__aeabi_d2ulz>:
 8000ca8:	b5d0      	push	{r4, r6, r7, lr}
 8000caa:	4b0c      	ldr	r3, [pc, #48]	@ (8000cdc <__aeabi_d2ulz+0x34>)
 8000cac:	2200      	movs	r2, #0
 8000cae:	4606      	mov	r6, r0
 8000cb0:	460f      	mov	r7, r1
 8000cb2:	f7ff fcc1 	bl	8000638 <__aeabi_dmul>
 8000cb6:	f7ff ff6f 	bl	8000b98 <__aeabi_d2uiz>
 8000cba:	4604      	mov	r4, r0
 8000cbc:	f7ff fc42 	bl	8000544 <__aeabi_ui2d>
 8000cc0:	4b07      	ldr	r3, [pc, #28]	@ (8000ce0 <__aeabi_d2ulz+0x38>)
 8000cc2:	2200      	movs	r2, #0
 8000cc4:	f7ff fcb8 	bl	8000638 <__aeabi_dmul>
 8000cc8:	4602      	mov	r2, r0
 8000cca:	460b      	mov	r3, r1
 8000ccc:	4630      	mov	r0, r6
 8000cce:	4639      	mov	r1, r7
 8000cd0:	f7ff fafa 	bl	80002c8 <__aeabi_dsub>
 8000cd4:	f7ff ff60 	bl	8000b98 <__aeabi_d2uiz>
 8000cd8:	4621      	mov	r1, r4
 8000cda:	bdd0      	pop	{r4, r6, r7, pc}
 8000cdc:	3df00000 	.word	0x3df00000
 8000ce0:	41f00000 	.word	0x41f00000

08000ce4 <bno_delay_ms>:

static BNO08x_EstimatorConfig g_est_cfg = { 1.0f, 0.025f, 0.10f };
static float g_yaw_offset_rad = 0.0f;
static uint8_t g_zero_pending = 1U;

static void bno_delay_ms(volatile uint32_t ms) {
 8000ce4:	b480      	push	{r7}
 8000ce6:	b085      	sub	sp, #20
 8000ce8:	af00      	add	r7, sp, #0
 8000cea:	6078      	str	r0, [r7, #4]
    for (; ms > 0U; ms--) {
 8000cec:	e00b      	b.n	8000d06 <bno_delay_ms+0x22>
        volatile uint32_t t = 8000U;
 8000cee:	f44f 53fa 	mov.w	r3, #8000	@ 0x1f40
 8000cf2:	60fb      	str	r3, [r7, #12]
        while (t-- > 0U) {}
 8000cf4:	bf00      	nop
 8000cf6:	68fb      	ldr	r3, [r7, #12]
 8000cf8:	1e5a      	subs	r2, r3, #1
 8000cfa:	60fa      	str	r2, [r7, #12]
 8000cfc:	2b00      	cmp	r3, #0
 8000cfe:	d1fa      	bne.n	8000cf6 <bno_delay_ms+0x12>
    for (; ms > 0U; ms--) {
 8000d00:	687b      	ldr	r3, [r7, #4]
 8000d02:	3b01      	subs	r3, #1
 8000d04:	607b      	str	r3, [r7, #4]
 8000d06:	687b      	ldr	r3, [r7, #4]
 8000d08:	2b00      	cmp	r3, #0
 8000d0a:	d1f0      	bne.n	8000cee <bno_delay_ms+0xa>
    }
}
 8000d0c:	bf00      	nop
 8000d0e:	bf00      	nop
 8000d10:	3714      	adds	r7, #20
 8000d12:	46bd      	mov	sp, r7
 8000d14:	f85d 7b04 	ldr.w	r7, [sp], #4
 8000d18:	4770      	bx	lr
	...

08000d1c <bno_hw_init>:

void bno_hw_init(void) {
 8000d1c:	b580      	push	{r7, lr}
 8000d1e:	b082      	sub	sp, #8
 8000d20:	af00      	add	r7, sp, #0
    RCC_AHB1ENR_BM |= (1U << 1);
 8000d22:	4b48      	ldr	r3, [pc, #288]	@ (8000e44 <bno_hw_init+0x128>)
 8000d24:	681b      	ldr	r3, [r3, #0]
 8000d26:	4a47      	ldr	r2, [pc, #284]	@ (8000e44 <bno_hw_init+0x128>)
 8000d28:	f043 0302 	orr.w	r3, r3, #2
 8000d2c:	6013      	str	r3, [r2, #0]
    RCC_APB1ENR_BM |= (1U << 21);
 8000d2e:	4b46      	ldr	r3, [pc, #280]	@ (8000e48 <bno_hw_init+0x12c>)
 8000d30:	681b      	ldr	r3, [r3, #0]
 8000d32:	4a45      	ldr	r2, [pc, #276]	@ (8000e48 <bno_hw_init+0x12c>)
 8000d34:	f443 1300 	orr.w	r3, r3, #2097152	@ 0x200000
 8000d38:	6013      	str	r3, [r2, #0]

    GPIOB_MODER_BM   &= ~(0xFU << 16U);
 8000d3a:	4b44      	ldr	r3, [pc, #272]	@ (8000e4c <bno_hw_init+0x130>)
 8000d3c:	681b      	ldr	r3, [r3, #0]
 8000d3e:	4a43      	ldr	r2, [pc, #268]	@ (8000e4c <bno_hw_init+0x130>)
 8000d40:	f423 2370 	bic.w	r3, r3, #983040	@ 0xf0000
 8000d44:	6013      	str	r3, [r2, #0]
    GPIOB_MODER_BM   |=  (0x5U << 16U);
 8000d46:	4b41      	ldr	r3, [pc, #260]	@ (8000e4c <bno_hw_init+0x130>)
 8000d48:	681b      	ldr	r3, [r3, #0]
 8000d4a:	4a40      	ldr	r2, [pc, #256]	@ (8000e4c <bno_hw_init+0x130>)
 8000d4c:	f443 23a0 	orr.w	r3, r3, #327680	@ 0x50000
 8000d50:	6013      	str	r3, [r2, #0]
    GPIOB_OTYPER_BM  |=  (3U   <<  8U);
 8000d52:	4b3f      	ldr	r3, [pc, #252]	@ (8000e50 <bno_hw_init+0x134>)
 8000d54:	681b      	ldr	r3, [r3, #0]
 8000d56:	4a3e      	ldr	r2, [pc, #248]	@ (8000e50 <bno_hw_init+0x134>)
 8000d58:	f443 7340 	orr.w	r3, r3, #768	@ 0x300
 8000d5c:	6013      	str	r3, [r2, #0]
    GPIOB_OSPEEDR_BM |=  (0xFU << 16U);
 8000d5e:	4b3d      	ldr	r3, [pc, #244]	@ (8000e54 <bno_hw_init+0x138>)
 8000d60:	681b      	ldr	r3, [r3, #0]
 8000d62:	4a3c      	ldr	r2, [pc, #240]	@ (8000e54 <bno_hw_init+0x138>)
 8000d64:	f443 2370 	orr.w	r3, r3, #983040	@ 0xf0000
 8000d68:	6013      	str	r3, [r2, #0]
    GPIOB_PUPDR_BM   &= ~(0xFU << 16U);
 8000d6a:	4b3b      	ldr	r3, [pc, #236]	@ (8000e58 <bno_hw_init+0x13c>)
 8000d6c:	681b      	ldr	r3, [r3, #0]
 8000d6e:	4a3a      	ldr	r2, [pc, #232]	@ (8000e58 <bno_hw_init+0x13c>)
 8000d70:	f423 2370 	bic.w	r3, r3, #983040	@ 0xf0000
 8000d74:	6013      	str	r3, [r2, #0]
    GPIOB_PUPDR_BM   |=  (0x5U << 16U);
 8000d76:	4b38      	ldr	r3, [pc, #224]	@ (8000e58 <bno_hw_init+0x13c>)
 8000d78:	681b      	ldr	r3, [r3, #0]
 8000d7a:	4a37      	ldr	r2, [pc, #220]	@ (8000e58 <bno_hw_init+0x13c>)
 8000d7c:	f443 23a0 	orr.w	r3, r3, #327680	@ 0x50000
 8000d80:	6013      	str	r3, [r2, #0]

    for (int i = 0; i < 9; i++) {
 8000d82:	2300      	movs	r3, #0
 8000d84:	607b      	str	r3, [r7, #4]
 8000d86:	e010      	b.n	8000daa <bno_hw_init+0x8e>
        GPIOB_BSRR_BM = (1U << 24U);
 8000d88:	4b34      	ldr	r3, [pc, #208]	@ (8000e5c <bno_hw_init+0x140>)
 8000d8a:	f04f 7280 	mov.w	r2, #16777216	@ 0x1000000
 8000d8e:	601a      	str	r2, [r3, #0]
        bno_delay_ms(1);
 8000d90:	2001      	movs	r0, #1
 8000d92:	f7ff ffa7 	bl	8000ce4 <bno_delay_ms>
        GPIOB_BSRR_BM = (1U << 8U);
 8000d96:	4b31      	ldr	r3, [pc, #196]	@ (8000e5c <bno_hw_init+0x140>)
 8000d98:	f44f 7280 	mov.w	r2, #256	@ 0x100
 8000d9c:	601a      	str	r2, [r3, #0]
        bno_delay_ms(1);
 8000d9e:	2001      	movs	r0, #1
 8000da0:	f7ff ffa0 	bl	8000ce4 <bno_delay_ms>
    for (int i = 0; i < 9; i++) {
 8000da4:	687b      	ldr	r3, [r7, #4]
 8000da6:	3301      	adds	r3, #1
 8000da8:	607b      	str	r3, [r7, #4]
 8000daa:	687b      	ldr	r3, [r7, #4]
 8000dac:	2b08      	cmp	r3, #8
 8000dae:	ddeb      	ble.n	8000d88 <bno_hw_init+0x6c>
    }
    GPIOB_BSRR_BM = (1U << 25U);
 8000db0:	4b2a      	ldr	r3, [pc, #168]	@ (8000e5c <bno_hw_init+0x140>)
 8000db2:	f04f 7200 	mov.w	r2, #33554432	@ 0x2000000
 8000db6:	601a      	str	r2, [r3, #0]
    bno_delay_ms(1);
 8000db8:	2001      	movs	r0, #1
 8000dba:	f7ff ff93 	bl	8000ce4 <bno_delay_ms>
    GPIOB_BSRR_BM = (1U << 8U);
 8000dbe:	4b27      	ldr	r3, [pc, #156]	@ (8000e5c <bno_hw_init+0x140>)
 8000dc0:	f44f 7280 	mov.w	r2, #256	@ 0x100
 8000dc4:	601a      	str	r2, [r3, #0]
    bno_delay_ms(1);
 8000dc6:	2001      	movs	r0, #1
 8000dc8:	f7ff ff8c 	bl	8000ce4 <bno_delay_ms>
    GPIOB_BSRR_BM = (1U << 9U);
 8000dcc:	4b23      	ldr	r3, [pc, #140]	@ (8000e5c <bno_hw_init+0x140>)
 8000dce:	f44f 7200 	mov.w	r2, #512	@ 0x200
 8000dd2:	601a      	str	r2, [r3, #0]
    bno_delay_ms(2);
 8000dd4:	2002      	movs	r0, #2
 8000dd6:	f7ff ff85 	bl	8000ce4 <bno_delay_ms>

    GPIOB_MODER_BM &= ~(0xFU << 16U);
 8000dda:	4b1c      	ldr	r3, [pc, #112]	@ (8000e4c <bno_hw_init+0x130>)
 8000ddc:	681b      	ldr	r3, [r3, #0]
 8000dde:	4a1b      	ldr	r2, [pc, #108]	@ (8000e4c <bno_hw_init+0x130>)
 8000de0:	f423 2370 	bic.w	r3, r3, #983040	@ 0xf0000
 8000de4:	6013      	str	r3, [r2, #0]
    GPIOB_MODER_BM |=  (0xAU << 16U);
 8000de6:	4b19      	ldr	r3, [pc, #100]	@ (8000e4c <bno_hw_init+0x130>)
 8000de8:	681b      	ldr	r3, [r3, #0]
 8000dea:	4a18      	ldr	r2, [pc, #96]	@ (8000e4c <bno_hw_init+0x130>)
 8000dec:	f443 2320 	orr.w	r3, r3, #655360	@ 0xa0000
 8000df0:	6013      	str	r3, [r2, #0]
    GPIOB_AFRH_BM  &= ~(0xFFU);
 8000df2:	4b1b      	ldr	r3, [pc, #108]	@ (8000e60 <bno_hw_init+0x144>)
 8000df4:	681b      	ldr	r3, [r3, #0]
 8000df6:	4a1a      	ldr	r2, [pc, #104]	@ (8000e60 <bno_hw_init+0x144>)
 8000df8:	f023 03ff 	bic.w	r3, r3, #255	@ 0xff
 8000dfc:	6013      	str	r3, [r2, #0]
    GPIOB_AFRH_BM  |=  (0x44U);
 8000dfe:	4b18      	ldr	r3, [pc, #96]	@ (8000e60 <bno_hw_init+0x144>)
 8000e00:	681b      	ldr	r3, [r3, #0]
 8000e02:	4a17      	ldr	r2, [pc, #92]	@ (8000e60 <bno_hw_init+0x144>)
 8000e04:	f043 0344 	orr.w	r3, r3, #68	@ 0x44
 8000e08:	6013      	str	r3, [r2, #0]

    I2C1_CR1_BM |= I2C_BM_SWRST;
 8000e0a:	4b16      	ldr	r3, [pc, #88]	@ (8000e64 <bno_hw_init+0x148>)
 8000e0c:	681b      	ldr	r3, [r3, #0]
 8000e0e:	4a15      	ldr	r2, [pc, #84]	@ (8000e64 <bno_hw_init+0x148>)
 8000e10:	f443 4300 	orr.w	r3, r3, #32768	@ 0x8000
 8000e14:	6013      	str	r3, [r2, #0]
    I2C1_CR1_BM &= ~I2C_BM_SWRST;
 8000e16:	4b13      	ldr	r3, [pc, #76]	@ (8000e64 <bno_hw_init+0x148>)
 8000e18:	681b      	ldr	r3, [r3, #0]
 8000e1a:	4a12      	ldr	r2, [pc, #72]	@ (8000e64 <bno_hw_init+0x148>)
 8000e1c:	f423 4300 	bic.w	r3, r3, #32768	@ 0x8000
 8000e20:	6013      	str	r3, [r2, #0]
    I2C1_CR2_BM = 16U;
 8000e22:	4b11      	ldr	r3, [pc, #68]	@ (8000e68 <bno_hw_init+0x14c>)
 8000e24:	2210      	movs	r2, #16
 8000e26:	601a      	str	r2, [r3, #0]
    I2C1_CCR_BM = 80U;
 8000e28:	4b10      	ldr	r3, [pc, #64]	@ (8000e6c <bno_hw_init+0x150>)
 8000e2a:	2250      	movs	r2, #80	@ 0x50
 8000e2c:	601a      	str	r2, [r3, #0]
    I2C1_TRISE_BM = 17U;
 8000e2e:	4b10      	ldr	r3, [pc, #64]	@ (8000e70 <bno_hw_init+0x154>)
 8000e30:	2211      	movs	r2, #17
 8000e32:	601a      	str	r2, [r3, #0]
    I2C1_CR1_BM = I2C_BM_PE;
 8000e34:	4b0b      	ldr	r3, [pc, #44]	@ (8000e64 <bno_hw_init+0x148>)
 8000e36:	2201      	movs	r2, #1
 8000e38:	601a      	str	r2, [r3, #0]
}
 8000e3a:	bf00      	nop
 8000e3c:	3708      	adds	r7, #8
 8000e3e:	46bd      	mov	sp, r7
 8000e40:	bd80      	pop	{r7, pc}
 8000e42:	bf00      	nop
 8000e44:	40023830 	.word	0x40023830
 8000e48:	40023840 	.word	0x40023840
 8000e4c:	40020400 	.word	0x40020400
 8000e50:	40020404 	.word	0x40020404
 8000e54:	40020408 	.word	0x40020408
 8000e58:	4002040c 	.word	0x4002040c
 8000e5c:	40020418 	.word	0x40020418
 8000e60:	40020424 	.word	0x40020424
 8000e64:	40005400 	.word	0x40005400
 8000e68:	40005404 	.word	0x40005404
 8000e6c:	4000541c 	.word	0x4000541c
 8000e70:	40005420 	.word	0x40005420

08000e74 <bm_i2c_wait>:

static int bm_i2c_wait(uint32_t flag) {
 8000e74:	b480      	push	{r7}
 8000e76:	b085      	sub	sp, #20
 8000e78:	af00      	add	r7, sp, #0
 8000e7a:	6078      	str	r0, [r7, #4]
    uint32_t to = 80000U;
 8000e7c:	4b0c      	ldr	r3, [pc, #48]	@ (8000eb0 <bm_i2c_wait+0x3c>)
 8000e7e:	60fb      	str	r3, [r7, #12]
    while (!(I2C1_SR1_BM & flag)) {
 8000e80:	e008      	b.n	8000e94 <bm_i2c_wait+0x20>
        if (--to == 0U) return -1;
 8000e82:	68fb      	ldr	r3, [r7, #12]
 8000e84:	3b01      	subs	r3, #1
 8000e86:	60fb      	str	r3, [r7, #12]
 8000e88:	68fb      	ldr	r3, [r7, #12]
 8000e8a:	2b00      	cmp	r3, #0
 8000e8c:	d102      	bne.n	8000e94 <bm_i2c_wait+0x20>
 8000e8e:	f04f 33ff 	mov.w	r3, #4294967295
 8000e92:	e006      	b.n	8000ea2 <bm_i2c_wait+0x2e>
    while (!(I2C1_SR1_BM & flag)) {
 8000e94:	4b07      	ldr	r3, [pc, #28]	@ (8000eb4 <bm_i2c_wait+0x40>)
 8000e96:	681a      	ldr	r2, [r3, #0]
 8000e98:	687b      	ldr	r3, [r7, #4]
 8000e9a:	4013      	ands	r3, r2
 8000e9c:	2b00      	cmp	r3, #0
 8000e9e:	d0f0      	beq.n	8000e82 <bm_i2c_wait+0xe>
    }
    return 0;
 8000ea0:	2300      	movs	r3, #0
}
 8000ea2:	4618      	mov	r0, r3
 8000ea4:	3714      	adds	r7, #20
 8000ea6:	46bd      	mov	sp, r7
 8000ea8:	f85d 7b04 	ldr.w	r7, [sp], #4
 8000eac:	4770      	bx	lr
 8000eae:	bf00      	nop
 8000eb0:	00013880 	.word	0x00013880
 8000eb4:	40005414 	.word	0x40005414

08000eb8 <bm_i2c_recover>:

static void bm_i2c_recover(void) {
 8000eb8:	b480      	push	{r7}
 8000eba:	b083      	sub	sp, #12
 8000ebc:	af00      	add	r7, sp, #0
    I2C1_CR1_BM |= I2C_BM_STOP;
 8000ebe:	4b19      	ldr	r3, [pc, #100]	@ (8000f24 <bm_i2c_recover+0x6c>)
 8000ec0:	681b      	ldr	r3, [r3, #0]
 8000ec2:	4a18      	ldr	r2, [pc, #96]	@ (8000f24 <bm_i2c_recover+0x6c>)
 8000ec4:	f443 7300 	orr.w	r3, r3, #512	@ 0x200
 8000ec8:	6013      	str	r3, [r2, #0]
    volatile uint32_t t = 8000U;
 8000eca:	f44f 53fa 	mov.w	r3, #8000	@ 0x1f40
 8000ece:	607b      	str	r3, [r7, #4]
    while (t-- > 0U) {}
 8000ed0:	bf00      	nop
 8000ed2:	687b      	ldr	r3, [r7, #4]
 8000ed4:	1e5a      	subs	r2, r3, #1
 8000ed6:	607a      	str	r2, [r7, #4]
 8000ed8:	2b00      	cmp	r3, #0
 8000eda:	d1fa      	bne.n	8000ed2 <bm_i2c_recover+0x1a>
    I2C1_SR1_BM &= ~I2C_BM_AF;
 8000edc:	4b12      	ldr	r3, [pc, #72]	@ (8000f28 <bm_i2c_recover+0x70>)
 8000ede:	681b      	ldr	r3, [r3, #0]
 8000ee0:	4a11      	ldr	r2, [pc, #68]	@ (8000f28 <bm_i2c_recover+0x70>)
 8000ee2:	f423 6380 	bic.w	r3, r3, #1024	@ 0x400
 8000ee6:	6013      	str	r3, [r2, #0]
    I2C1_CR1_BM |= I2C_BM_SWRST;
 8000ee8:	4b0e      	ldr	r3, [pc, #56]	@ (8000f24 <bm_i2c_recover+0x6c>)
 8000eea:	681b      	ldr	r3, [r3, #0]
 8000eec:	4a0d      	ldr	r2, [pc, #52]	@ (8000f24 <bm_i2c_recover+0x6c>)
 8000eee:	f443 4300 	orr.w	r3, r3, #32768	@ 0x8000
 8000ef2:	6013      	str	r3, [r2, #0]
    I2C1_CR1_BM &= ~I2C_BM_SWRST;
 8000ef4:	4b0b      	ldr	r3, [pc, #44]	@ (8000f24 <bm_i2c_recover+0x6c>)
 8000ef6:	681b      	ldr	r3, [r3, #0]
 8000ef8:	4a0a      	ldr	r2, [pc, #40]	@ (8000f24 <bm_i2c_recover+0x6c>)
 8000efa:	f423 4300 	bic.w	r3, r3, #32768	@ 0x8000
 8000efe:	6013      	str	r3, [r2, #0]
    I2C1_CR2_BM = 16U;
 8000f00:	4b0a      	ldr	r3, [pc, #40]	@ (8000f2c <bm_i2c_recover+0x74>)
 8000f02:	2210      	movs	r2, #16
 8000f04:	601a      	str	r2, [r3, #0]
    I2C1_CCR_BM = 80U;
 8000f06:	4b0a      	ldr	r3, [pc, #40]	@ (8000f30 <bm_i2c_recover+0x78>)
 8000f08:	2250      	movs	r2, #80	@ 0x50
 8000f0a:	601a      	str	r2, [r3, #0]
    I2C1_TRISE_BM = 17U;
 8000f0c:	4b09      	ldr	r3, [pc, #36]	@ (8000f34 <bm_i2c_recover+0x7c>)
 8000f0e:	2211      	movs	r2, #17
 8000f10:	601a      	str	r2, [r3, #0]
    I2C1_CR1_BM = I2C_BM_PE;
 8000f12:	4b04      	ldr	r3, [pc, #16]	@ (8000f24 <bm_i2c_recover+0x6c>)
 8000f14:	2201      	movs	r2, #1
 8000f16:	601a      	str	r2, [r3, #0]
}
 8000f18:	bf00      	nop
 8000f1a:	370c      	adds	r7, #12
 8000f1c:	46bd      	mov	sp, r7
 8000f1e:	f85d 7b04 	ldr.w	r7, [sp], #4
 8000f22:	4770      	bx	lr
 8000f24:	40005400 	.word	0x40005400
 8000f28:	40005414 	.word	0x40005414
 8000f2c:	40005404 	.word	0x40005404
 8000f30:	4000541c 	.word	0x4000541c
 8000f34:	40005420 	.word	0x40005420

08000f38 <bm_i2c_write>:

static int bm_i2c_write(uint8_t addr7, const uint8_t *data, uint16_t len) {
 8000f38:	b580      	push	{r7, lr}
 8000f3a:	b084      	sub	sp, #16
 8000f3c:	af00      	add	r7, sp, #0
 8000f3e:	4603      	mov	r3, r0
 8000f40:	6039      	str	r1, [r7, #0]
 8000f42:	71fb      	strb	r3, [r7, #7]
 8000f44:	4613      	mov	r3, r2
 8000f46:	80bb      	strh	r3, [r7, #4]
    I2C1_CR1_BM |= I2C_BM_START;
 8000f48:	4b32      	ldr	r3, [pc, #200]	@ (8001014 <bm_i2c_write+0xdc>)
 8000f4a:	681b      	ldr	r3, [r3, #0]
 8000f4c:	4a31      	ldr	r2, [pc, #196]	@ (8001014 <bm_i2c_write+0xdc>)
 8000f4e:	f443 7380 	orr.w	r3, r3, #256	@ 0x100
 8000f52:	6013      	str	r3, [r2, #0]
    if (bm_i2c_wait(I2C_BM_SB) < 0) {
 8000f54:	2001      	movs	r0, #1
 8000f56:	f7ff ff8d 	bl	8000e74 <bm_i2c_wait>
 8000f5a:	4603      	mov	r3, r0
 8000f5c:	2b00      	cmp	r3, #0
 8000f5e:	da04      	bge.n	8000f6a <bm_i2c_write+0x32>
        bm_i2c_recover();
 8000f60:	f7ff ffaa 	bl	8000eb8 <bm_i2c_recover>
        return -1;
 8000f64:	f04f 33ff 	mov.w	r3, #4294967295
 8000f68:	e04f      	b.n	800100a <bm_i2c_write+0xd2>
    }
    I2C1_DR_BM = (uint32_t)(addr7 << 1U);
 8000f6a:	79fb      	ldrb	r3, [r7, #7]
 8000f6c:	4a2a      	ldr	r2, [pc, #168]	@ (8001018 <bm_i2c_write+0xe0>)
 8000f6e:	005b      	lsls	r3, r3, #1
 8000f70:	6013      	str	r3, [r2, #0]
    if (bm_i2c_wait(I2C_BM_ADDR) < 0) {
 8000f72:	2002      	movs	r0, #2
 8000f74:	f7ff ff7e 	bl	8000e74 <bm_i2c_wait>
 8000f78:	4603      	mov	r3, r0
 8000f7a:	2b00      	cmp	r3, #0
 8000f7c:	da0e      	bge.n	8000f9c <bm_i2c_write+0x64>
        I2C1_SR1_BM &= ~I2C_BM_AF;
 8000f7e:	4b27      	ldr	r3, [pc, #156]	@ (800101c <bm_i2c_write+0xe4>)
 8000f80:	681b      	ldr	r3, [r3, #0]
 8000f82:	4a26      	ldr	r2, [pc, #152]	@ (800101c <bm_i2c_write+0xe4>)
 8000f84:	f423 6380 	bic.w	r3, r3, #1024	@ 0x400
 8000f88:	6013      	str	r3, [r2, #0]
        I2C1_CR1_BM |= I2C_BM_STOP;
 8000f8a:	4b22      	ldr	r3, [pc, #136]	@ (8001014 <bm_i2c_write+0xdc>)
 8000f8c:	681b      	ldr	r3, [r3, #0]
 8000f8e:	4a21      	ldr	r2, [pc, #132]	@ (8001014 <bm_i2c_write+0xdc>)
 8000f90:	f443 7300 	orr.w	r3, r3, #512	@ 0x200
 8000f94:	6013      	str	r3, [r2, #0]
        return -1;
 8000f96:	f04f 33ff 	mov.w	r3, #4294967295
 8000f9a:	e036      	b.n	800100a <bm_i2c_write+0xd2>
    }
    (void)I2C1_SR2_BM;
 8000f9c:	4b20      	ldr	r3, [pc, #128]	@ (8001020 <bm_i2c_write+0xe8>)
 8000f9e:	681b      	ldr	r3, [r3, #0]
    for (uint16_t i = 0U; i < len; i++) {
 8000fa0:	2300      	movs	r3, #0
 8000fa2:	81fb      	strh	r3, [r7, #14]
 8000fa4:	e017      	b.n	8000fd6 <bm_i2c_write+0x9e>
        if (bm_i2c_wait(I2C_BM_TXE) < 0) {
 8000fa6:	2080      	movs	r0, #128	@ 0x80
 8000fa8:	f7ff ff64 	bl	8000e74 <bm_i2c_wait>
 8000fac:	4603      	mov	r3, r0
 8000fae:	2b00      	cmp	r3, #0
 8000fb0:	da08      	bge.n	8000fc4 <bm_i2c_write+0x8c>
            I2C1_CR1_BM |= I2C_BM_STOP;
 8000fb2:	4b18      	ldr	r3, [pc, #96]	@ (8001014 <bm_i2c_write+0xdc>)
 8000fb4:	681b      	ldr	r3, [r3, #0]
 8000fb6:	4a17      	ldr	r2, [pc, #92]	@ (8001014 <bm_i2c_write+0xdc>)
 8000fb8:	f443 7300 	orr.w	r3, r3, #512	@ 0x200
 8000fbc:	6013      	str	r3, [r2, #0]
            return -1;
 8000fbe:	f04f 33ff 	mov.w	r3, #4294967295
 8000fc2:	e022      	b.n	800100a <bm_i2c_write+0xd2>
        }
        I2C1_DR_BM = data[i];
 8000fc4:	89fb      	ldrh	r3, [r7, #14]
 8000fc6:	683a      	ldr	r2, [r7, #0]
 8000fc8:	4413      	add	r3, r2
 8000fca:	781a      	ldrb	r2, [r3, #0]
 8000fcc:	4b12      	ldr	r3, [pc, #72]	@ (8001018 <bm_i2c_write+0xe0>)
 8000fce:	601a      	str	r2, [r3, #0]
    for (uint16_t i = 0U; i < len; i++) {
 8000fd0:	89fb      	ldrh	r3, [r7, #14]
 8000fd2:	3301      	adds	r3, #1
 8000fd4:	81fb      	strh	r3, [r7, #14]
 8000fd6:	89fa      	ldrh	r2, [r7, #14]
 8000fd8:	88bb      	ldrh	r3, [r7, #4]
 8000fda:	429a      	cmp	r2, r3
 8000fdc:	d3e3      	bcc.n	8000fa6 <bm_i2c_write+0x6e>
    }
    if (bm_i2c_wait(I2C_BM_BTF) < 0) {
 8000fde:	2004      	movs	r0, #4
 8000fe0:	f7ff ff48 	bl	8000e74 <bm_i2c_wait>
 8000fe4:	4603      	mov	r3, r0
 8000fe6:	2b00      	cmp	r3, #0
 8000fe8:	da08      	bge.n	8000ffc <bm_i2c_write+0xc4>
        I2C1_CR1_BM |= I2C_BM_STOP;
 8000fea:	4b0a      	ldr	r3, [pc, #40]	@ (8001014 <bm_i2c_write+0xdc>)
 8000fec:	681b      	ldr	r3, [r3, #0]
 8000fee:	4a09      	ldr	r2, [pc, #36]	@ (8001014 <bm_i2c_write+0xdc>)
 8000ff0:	f443 7300 	orr.w	r3, r3, #512	@ 0x200
 8000ff4:	6013      	str	r3, [r2, #0]
        return -1;
 8000ff6:	f04f 33ff 	mov.w	r3, #4294967295
 8000ffa:	e006      	b.n	800100a <bm_i2c_write+0xd2>
    }
    I2C1_CR1_BM |= I2C_BM_STOP;
 8000ffc:	4b05      	ldr	r3, [pc, #20]	@ (8001014 <bm_i2c_write+0xdc>)
 8000ffe:	681b      	ldr	r3, [r3, #0]
 8001000:	4a04      	ldr	r2, [pc, #16]	@ (8001014 <bm_i2c_write+0xdc>)
 8001002:	f443 7300 	orr.w	r3, r3, #512	@ 0x200
 8001006:	6013      	str	r3, [r2, #0]
    return 0;
 8001008:	2300      	movs	r3, #0
}
 800100a:	4618      	mov	r0, r3
 800100c:	3710      	adds	r7, #16
 800100e:	46bd      	mov	sp, r7
 8001010:	bd80      	pop	{r7, pc}
 8001012:	bf00      	nop
 8001014:	40005400 	.word	0x40005400
 8001018:	40005410 	.word	0x40005410
 800101c:	40005414 	.word	0x40005414
 8001020:	40005418 	.word	0x40005418

08001024 <bm_i2c_read>:

static int bm_i2c_read(uint8_t addr7, uint8_t *data, uint16_t len) {
 8001024:	b580      	push	{r7, lr}
 8001026:	b084      	sub	sp, #16
 8001028:	af00      	add	r7, sp, #0
 800102a:	4603      	mov	r3, r0
 800102c:	6039      	str	r1, [r7, #0]
 800102e:	71fb      	strb	r3, [r7, #7]
 8001030:	4613      	mov	r3, r2
 8001032:	80bb      	strh	r3, [r7, #4]
    if (len == 0U) return 0;
 8001034:	88bb      	ldrh	r3, [r7, #4]
 8001036:	2b00      	cmp	r3, #0
 8001038:	d101      	bne.n	800103e <bm_i2c_read+0x1a>
 800103a:	2300      	movs	r3, #0
 800103c:	e07f      	b.n	800113e <bm_i2c_read+0x11a>
    I2C1_CR1_BM |= I2C_BM_ACK | I2C_BM_START;
 800103e:	4b42      	ldr	r3, [pc, #264]	@ (8001148 <bm_i2c_read+0x124>)
 8001040:	681b      	ldr	r3, [r3, #0]
 8001042:	4a41      	ldr	r2, [pc, #260]	@ (8001148 <bm_i2c_read+0x124>)
 8001044:	f443 63a0 	orr.w	r3, r3, #1280	@ 0x500
 8001048:	6013      	str	r3, [r2, #0]
    if (bm_i2c_wait(I2C_BM_SB) < 0) {
 800104a:	2001      	movs	r0, #1
 800104c:	f7ff ff12 	bl	8000e74 <bm_i2c_wait>
 8001050:	4603      	mov	r3, r0
 8001052:	2b00      	cmp	r3, #0
 8001054:	da04      	bge.n	8001060 <bm_i2c_read+0x3c>
        bm_i2c_recover();
 8001056:	f7ff ff2f 	bl	8000eb8 <bm_i2c_recover>
        return -1;
 800105a:	f04f 33ff 	mov.w	r3, #4294967295
 800105e:	e06e      	b.n	800113e <bm_i2c_read+0x11a>
    }
    I2C1_DR_BM = (uint32_t)((addr7 << 1U) | 1U);
 8001060:	79fb      	ldrb	r3, [r7, #7]
 8001062:	005b      	lsls	r3, r3, #1
 8001064:	4a39      	ldr	r2, [pc, #228]	@ (800114c <bm_i2c_read+0x128>)
 8001066:	f043 0301 	orr.w	r3, r3, #1
 800106a:	6013      	str	r3, [r2, #0]
    if (bm_i2c_wait(I2C_BM_ADDR) < 0) {
 800106c:	2002      	movs	r0, #2
 800106e:	f7ff ff01 	bl	8000e74 <bm_i2c_wait>
 8001072:	4603      	mov	r3, r0
 8001074:	2b00      	cmp	r3, #0
 8001076:	da0e      	bge.n	8001096 <bm_i2c_read+0x72>
        I2C1_SR1_BM &= ~I2C_BM_AF;
 8001078:	4b35      	ldr	r3, [pc, #212]	@ (8001150 <bm_i2c_read+0x12c>)
 800107a:	681b      	ldr	r3, [r3, #0]
 800107c:	4a34      	ldr	r2, [pc, #208]	@ (8001150 <bm_i2c_read+0x12c>)
 800107e:	f423 6380 	bic.w	r3, r3, #1024	@ 0x400
 8001082:	6013      	str	r3, [r2, #0]
        I2C1_CR1_BM |= I2C_BM_STOP;
 8001084:	4b30      	ldr	r3, [pc, #192]	@ (8001148 <bm_i2c_read+0x124>)
 8001086:	681b      	ldr	r3, [r3, #0]
 8001088:	4a2f      	ldr	r2, [pc, #188]	@ (8001148 <bm_i2c_read+0x124>)
 800108a:	f443 7300 	orr.w	r3, r3, #512	@ 0x200
 800108e:	6013      	str	r3, [r2, #0]
        return -1;
 8001090:	f04f 33ff 	mov.w	r3, #4294967295
 8001094:	e053      	b.n	800113e <bm_i2c_read+0x11a>
    }

    if (len == 1U) {
 8001096:	88bb      	ldrh	r3, [r7, #4]
 8001098:	2b01      	cmp	r3, #1
 800109a:	d11f      	bne.n	80010dc <bm_i2c_read+0xb8>
        I2C1_CR1_BM &= ~I2C_BM_ACK;
 800109c:	4b2a      	ldr	r3, [pc, #168]	@ (8001148 <bm_i2c_read+0x124>)
 800109e:	681b      	ldr	r3, [r3, #0]
 80010a0:	4a29      	ldr	r2, [pc, #164]	@ (8001148 <bm_i2c_read+0x124>)
 80010a2:	f423 6380 	bic.w	r3, r3, #1024	@ 0x400
 80010a6:	6013      	str	r3, [r2, #0]
        (void)I2C1_SR2_BM;
 80010a8:	4b2a      	ldr	r3, [pc, #168]	@ (8001154 <bm_i2c_read+0x130>)
 80010aa:	681b      	ldr	r3, [r3, #0]
        I2C1_CR1_BM |= I2C_BM_STOP;
 80010ac:	4b26      	ldr	r3, [pc, #152]	@ (8001148 <bm_i2c_read+0x124>)
 80010ae:	681b      	ldr	r3, [r3, #0]
 80010b0:	4a25      	ldr	r2, [pc, #148]	@ (8001148 <bm_i2c_read+0x124>)
 80010b2:	f443 7300 	orr.w	r3, r3, #512	@ 0x200
 80010b6:	6013      	str	r3, [r2, #0]
        if (bm_i2c_wait(I2C_BM_RXNE) < 0) {
 80010b8:	2040      	movs	r0, #64	@ 0x40
 80010ba:	f7ff fedb 	bl	8000e74 <bm_i2c_wait>
 80010be:	4603      	mov	r3, r0
 80010c0:	2b00      	cmp	r3, #0
 80010c2:	da04      	bge.n	80010ce <bm_i2c_read+0xaa>
            bm_i2c_recover();
 80010c4:	f7ff fef8 	bl	8000eb8 <bm_i2c_recover>
            return -1;
 80010c8:	f04f 33ff 	mov.w	r3, #4294967295
 80010cc:	e037      	b.n	800113e <bm_i2c_read+0x11a>
        }
        data[0] = (uint8_t)I2C1_DR_BM;
 80010ce:	4b1f      	ldr	r3, [pc, #124]	@ (800114c <bm_i2c_read+0x128>)
 80010d0:	681b      	ldr	r3, [r3, #0]
 80010d2:	b2da      	uxtb	r2, r3
 80010d4:	683b      	ldr	r3, [r7, #0]
 80010d6:	701a      	strb	r2, [r3, #0]
        return 0;
 80010d8:	2300      	movs	r3, #0
 80010da:	e030      	b.n	800113e <bm_i2c_read+0x11a>
    }

    (void)I2C1_SR2_BM;
 80010dc:	4b1d      	ldr	r3, [pc, #116]	@ (8001154 <bm_i2c_read+0x130>)
 80010de:	681b      	ldr	r3, [r3, #0]
    for (uint16_t i = 0U; i < len; i++) {
 80010e0:	2300      	movs	r3, #0
 80010e2:	81fb      	strh	r3, [r7, #14]
 80010e4:	e026      	b.n	8001134 <bm_i2c_read+0x110>
        if (i == (uint16_t)(len - 1U)) {
 80010e6:	88bb      	ldrh	r3, [r7, #4]
 80010e8:	3b01      	subs	r3, #1
 80010ea:	b29b      	uxth	r3, r3
 80010ec:	89fa      	ldrh	r2, [r7, #14]
 80010ee:	429a      	cmp	r2, r3
 80010f0:	d10b      	bne.n	800110a <bm_i2c_read+0xe6>
            I2C1_CR1_BM &= ~I2C_BM_ACK;
 80010f2:	4b15      	ldr	r3, [pc, #84]	@ (8001148 <bm_i2c_read+0x124>)
 80010f4:	681b      	ldr	r3, [r3, #0]
 80010f6:	4a14      	ldr	r2, [pc, #80]	@ (8001148 <bm_i2c_read+0x124>)
 80010f8:	f423 6380 	bic.w	r3, r3, #1024	@ 0x400
 80010fc:	6013      	str	r3, [r2, #0]
            I2C1_CR1_BM |= I2C_BM_STOP;
 80010fe:	4b12      	ldr	r3, [pc, #72]	@ (8001148 <bm_i2c_read+0x124>)
 8001100:	681b      	ldr	r3, [r3, #0]
 8001102:	4a11      	ldr	r2, [pc, #68]	@ (8001148 <bm_i2c_read+0x124>)
 8001104:	f443 7300 	orr.w	r3, r3, #512	@ 0x200
 8001108:	6013      	str	r3, [r2, #0]
        }
        if (bm_i2c_wait(I2C_BM_RXNE) < 0) {
 800110a:	2040      	movs	r0, #64	@ 0x40
 800110c:	f7ff feb2 	bl	8000e74 <bm_i2c_wait>
 8001110:	4603      	mov	r3, r0
 8001112:	2b00      	cmp	r3, #0
 8001114:	da04      	bge.n	8001120 <bm_i2c_read+0xfc>
            bm_i2c_recover();
 8001116:	f7ff fecf 	bl	8000eb8 <bm_i2c_recover>
            return -1;
 800111a:	f04f 33ff 	mov.w	r3, #4294967295
 800111e:	e00e      	b.n	800113e <bm_i2c_read+0x11a>
        }
        data[i] = (uint8_t)I2C1_DR_BM;
 8001120:	4b0a      	ldr	r3, [pc, #40]	@ (800114c <bm_i2c_read+0x128>)
 8001122:	6819      	ldr	r1, [r3, #0]
 8001124:	89fb      	ldrh	r3, [r7, #14]
 8001126:	683a      	ldr	r2, [r7, #0]
 8001128:	4413      	add	r3, r2
 800112a:	b2ca      	uxtb	r2, r1
 800112c:	701a      	strb	r2, [r3, #0]
    for (uint16_t i = 0U; i < len; i++) {
 800112e:	89fb      	ldrh	r3, [r7, #14]
 8001130:	3301      	adds	r3, #1
 8001132:	81fb      	strh	r3, [r7, #14]
 8001134:	89fa      	ldrh	r2, [r7, #14]
 8001136:	88bb      	ldrh	r3, [r7, #4]
 8001138:	429a      	cmp	r2, r3
 800113a:	d3d4      	bcc.n	80010e6 <bm_i2c_read+0xc2>
    }
    return 0;
 800113c:	2300      	movs	r3, #0
}
 800113e:	4618      	mov	r0, r3
 8001140:	3710      	adds	r7, #16
 8001142:	46bd      	mov	sp, r7
 8001144:	bd80      	pop	{r7, pc}
 8001146:	bf00      	nop
 8001148:	40005400 	.word	0x40005400
 800114c:	40005410 	.word	0x40005410
 8001150:	40005414 	.word	0x40005414
 8001154:	40005418 	.word	0x40005418

08001158 <shtp_recv>:

static uint16_t shtp_recv(void) {
 8001158:	b580      	push	{r7, lr}
 800115a:	b082      	sub	sp, #8
 800115c:	af00      	add	r7, sp, #0
    uint8_t hdr[4];
    if (bm_i2c_read(g_bm_addr, hdr, 4U) < 0) return 0U;
 800115e:	4b1a      	ldr	r3, [pc, #104]	@ (80011c8 <shtp_recv+0x70>)
 8001160:	781b      	ldrb	r3, [r3, #0]
 8001162:	4639      	mov	r1, r7
 8001164:	2204      	movs	r2, #4
 8001166:	4618      	mov	r0, r3
 8001168:	f7ff ff5c 	bl	8001024 <bm_i2c_read>
 800116c:	4603      	mov	r3, r0
 800116e:	2b00      	cmp	r3, #0
 8001170:	da01      	bge.n	8001176 <shtp_recv+0x1e>
 8001172:	2300      	movs	r3, #0
 8001174:	e024      	b.n	80011c0 <shtp_recv+0x68>

    uint16_t pkt_len = (uint16_t)hdr[0] | ((uint16_t)(hdr[1] & 0x7FU) << 8U);
 8001176:	783b      	ldrb	r3, [r7, #0]
 8001178:	b21a      	sxth	r2, r3
 800117a:	787b      	ldrb	r3, [r7, #1]
 800117c:	b21b      	sxth	r3, r3
 800117e:	021b      	lsls	r3, r3, #8
 8001180:	b21b      	sxth	r3, r3
 8001182:	f403 43fe 	and.w	r3, r3, #32512	@ 0x7f00
 8001186:	b21b      	sxth	r3, r3
 8001188:	4313      	orrs	r3, r2
 800118a:	b21b      	sxth	r3, r3
 800118c:	80fb      	strh	r3, [r7, #6]
    if (pkt_len < 4U) return 0U;
 800118e:	88fb      	ldrh	r3, [r7, #6]
 8001190:	2b03      	cmp	r3, #3
 8001192:	d801      	bhi.n	8001198 <shtp_recv+0x40>
 8001194:	2300      	movs	r3, #0
 8001196:	e013      	b.n	80011c0 <shtp_recv+0x68>
    if (pkt_len > (uint16_t)sizeof(g_bm_rx)) pkt_len = (uint16_t)sizeof(g_bm_rx);
 8001198:	88fb      	ldrh	r3, [r7, #6]
 800119a:	2b84      	cmp	r3, #132	@ 0x84
 800119c:	d901      	bls.n	80011a2 <shtp_recv+0x4a>
 800119e:	2384      	movs	r3, #132	@ 0x84
 80011a0:	80fb      	strh	r3, [r7, #6]

    if (bm_i2c_read(g_bm_addr, g_bm_rx, pkt_len) < 0) return 0U;
 80011a2:	4b09      	ldr	r3, [pc, #36]	@ (80011c8 <shtp_recv+0x70>)
 80011a4:	781b      	ldrb	r3, [r3, #0]
 80011a6:	88fa      	ldrh	r2, [r7, #6]
 80011a8:	4908      	ldr	r1, [pc, #32]	@ (80011cc <shtp_recv+0x74>)
 80011aa:	4618      	mov	r0, r3
 80011ac:	f7ff ff3a 	bl	8001024 <bm_i2c_read>
 80011b0:	4603      	mov	r3, r0
 80011b2:	2b00      	cmp	r3, #0
 80011b4:	da01      	bge.n	80011ba <shtp_recv+0x62>
 80011b6:	2300      	movs	r3, #0
 80011b8:	e002      	b.n	80011c0 <shtp_recv+0x68>
    return (uint16_t)(pkt_len - 4U);
 80011ba:	88fb      	ldrh	r3, [r7, #6]
 80011bc:	3b04      	subs	r3, #4
 80011be:	b29b      	uxth	r3, r3
}
 80011c0:	4618      	mov	r0, r3
 80011c2:	3708      	adds	r7, #8
 80011c4:	46bd      	mov	sp, r7
 80011c6:	bd80      	pop	{r7, pc}
 80011c8:	20000000 	.word	0x20000000
 80011cc:	2000021c 	.word	0x2000021c

080011d0 <bno_report_len>:

static uint8_t bno_report_len(uint8_t rid) {
 80011d0:	b480      	push	{r7}
 80011d2:	b083      	sub	sp, #12
 80011d4:	af00      	add	r7, sp, #0
 80011d6:	4603      	mov	r3, r0
 80011d8:	71fb      	strb	r3, [r7, #7]
    switch (rid) {
 80011da:	79fb      	ldrb	r3, [r7, #7]
 80011dc:	3b01      	subs	r3, #1
 80011de:	2b07      	cmp	r3, #7
 80011e0:	d81a      	bhi.n	8001218 <bno_report_len+0x48>
 80011e2:	a201      	add	r2, pc, #4	@ (adr r2, 80011e8 <bno_report_len+0x18>)
 80011e4:	f852 f023 	ldr.w	pc, [r2, r3, lsl #2]
 80011e8:	08001209 	.word	0x08001209
 80011ec:	0800120d 	.word	0x0800120d
 80011f0:	08001219 	.word	0x08001219
 80011f4:	08001219 	.word	0x08001219
 80011f8:	08001211 	.word	0x08001211
 80011fc:	08001219 	.word	0x08001219
 8001200:	08001219 	.word	0x08001219
 8001204:	08001215 	.word	0x08001215
    case BNO_RPT_ACCEL:   return 10U;
 8001208:	230a      	movs	r3, #10
 800120a:	e006      	b.n	800121a <bno_report_len+0x4a>
    case BNO_RPT_GYRO:    return 10U;
 800120c:	230a      	movs	r3, #10
 800120e:	e004      	b.n	800121a <bno_report_len+0x4a>
    case BNO_RPT_ROTVEC:  return 14U;
 8001210:	230e      	movs	r3, #14
 8001212:	e002      	b.n	800121a <bno_report_len+0x4a>
    case BNO_RPT_GAMEROT: return 12U;
 8001214:	230c      	movs	r3, #12
 8001216:	e000      	b.n	800121a <bno_report_len+0x4a>
    default:              return 0U;
 8001218:	2300      	movs	r3, #0
    }
}
 800121a:	4618      	mov	r0, r3
 800121c:	370c      	adds	r7, #12
 800121e:	46bd      	mov	sp, r7
 8001220:	f85d 7b04 	ldr.w	r7, [sp], #4
 8001224:	4770      	bx	lr
 8001226:	bf00      	nop

08001228 <bno_wrap_rad>:

static float bno_wrap_rad(float r) {
 8001228:	b480      	push	{r7}
 800122a:	b083      	sub	sp, #12
 800122c:	af00      	add	r7, sp, #0
 800122e:	ed87 0a01 	vstr	s0, [r7, #4]
    while (r >  PI) r -= 2.0f * PI;
 8001232:	e007      	b.n	8001244 <bno_wrap_rad+0x1c>
 8001234:	edd7 7a01 	vldr	s15, [r7, #4]
 8001238:	ed9f 7a15 	vldr	s14, [pc, #84]	@ 8001290 <bno_wrap_rad+0x68>
 800123c:	ee77 7ac7 	vsub.f32	s15, s15, s14
 8001240:	edc7 7a01 	vstr	s15, [r7, #4]
 8001244:	edd7 7a01 	vldr	s15, [r7, #4]
 8001248:	ed9f 7a12 	vldr	s14, [pc, #72]	@ 8001294 <bno_wrap_rad+0x6c>
 800124c:	eef4 7ac7 	vcmpe.f32	s15, s14
 8001250:	eef1 fa10 	vmrs	APSR_nzcv, fpscr
 8001254:	dcee      	bgt.n	8001234 <bno_wrap_rad+0xc>
    while (r < -PI) r += 2.0f * PI;
 8001256:	e007      	b.n	8001268 <bno_wrap_rad+0x40>
 8001258:	edd7 7a01 	vldr	s15, [r7, #4]
 800125c:	ed9f 7a0c 	vldr	s14, [pc, #48]	@ 8001290 <bno_wrap_rad+0x68>
 8001260:	ee77 7a87 	vadd.f32	s15, s15, s14
 8001264:	edc7 7a01 	vstr	s15, [r7, #4]
 8001268:	edd7 7a01 	vldr	s15, [r7, #4]
 800126c:	ed9f 7a0a 	vldr	s14, [pc, #40]	@ 8001298 <bno_wrap_rad+0x70>
 8001270:	eef4 7ac7 	vcmpe.f32	s15, s14
 8001274:	eef1 fa10 	vmrs	APSR_nzcv, fpscr
 8001278:	d4ee      	bmi.n	8001258 <bno_wrap_rad+0x30>
    return r;
 800127a:	687b      	ldr	r3, [r7, #4]
 800127c:	ee07 3a90 	vmov	s15, r3
}
 8001280:	eeb0 0a67 	vmov.f32	s0, s15
 8001284:	370c      	adds	r7, #12
 8001286:	46bd      	mov	sp, r7
 8001288:	f85d 7b04 	ldr.w	r7, [sp], #4
 800128c:	4770      	bx	lr
 800128e:	bf00      	nop
 8001290:	40c90fdb 	.word	0x40c90fdb
 8001294:	40490fdb 	.word	0x40490fdb
 8001298:	c0490fdb 	.word	0xc0490fdb

0800129c <bno_quat_to_euler>:

static void bno_quat_to_euler(float qi, float qj, float qk, float qr,
                              float *roll_rad, float *pitch_rad, float *yaw_rad) {
 800129c:	b580      	push	{r7, lr}
 800129e:	b08e      	sub	sp, #56	@ 0x38
 80012a0:	af00      	add	r7, sp, #0
 80012a2:	ed87 0a07 	vstr	s0, [r7, #28]
 80012a6:	edc7 0a06 	vstr	s1, [r7, #24]
 80012aa:	ed87 1a05 	vstr	s2, [r7, #20]
 80012ae:	edc7 1a04 	vstr	s3, [r7, #16]
 80012b2:	60f8      	str	r0, [r7, #12]
 80012b4:	60b9      	str	r1, [r7, #8]
 80012b6:	607a      	str	r2, [r7, #4]
    float qn = sqrtf(qi * qi + qj * qj + qk * qk + qr * qr);
 80012b8:	edd7 7a07 	vldr	s15, [r7, #28]
 80012bc:	ee27 7aa7 	vmul.f32	s14, s15, s15
 80012c0:	edd7 7a06 	vldr	s15, [r7, #24]
 80012c4:	ee67 7aa7 	vmul.f32	s15, s15, s15
 80012c8:	ee37 7a27 	vadd.f32	s14, s14, s15
 80012cc:	edd7 7a05 	vldr	s15, [r7, #20]
 80012d0:	ee67 7aa7 	vmul.f32	s15, s15, s15
 80012d4:	ee37 7a27 	vadd.f32	s14, s14, s15
 80012d8:	edd7 7a04 	vldr	s15, [r7, #16]
 80012dc:	ee67 7aa7 	vmul.f32	s15, s15, s15
 80012e0:	ee77 7a27 	vadd.f32	s15, s14, s15
 80012e4:	eeb0 0a67 	vmov.f32	s0, s15
 80012e8:	f003 f8e8 	bl	80044bc <sqrtf>
 80012ec:	ed87 0a0d 	vstr	s0, [r7, #52]	@ 0x34
    if (qn > 0.001f) {
 80012f0:	edd7 7a0d 	vldr	s15, [r7, #52]	@ 0x34
 80012f4:	ed9f 7a63 	vldr	s14, [pc, #396]	@ 8001484 <bno_quat_to_euler+0x1e8>
 80012f8:	eef4 7ac7 	vcmpe.f32	s15, s14
 80012fc:	eef1 fa10 	vmrs	APSR_nzcv, fpscr
 8001300:	dd1f      	ble.n	8001342 <bno_quat_to_euler+0xa6>
        qi /= qn;
 8001302:	edd7 6a07 	vldr	s13, [r7, #28]
 8001306:	ed97 7a0d 	vldr	s14, [r7, #52]	@ 0x34
 800130a:	eec6 7a87 	vdiv.f32	s15, s13, s14
 800130e:	edc7 7a07 	vstr	s15, [r7, #28]
        qj /= qn;
 8001312:	edd7 6a06 	vldr	s13, [r7, #24]
 8001316:	ed97 7a0d 	vldr	s14, [r7, #52]	@ 0x34
 800131a:	eec6 7a87 	vdiv.f32	s15, s13, s14
 800131e:	edc7 7a06 	vstr	s15, [r7, #24]
        qk /= qn;
 8001322:	edd7 6a05 	vldr	s13, [r7, #20]
 8001326:	ed97 7a0d 	vldr	s14, [r7, #52]	@ 0x34
 800132a:	eec6 7a87 	vdiv.f32	s15, s13, s14
 800132e:	edc7 7a05 	vstr	s15, [r7, #20]
        qr /= qn;
 8001332:	edd7 6a04 	vldr	s13, [r7, #16]
 8001336:	ed97 7a0d 	vldr	s14, [r7, #52]	@ 0x34
 800133a:	eec6 7a87 	vdiv.f32	s15, s13, s14
 800133e:	edc7 7a04 	vstr	s15, [r7, #16]
    }

    float sinr = 2.0f * (qr * qi + qj * qk);
 8001342:	ed97 7a04 	vldr	s14, [r7, #16]
 8001346:	edd7 7a07 	vldr	s15, [r7, #28]
 800134a:	ee27 7a27 	vmul.f32	s14, s14, s15
 800134e:	edd7 6a06 	vldr	s13, [r7, #24]
 8001352:	edd7 7a05 	vldr	s15, [r7, #20]
 8001356:	ee66 7aa7 	vmul.f32	s15, s13, s15
 800135a:	ee77 7a27 	vadd.f32	s15, s14, s15
 800135e:	ee77 7aa7 	vadd.f32	s15, s15, s15
 8001362:	edc7 7a0c 	vstr	s15, [r7, #48]	@ 0x30
    float cosr = 1.0f - 2.0f * (qi * qi + qj * qj);
 8001366:	edd7 7a07 	vldr	s15, [r7, #28]
 800136a:	ee27 7aa7 	vmul.f32	s14, s15, s15
 800136e:	edd7 7a06 	vldr	s15, [r7, #24]
 8001372:	ee67 7aa7 	vmul.f32	s15, s15, s15
 8001376:	ee77 7a27 	vadd.f32	s15, s14, s15
 800137a:	ee77 7aa7 	vadd.f32	s15, s15, s15
 800137e:	eeb7 7a00 	vmov.f32	s14, #112	@ 0x3f800000  1.0
 8001382:	ee77 7a67 	vsub.f32	s15, s14, s15
 8001386:	edc7 7a0b 	vstr	s15, [r7, #44]	@ 0x2c
    float sinp = 2.0f * (qr * qj - qk * qi);
 800138a:	ed97 7a04 	vldr	s14, [r7, #16]
 800138e:	edd7 7a06 	vldr	s15, [r7, #24]
 8001392:	ee27 7a27 	vmul.f32	s14, s14, s15
 8001396:	edd7 6a05 	vldr	s13, [r7, #20]
 800139a:	edd7 7a07 	vldr	s15, [r7, #28]
 800139e:	ee66 7aa7 	vmul.f32	s15, s13, s15
 80013a2:	ee77 7a67 	vsub.f32	s15, s14, s15
 80013a6:	ee77 7aa7 	vadd.f32	s15, s15, s15
 80013aa:	edc7 7a0a 	vstr	s15, [r7, #40]	@ 0x28
    float siny = 2.0f * (qr * qk + qi * qj);
 80013ae:	ed97 7a04 	vldr	s14, [r7, #16]
 80013b2:	edd7 7a05 	vldr	s15, [r7, #20]
 80013b6:	ee27 7a27 	vmul.f32	s14, s14, s15
 80013ba:	edd7 6a07 	vldr	s13, [r7, #28]
 80013be:	edd7 7a06 	vldr	s15, [r7, #24]
 80013c2:	ee66 7aa7 	vmul.f32	s15, s13, s15
 80013c6:	ee77 7a27 	vadd.f32	s15, s14, s15
 80013ca:	ee77 7aa7 	vadd.f32	s15, s15, s15
 80013ce:	edc7 7a09 	vstr	s15, [r7, #36]	@ 0x24
    float cosy = 1.0f - 2.0f * (qj * qj + qk * qk);
 80013d2:	edd7 7a06 	vldr	s15, [r7, #24]
 80013d6:	ee27 7aa7 	vmul.f32	s14, s15, s15
 80013da:	edd7 7a05 	vldr	s15, [r7, #20]
 80013de:	ee67 7aa7 	vmul.f32	s15, s15, s15
 80013e2:	ee77 7a27 	vadd.f32	s15, s14, s15
 80013e6:	ee77 7aa7 	vadd.f32	s15, s15, s15
 80013ea:	eeb7 7a00 	vmov.f32	s14, #112	@ 0x3f800000  1.0
 80013ee:	ee77 7a67 	vsub.f32	s15, s14, s15
 80013f2:	edc7 7a08 	vstr	s15, [r7, #32]

    if (roll_rad) *roll_rad = atan2f(sinr, cosr);
 80013f6:	68fb      	ldr	r3, [r7, #12]
 80013f8:	2b00      	cmp	r3, #0
 80013fa:	d00a      	beq.n	8001412 <bno_quat_to_euler+0x176>
 80013fc:	edd7 0a0b 	vldr	s1, [r7, #44]	@ 0x2c
 8001400:	ed97 0a0c 	vldr	s0, [r7, #48]	@ 0x30
 8001404:	f003 f858 	bl	80044b8 <atan2f>
 8001408:	eef0 7a40 	vmov.f32	s15, s0
 800140c:	68fb      	ldr	r3, [r7, #12]
 800140e:	edc3 7a00 	vstr	s15, [r3]
    if (pitch_rad) {
 8001412:	68bb      	ldr	r3, [r7, #8]
 8001414:	2b00      	cmp	r3, #0
 8001416:	d022      	beq.n	800145e <bno_quat_to_euler+0x1c2>
        if (sinp > 1.0f) *pitch_rad = PI * 0.5f;
 8001418:	edd7 7a0a 	vldr	s15, [r7, #40]	@ 0x28
 800141c:	eeb7 7a00 	vmov.f32	s14, #112	@ 0x3f800000  1.0
 8001420:	eef4 7ac7 	vcmpe.f32	s15, s14
 8001424:	eef1 fa10 	vmrs	APSR_nzcv, fpscr
 8001428:	dd03      	ble.n	8001432 <bno_quat_to_euler+0x196>
 800142a:	68bb      	ldr	r3, [r7, #8]
 800142c:	4a16      	ldr	r2, [pc, #88]	@ (8001488 <bno_quat_to_euler+0x1ec>)
 800142e:	601a      	str	r2, [r3, #0]
 8001430:	e015      	b.n	800145e <bno_quat_to_euler+0x1c2>
        else if (sinp < -1.0f) *pitch_rad = -PI * 0.5f;
 8001432:	edd7 7a0a 	vldr	s15, [r7, #40]	@ 0x28
 8001436:	eebf 7a00 	vmov.f32	s14, #240	@ 0xbf800000 -1.0
 800143a:	eef4 7ac7 	vcmpe.f32	s15, s14
 800143e:	eef1 fa10 	vmrs	APSR_nzcv, fpscr
 8001442:	d503      	bpl.n	800144c <bno_quat_to_euler+0x1b0>
 8001444:	68bb      	ldr	r3, [r7, #8]
 8001446:	4a11      	ldr	r2, [pc, #68]	@ (800148c <bno_quat_to_euler+0x1f0>)
 8001448:	601a      	str	r2, [r3, #0]
 800144a:	e008      	b.n	800145e <bno_quat_to_euler+0x1c2>
        else *pitch_rad = asinf(sinp);
 800144c:	ed97 0a0a 	vldr	s0, [r7, #40]	@ 0x28
 8001450:	f003 f806 	bl	8004460 <asinf>
 8001454:	eef0 7a40 	vmov.f32	s15, s0
 8001458:	68bb      	ldr	r3, [r7, #8]
 800145a:	edc3 7a00 	vstr	s15, [r3]
    }
    if (yaw_rad) *yaw_rad = atan2f(siny, cosy);
 800145e:	687b      	ldr	r3, [r7, #4]
 8001460:	2b00      	cmp	r3, #0
 8001462:	d00a      	beq.n	800147a <bno_quat_to_euler+0x1de>
 8001464:	edd7 0a08 	vldr	s1, [r7, #32]
 8001468:	ed97 0a09 	vldr	s0, [r7, #36]	@ 0x24
 800146c:	f003 f824 	bl	80044b8 <atan2f>
 8001470:	eef0 7a40 	vmov.f32	s15, s0
 8001474:	687b      	ldr	r3, [r7, #4]
 8001476:	edc3 7a00 	vstr	s15, [r3]
}
 800147a:	bf00      	nop
 800147c:	3738      	adds	r7, #56	@ 0x38
 800147e:	46bd      	mov	sp, r7
 8001480:	bd80      	pop	{r7, pc}
 8001482:	bf00      	nop
 8001484:	3a83126f 	.word	0x3a83126f
 8001488:	3fc90fdb 	.word	0x3fc90fdb
 800148c:	bfc90fdb 	.word	0xbfc90fdb

08001490 <rd_i16>:

static int16_t rd_i16(const uint8_t *p) {
 8001490:	b480      	push	{r7}
 8001492:	b083      	sub	sp, #12
 8001494:	af00      	add	r7, sp, #0
 8001496:	6078      	str	r0, [r7, #4]
    return (int16_t)((uint16_t)p[0] | ((uint16_t)p[1] << 8U));
 8001498:	687b      	ldr	r3, [r7, #4]
 800149a:	781b      	ldrb	r3, [r3, #0]
 800149c:	b21a      	sxth	r2, r3
 800149e:	687b      	ldr	r3, [r7, #4]
 80014a0:	3301      	adds	r3, #1
 80014a2:	781b      	ldrb	r3, [r3, #0]
 80014a4:	b21b      	sxth	r3, r3
 80014a6:	021b      	lsls	r3, r3, #8
 80014a8:	b21b      	sxth	r3, r3
 80014aa:	4313      	orrs	r3, r2
 80014ac:	b21b      	sxth	r3, r3
}
 80014ae:	4618      	mov	r0, r3
 80014b0:	370c      	adds	r7, #12
 80014b2:	46bd      	mov	sp, r7
 80014b4:	f85d 7b04 	ldr.w	r7, [sp], #4
 80014b8:	4770      	bx	lr
	...

080014bc <bno_parse_report>:

static void bno_parse_report(const uint8_t *p, uint16_t avail, BNO08x_Data *d) {
 80014bc:	b580      	push	{r7, lr}
 80014be:	b08a      	sub	sp, #40	@ 0x28
 80014c0:	af00      	add	r7, sp, #0
 80014c2:	60f8      	str	r0, [r7, #12]
 80014c4:	460b      	mov	r3, r1
 80014c6:	607a      	str	r2, [r7, #4]
 80014c8:	817b      	strh	r3, [r7, #10]
    if (avail < 10U) return;
 80014ca:	897b      	ldrh	r3, [r7, #10]
 80014cc:	2b09      	cmp	r3, #9
 80014ce:	f240 81df 	bls.w	8001890 <bno_parse_report+0x3d4>

    uint8_t rid = p[0];
 80014d2:	68fb      	ldr	r3, [r7, #12]
 80014d4:	781b      	ldrb	r3, [r3, #0]
 80014d6:	f887 3027 	strb.w	r3, [r7, #39]	@ 0x27
    const uint8_t *dt = &p[4];
 80014da:	68fb      	ldr	r3, [r7, #12]
 80014dc:	3304      	adds	r3, #4
 80014de:	623b      	str	r3, [r7, #32]

    switch (rid) {
 80014e0:	f897 3027 	ldrb.w	r3, [r7, #39]	@ 0x27
 80014e4:	3b01      	subs	r3, #1
 80014e6:	2b07      	cmp	r3, #7
 80014e8:	f200 81d4 	bhi.w	8001894 <bno_parse_report+0x3d8>
 80014ec:	a201      	add	r2, pc, #4	@ (adr r2, 80014f4 <bno_parse_report+0x38>)
 80014ee:	f852 f023 	ldr.w	pc, [r2, r3, lsl #2]
 80014f2:	bf00      	nop
 80014f4:	08001515 	.word	0x08001515
 80014f8:	080015a5 	.word	0x080015a5
 80014fc:	08001895 	.word	0x08001895
 8001500:	08001895 	.word	0x08001895
 8001504:	08001639 	.word	0x08001639
 8001508:	08001895 	.word	0x08001895
 800150c:	08001895 	.word	0x08001895
 8001510:	08001639 	.word	0x08001639
    case BNO_RPT_ACCEL:
        d->raw_ax = rd_i16(&dt[0]);
 8001514:	6a38      	ldr	r0, [r7, #32]
 8001516:	f7ff ffbb 	bl	8001490 <rd_i16>
 800151a:	4603      	mov	r3, r0
 800151c:	461a      	mov	r2, r3
 800151e:	687b      	ldr	r3, [r7, #4]
 8001520:	871a      	strh	r2, [r3, #56]	@ 0x38
        d->raw_ay = rd_i16(&dt[2]);
 8001522:	6a3b      	ldr	r3, [r7, #32]
 8001524:	3302      	adds	r3, #2
 8001526:	4618      	mov	r0, r3
 8001528:	f7ff ffb2 	bl	8001490 <rd_i16>
 800152c:	4603      	mov	r3, r0
 800152e:	461a      	mov	r2, r3
 8001530:	687b      	ldr	r3, [r7, #4]
 8001532:	875a      	strh	r2, [r3, #58]	@ 0x3a
        d->raw_az = rd_i16(&dt[4]);
 8001534:	6a3b      	ldr	r3, [r7, #32]
 8001536:	3304      	adds	r3, #4
 8001538:	4618      	mov	r0, r3
 800153a:	f7ff ffa9 	bl	8001490 <rd_i16>
 800153e:	4603      	mov	r3, r0
 8001540:	461a      	mov	r2, r3
 8001542:	687b      	ldr	r3, [r7, #4]
 8001544:	879a      	strh	r2, [r3, #60]	@ 0x3c
        d->ax = (float)d->raw_ax / (float)(1U << BNO_ACCEL_Q);
 8001546:	687b      	ldr	r3, [r7, #4]
 8001548:	f9b3 3038 	ldrsh.w	r3, [r3, #56]	@ 0x38
 800154c:	ee07 3a90 	vmov	s15, r3
 8001550:	eeb8 7ae7 	vcvt.f32.s32	s14, s15
 8001554:	eddf 6ad3 	vldr	s13, [pc, #844]	@ 80018a4 <bno_parse_report+0x3e8>
 8001558:	eec7 7a26 	vdiv.f32	s15, s14, s13
 800155c:	687b      	ldr	r3, [r7, #4]
 800155e:	edc3 7a00 	vstr	s15, [r3]
        d->ay = (float)d->raw_ay / (float)(1U << BNO_ACCEL_Q);
 8001562:	687b      	ldr	r3, [r7, #4]
 8001564:	f9b3 303a 	ldrsh.w	r3, [r3, #58]	@ 0x3a
 8001568:	ee07 3a90 	vmov	s15, r3
 800156c:	eeb8 7ae7 	vcvt.f32.s32	s14, s15
 8001570:	eddf 6acc 	vldr	s13, [pc, #816]	@ 80018a4 <bno_parse_report+0x3e8>
 8001574:	eec7 7a26 	vdiv.f32	s15, s14, s13
 8001578:	687b      	ldr	r3, [r7, #4]
 800157a:	edc3 7a01 	vstr	s15, [r3, #4]
        d->az = (float)d->raw_az / (float)(1U << BNO_ACCEL_Q);
 800157e:	687b      	ldr	r3, [r7, #4]
 8001580:	f9b3 303c 	ldrsh.w	r3, [r3, #60]	@ 0x3c
 8001584:	ee07 3a90 	vmov	s15, r3
 8001588:	eeb8 7ae7 	vcvt.f32.s32	s14, s15
 800158c:	eddf 6ac5 	vldr	s13, [pc, #788]	@ 80018a4 <bno_parse_report+0x3e8>
 8001590:	eec7 7a26 	vdiv.f32	s15, s14, s13
 8001594:	687b      	ldr	r3, [r7, #4]
 8001596:	edc3 7a02 	vstr	s15, [r3, #8]
        d->new_accel = 1U;
 800159a:	687b      	ldr	r3, [r7, #4]
 800159c:	2201      	movs	r2, #1
 800159e:	f883 204c 	strb.w	r2, [r3, #76]	@ 0x4c
        break;
 80015a2:	e17c      	b.n	800189e <bno_parse_report+0x3e2>

    case BNO_RPT_GYRO:
        d->raw_gx = rd_i16(&dt[0]);
 80015a4:	6a38      	ldr	r0, [r7, #32]
 80015a6:	f7ff ff73 	bl	8001490 <rd_i16>
 80015aa:	4603      	mov	r3, r0
 80015ac:	461a      	mov	r2, r3
 80015ae:	687b      	ldr	r3, [r7, #4]
 80015b0:	87da      	strh	r2, [r3, #62]	@ 0x3e
        d->raw_gy = rd_i16(&dt[2]);
 80015b2:	6a3b      	ldr	r3, [r7, #32]
 80015b4:	3302      	adds	r3, #2
 80015b6:	4618      	mov	r0, r3
 80015b8:	f7ff ff6a 	bl	8001490 <rd_i16>
 80015bc:	4603      	mov	r3, r0
 80015be:	461a      	mov	r2, r3
 80015c0:	687b      	ldr	r3, [r7, #4]
 80015c2:	f8a3 2040 	strh.w	r2, [r3, #64]	@ 0x40
        d->raw_gz = rd_i16(&dt[4]);
 80015c6:	6a3b      	ldr	r3, [r7, #32]
 80015c8:	3304      	adds	r3, #4
 80015ca:	4618      	mov	r0, r3
 80015cc:	f7ff ff60 	bl	8001490 <rd_i16>
 80015d0:	4603      	mov	r3, r0
 80015d2:	461a      	mov	r2, r3
 80015d4:	687b      	ldr	r3, [r7, #4]
 80015d6:	f8a3 2042 	strh.w	r2, [r3, #66]	@ 0x42
        d->gx = (float)d->raw_gx / (float)(1U << BNO_GYRO_Q);
 80015da:	687b      	ldr	r3, [r7, #4]
 80015dc:	f9b3 303e 	ldrsh.w	r3, [r3, #62]	@ 0x3e
 80015e0:	ee07 3a90 	vmov	s15, r3
 80015e4:	eeb8 7ae7 	vcvt.f32.s32	s14, s15
 80015e8:	eddf 6aaf 	vldr	s13, [pc, #700]	@ 80018a8 <bno_parse_report+0x3ec>
 80015ec:	eec7 7a26 	vdiv.f32	s15, s14, s13
 80015f0:	687b      	ldr	r3, [r7, #4]
 80015f2:	edc3 7a03 	vstr	s15, [r3, #12]
        d->gy = (float)d->raw_gy / (float)(1U << BNO_GYRO_Q);
 80015f6:	687b      	ldr	r3, [r7, #4]
 80015f8:	f9b3 3040 	ldrsh.w	r3, [r3, #64]	@ 0x40
 80015fc:	ee07 3a90 	vmov	s15, r3
 8001600:	eeb8 7ae7 	vcvt.f32.s32	s14, s15
 8001604:	eddf 6aa8 	vldr	s13, [pc, #672]	@ 80018a8 <bno_parse_report+0x3ec>
 8001608:	eec7 7a26 	vdiv.f32	s15, s14, s13
 800160c:	687b      	ldr	r3, [r7, #4]
 800160e:	edc3 7a04 	vstr	s15, [r3, #16]
        d->gz = (float)d->raw_gz / (float)(1U << BNO_GYRO_Q);
 8001612:	687b      	ldr	r3, [r7, #4]
 8001614:	f9b3 3042 	ldrsh.w	r3, [r3, #66]	@ 0x42
 8001618:	ee07 3a90 	vmov	s15, r3
 800161c:	eeb8 7ae7 	vcvt.f32.s32	s14, s15
 8001620:	eddf 6aa1 	vldr	s13, [pc, #644]	@ 80018a8 <bno_parse_report+0x3ec>
 8001624:	eec7 7a26 	vdiv.f32	s15, s14, s13
 8001628:	687b      	ldr	r3, [r7, #4]
 800162a:	edc3 7a05 	vstr	s15, [r3, #20]
        d->new_gyro = 1U;
 800162e:	687b      	ldr	r3, [r7, #4]
 8001630:	2201      	movs	r2, #1
 8001632:	f883 204d 	strb.w	r2, [r3, #77]	@ 0x4d
        break;
 8001636:	e132      	b.n	800189e <bno_parse_report+0x3e2>

    case BNO_RPT_GAMEROT:
    case BNO_RPT_ROTVEC: {
        if (rid == BNO_RPT_GAMEROT && avail < 12U) return;
 8001638:	f897 3027 	ldrb.w	r3, [r7, #39]	@ 0x27
 800163c:	2b08      	cmp	r3, #8
 800163e:	d103      	bne.n	8001648 <bno_parse_report+0x18c>
 8001640:	897b      	ldrh	r3, [r7, #10]
 8001642:	2b0b      	cmp	r3, #11
 8001644:	f240 8128 	bls.w	8001898 <bno_parse_report+0x3dc>
        if (rid == BNO_RPT_ROTVEC && avail < 14U) return;
 8001648:	f897 3027 	ldrb.w	r3, [r7, #39]	@ 0x27
 800164c:	2b05      	cmp	r3, #5
 800164e:	d103      	bne.n	8001658 <bno_parse_report+0x19c>
 8001650:	897b      	ldrh	r3, [r7, #10]
 8001652:	2b0d      	cmp	r3, #13
 8001654:	f240 8122 	bls.w	800189c <bno_parse_report+0x3e0>

        d->raw_qi = rd_i16(&dt[0]);
 8001658:	6a38      	ldr	r0, [r7, #32]
 800165a:	f7ff ff19 	bl	8001490 <rd_i16>
 800165e:	4603      	mov	r3, r0
 8001660:	461a      	mov	r2, r3
 8001662:	687b      	ldr	r3, [r7, #4]
 8001664:	f8a3 2044 	strh.w	r2, [r3, #68]	@ 0x44
        d->raw_qj = rd_i16(&dt[2]);
 8001668:	6a3b      	ldr	r3, [r7, #32]
 800166a:	3302      	adds	r3, #2
 800166c:	4618      	mov	r0, r3
 800166e:	f7ff ff0f 	bl	8001490 <rd_i16>
 8001672:	4603      	mov	r3, r0
 8001674:	461a      	mov	r2, r3
 8001676:	687b      	ldr	r3, [r7, #4]
 8001678:	f8a3 2046 	strh.w	r2, [r3, #70]	@ 0x46
        d->raw_qk = rd_i16(&dt[4]);
 800167c:	6a3b      	ldr	r3, [r7, #32]
 800167e:	3304      	adds	r3, #4
 8001680:	4618      	mov	r0, r3
 8001682:	f7ff ff05 	bl	8001490 <rd_i16>
 8001686:	4603      	mov	r3, r0
 8001688:	461a      	mov	r2, r3
 800168a:	687b      	ldr	r3, [r7, #4]
 800168c:	f8a3 2048 	strh.w	r2, [r3, #72]	@ 0x48
        d->raw_qr = rd_i16(&dt[6]);
 8001690:	6a3b      	ldr	r3, [r7, #32]
 8001692:	3306      	adds	r3, #6
 8001694:	4618      	mov	r0, r3
 8001696:	f7ff fefb 	bl	8001490 <rd_i16>
 800169a:	4603      	mov	r3, r0
 800169c:	461a      	mov	r2, r3
 800169e:	687b      	ldr	r3, [r7, #4]
 80016a0:	f8a3 204a 	strh.w	r2, [r3, #74]	@ 0x4a

        d->qi = (float)d->raw_qi / (float)(1U << BNO_QUAT_Q);
 80016a4:	687b      	ldr	r3, [r7, #4]
 80016a6:	f9b3 3044 	ldrsh.w	r3, [r3, #68]	@ 0x44
 80016aa:	ee07 3a90 	vmov	s15, r3
 80016ae:	eeb8 7ae7 	vcvt.f32.s32	s14, s15
 80016b2:	eddf 6a7e 	vldr	s13, [pc, #504]	@ 80018ac <bno_parse_report+0x3f0>
 80016b6:	eec7 7a26 	vdiv.f32	s15, s14, s13
 80016ba:	687b      	ldr	r3, [r7, #4]
 80016bc:	edc3 7a06 	vstr	s15, [r3, #24]
        d->qj = (float)d->raw_qj / (float)(1U << BNO_QUAT_Q);
 80016c0:	687b      	ldr	r3, [r7, #4]
 80016c2:	f9b3 3046 	ldrsh.w	r3, [r3, #70]	@ 0x46
 80016c6:	ee07 3a90 	vmov	s15, r3
 80016ca:	eeb8 7ae7 	vcvt.f32.s32	s14, s15
 80016ce:	eddf 6a77 	vldr	s13, [pc, #476]	@ 80018ac <bno_parse_report+0x3f0>
 80016d2:	eec7 7a26 	vdiv.f32	s15, s14, s13
 80016d6:	687b      	ldr	r3, [r7, #4]
 80016d8:	edc3 7a07 	vstr	s15, [r3, #28]
        d->qk = (float)d->raw_qk / (float)(1U << BNO_QUAT_Q);
 80016dc:	687b      	ldr	r3, [r7, #4]
 80016de:	f9b3 3048 	ldrsh.w	r3, [r3, #72]	@ 0x48
 80016e2:	ee07 3a90 	vmov	s15, r3
 80016e6:	eeb8 7ae7 	vcvt.f32.s32	s14, s15
 80016ea:	eddf 6a70 	vldr	s13, [pc, #448]	@ 80018ac <bno_parse_report+0x3f0>
 80016ee:	eec7 7a26 	vdiv.f32	s15, s14, s13
 80016f2:	687b      	ldr	r3, [r7, #4]
 80016f4:	edc3 7a08 	vstr	s15, [r3, #32]
        d->qr = (float)d->raw_qr / (float)(1U << BNO_QUAT_Q);
 80016f8:	687b      	ldr	r3, [r7, #4]
 80016fa:	f9b3 304a 	ldrsh.w	r3, [r3, #74]	@ 0x4a
 80016fe:	ee07 3a90 	vmov	s15, r3
 8001702:	eeb8 7ae7 	vcvt.f32.s32	s14, s15
 8001706:	eddf 6a69 	vldr	s13, [pc, #420]	@ 80018ac <bno_parse_report+0x3f0>
 800170a:	eec7 7a26 	vdiv.f32	s15, s14, s13
 800170e:	687b      	ldr	r3, [r7, #4]
 8001710:	edc3 7a09 	vstr	s15, [r3, #36]	@ 0x24
        d->qacc = (rid == BNO_RPT_ROTVEC) ? ((float)rd_i16(&dt[8]) / (float)(1U << BNO_ACC_Q)) : 0.0f;
 8001714:	f897 3027 	ldrb.w	r3, [r7, #39]	@ 0x27
 8001718:	2b05      	cmp	r3, #5
 800171a:	d10e      	bne.n	800173a <bno_parse_report+0x27e>
 800171c:	6a3b      	ldr	r3, [r7, #32]
 800171e:	3308      	adds	r3, #8
 8001720:	4618      	mov	r0, r3
 8001722:	f7ff feb5 	bl	8001490 <rd_i16>
 8001726:	4603      	mov	r3, r0
 8001728:	ee07 3a90 	vmov	s15, r3
 800172c:	eeb8 7ae7 	vcvt.f32.s32	s14, s15
 8001730:	eddf 6a5f 	vldr	s13, [pc, #380]	@ 80018b0 <bno_parse_report+0x3f4>
 8001734:	eec7 7a26 	vdiv.f32	s15, s14, s13
 8001738:	e001      	b.n	800173e <bno_parse_report+0x282>
 800173a:	eddf 7a5e 	vldr	s15, [pc, #376]	@ 80018b4 <bno_parse_report+0x3f8>
 800173e:	687b      	ldr	r3, [r7, #4]
 8001740:	edc3 7a0a 	vstr	s15, [r3, #40]	@ 0x28

        float qn = sqrtf(d->qi * d->qi + d->qj * d->qj + d->qk * d->qk + d->qr * d->qr);
 8001744:	687b      	ldr	r3, [r7, #4]
 8001746:	ed93 7a06 	vldr	s14, [r3, #24]
 800174a:	687b      	ldr	r3, [r7, #4]
 800174c:	edd3 7a06 	vldr	s15, [r3, #24]
 8001750:	ee27 7a27 	vmul.f32	s14, s14, s15
 8001754:	687b      	ldr	r3, [r7, #4]
 8001756:	edd3 6a07 	vldr	s13, [r3, #28]
 800175a:	687b      	ldr	r3, [r7, #4]
 800175c:	edd3 7a07 	vldr	s15, [r3, #28]
 8001760:	ee66 7aa7 	vmul.f32	s15, s13, s15
 8001764:	ee37 7a27 	vadd.f32	s14, s14, s15
 8001768:	687b      	ldr	r3, [r7, #4]
 800176a:	edd3 6a08 	vldr	s13, [r3, #32]
 800176e:	687b      	ldr	r3, [r7, #4]
 8001770:	edd3 7a08 	vldr	s15, [r3, #32]
 8001774:	ee66 7aa7 	vmul.f32	s15, s13, s15
 8001778:	ee37 7a27 	vadd.f32	s14, s14, s15
 800177c:	687b      	ldr	r3, [r7, #4]
 800177e:	edd3 6a09 	vldr	s13, [r3, #36]	@ 0x24
 8001782:	687b      	ldr	r3, [r7, #4]
 8001784:	edd3 7a09 	vldr	s15, [r3, #36]	@ 0x24
 8001788:	ee66 7aa7 	vmul.f32	s15, s13, s15
 800178c:	ee77 7a27 	vadd.f32	s15, s14, s15
 8001790:	eeb0 0a67 	vmov.f32	s0, s15
 8001794:	f002 fe92 	bl	80044bc <sqrtf>
 8001798:	ed87 0a07 	vstr	s0, [r7, #28]
        if (qn > 0.001f) {
 800179c:	edd7 7a07 	vldr	s15, [r7, #28]
 80017a0:	ed9f 7a45 	vldr	s14, [pc, #276]	@ 80018b8 <bno_parse_report+0x3fc>
 80017a4:	eef4 7ac7 	vcmpe.f32	s15, s14
 80017a8:	eef1 fa10 	vmrs	APSR_nzcv, fpscr
 80017ac:	dd27      	ble.n	80017fe <bno_parse_report+0x342>
            d->qi /= qn;
 80017ae:	687b      	ldr	r3, [r7, #4]
 80017b0:	edd3 6a06 	vldr	s13, [r3, #24]
 80017b4:	ed97 7a07 	vldr	s14, [r7, #28]
 80017b8:	eec6 7a87 	vdiv.f32	s15, s13, s14
 80017bc:	687b      	ldr	r3, [r7, #4]
 80017be:	edc3 7a06 	vstr	s15, [r3, #24]
            d->qj /= qn;
 80017c2:	687b      	ldr	r3, [r7, #4]
 80017c4:	edd3 6a07 	vldr	s13, [r3, #28]
 80017c8:	ed97 7a07 	vldr	s14, [r7, #28]
 80017cc:	eec6 7a87 	vdiv.f32	s15, s13, s14
 80017d0:	687b      	ldr	r3, [r7, #4]
 80017d2:	edc3 7a07 	vstr	s15, [r3, #28]
            d->qk /= qn;
 80017d6:	687b      	ldr	r3, [r7, #4]
 80017d8:	edd3 6a08 	vldr	s13, [r3, #32]
 80017dc:	ed97 7a07 	vldr	s14, [r7, #28]
 80017e0:	eec6 7a87 	vdiv.f32	s15, s13, s14
 80017e4:	687b      	ldr	r3, [r7, #4]
 80017e6:	edc3 7a08 	vstr	s15, [r3, #32]
            d->qr /= qn;
 80017ea:	687b      	ldr	r3, [r7, #4]
 80017ec:	edd3 6a09 	vldr	s13, [r3, #36]	@ 0x24
 80017f0:	ed97 7a07 	vldr	s14, [r7, #28]
 80017f4:	eec6 7a87 	vdiv.f32	s15, s13, s14
 80017f8:	687b      	ldr	r3, [r7, #4]
 80017fa:	edc3 7a09 	vstr	s15, [r3, #36]	@ 0x24
        }

        float roll, pitch, yaw;
        bno_quat_to_euler(d->qi, d->qj, d->qk, d->qr, &roll, &pitch, &yaw);
 80017fe:	687b      	ldr	r3, [r7, #4]
 8001800:	edd3 7a06 	vldr	s15, [r3, #24]
 8001804:	687b      	ldr	r3, [r7, #4]
 8001806:	ed93 7a07 	vldr	s14, [r3, #28]
 800180a:	687b      	ldr	r3, [r7, #4]
 800180c:	edd3 6a08 	vldr	s13, [r3, #32]
 8001810:	687b      	ldr	r3, [r7, #4]
 8001812:	ed93 6a09 	vldr	s12, [r3, #36]	@ 0x24
 8001816:	f107 0210 	add.w	r2, r7, #16
 800181a:	f107 0114 	add.w	r1, r7, #20
 800181e:	f107 0318 	add.w	r3, r7, #24
 8001822:	4618      	mov	r0, r3
 8001824:	eef0 1a46 	vmov.f32	s3, s12
 8001828:	eeb0 1a66 	vmov.f32	s2, s13
 800182c:	eef0 0a47 	vmov.f32	s1, s14
 8001830:	eeb0 0a67 	vmov.f32	s0, s15
 8001834:	f7ff fd32 	bl	800129c <bno_quat_to_euler>
        d->roll = roll * 180.0f / PI;
 8001838:	edd7 7a06 	vldr	s15, [r7, #24]
 800183c:	ed9f 7a1f 	vldr	s14, [pc, #124]	@ 80018bc <bno_parse_report+0x400>
 8001840:	ee27 7a87 	vmul.f32	s14, s15, s14
 8001844:	eddf 6a1e 	vldr	s13, [pc, #120]	@ 80018c0 <bno_parse_report+0x404>
 8001848:	eec7 7a26 	vdiv.f32	s15, s14, s13
 800184c:	687b      	ldr	r3, [r7, #4]
 800184e:	edc3 7a0b 	vstr	s15, [r3, #44]	@ 0x2c
        d->pitch = pitch * 180.0f / PI;
 8001852:	edd7 7a05 	vldr	s15, [r7, #20]
 8001856:	ed9f 7a19 	vldr	s14, [pc, #100]	@ 80018bc <bno_parse_report+0x400>
 800185a:	ee27 7a87 	vmul.f32	s14, s15, s14
 800185e:	eddf 6a18 	vldr	s13, [pc, #96]	@ 80018c0 <bno_parse_report+0x404>
 8001862:	eec7 7a26 	vdiv.f32	s15, s14, s13
 8001866:	687b      	ldr	r3, [r7, #4]
 8001868:	edc3 7a0c 	vstr	s15, [r3, #48]	@ 0x30
        d->yaw = yaw * 180.0f / PI;
 800186c:	edd7 7a04 	vldr	s15, [r7, #16]
 8001870:	ed9f 7a12 	vldr	s14, [pc, #72]	@ 80018bc <bno_parse_report+0x400>
 8001874:	ee27 7a87 	vmul.f32	s14, s15, s14
 8001878:	eddf 6a11 	vldr	s13, [pc, #68]	@ 80018c0 <bno_parse_report+0x404>
 800187c:	eec7 7a26 	vdiv.f32	s15, s14, s13
 8001880:	687b      	ldr	r3, [r7, #4]
 8001882:	edc3 7a0d 	vstr	s15, [r3, #52]	@ 0x34
        d->new_rotvec = 1U;
 8001886:	687b      	ldr	r3, [r7, #4]
 8001888:	2201      	movs	r2, #1
 800188a:	f883 204e 	strb.w	r2, [r3, #78]	@ 0x4e
 800188e:	e006      	b.n	800189e <bno_parse_report+0x3e2>
    if (avail < 10U) return;
 8001890:	bf00      	nop
 8001892:	e004      	b.n	800189e <bno_parse_report+0x3e2>
        break;
    }

    default:
        break;
 8001894:	bf00      	nop
 8001896:	e002      	b.n	800189e <bno_parse_report+0x3e2>
        if (rid == BNO_RPT_GAMEROT && avail < 12U) return;
 8001898:	bf00      	nop
 800189a:	e000      	b.n	800189e <bno_parse_report+0x3e2>
        if (rid == BNO_RPT_ROTVEC && avail < 14U) return;
 800189c:	bf00      	nop
    }
}
 800189e:	3728      	adds	r7, #40	@ 0x28
 80018a0:	46bd      	mov	sp, r7
 80018a2:	bd80      	pop	{r7, pc}
 80018a4:	43800000 	.word	0x43800000
 80018a8:	44000000 	.word	0x44000000
 80018ac:	46800000 	.word	0x46800000
 80018b0:	45800000 	.word	0x45800000
 80018b4:	00000000 	.word	0x00000000
 80018b8:	3a83126f 	.word	0x3a83126f
 80018bc:	43340000 	.word	0x43340000
 80018c0:	40490fdb 	.word	0x40490fdb

080018c4 <bno_init>:

uint8_t bno_init(void) {
 80018c4:	b580      	push	{r7, lr}
 80018c6:	b082      	sub	sp, #8
 80018c8:	af00      	add	r7, sp, #0
    memset(g_bm_seq, 0, sizeof(g_bm_seq));
 80018ca:	2206      	movs	r2, #6
 80018cc:	2100      	movs	r1, #0
 80018ce:	481b      	ldr	r0, [pc, #108]	@ (800193c <bno_init+0x78>)
 80018d0:	f004 ff9d 	bl	800680e <memset>
    bno_delay_ms(600U);
 80018d4:	f44f 7016 	mov.w	r0, #600	@ 0x258
 80018d8:	f7ff fa04 	bl	8000ce4 <bno_delay_ms>

    uint8_t tmp[4];
    if (bm_i2c_read(0x4AU, tmp, 4U) == 0) {
 80018dc:	1d3b      	adds	r3, r7, #4
 80018de:	2204      	movs	r2, #4
 80018e0:	4619      	mov	r1, r3
 80018e2:	204a      	movs	r0, #74	@ 0x4a
 80018e4:	f7ff fb9e 	bl	8001024 <bm_i2c_read>
 80018e8:	4603      	mov	r3, r0
 80018ea:	2b00      	cmp	r3, #0
 80018ec:	d103      	bne.n	80018f6 <bno_init+0x32>
        g_bm_addr = 0x4AU;
 80018ee:	4b14      	ldr	r3, [pc, #80]	@ (8001940 <bno_init+0x7c>)
 80018f0:	224a      	movs	r2, #74	@ 0x4a
 80018f2:	701a      	strb	r2, [r3, #0]
 80018f4:	e010      	b.n	8001918 <bno_init+0x54>
    } else {
        bno_delay_ms(20U);
 80018f6:	2014      	movs	r0, #20
 80018f8:	f7ff f9f4 	bl	8000ce4 <bno_delay_ms>
        g_bm_addr = (bm_i2c_read(0x4BU, tmp, 4U) == 0) ? 0x4BU : 0x00U;
 80018fc:	1d3b      	adds	r3, r7, #4
 80018fe:	2204      	movs	r2, #4
 8001900:	4619      	mov	r1, r3
 8001902:	204b      	movs	r0, #75	@ 0x4b
 8001904:	f7ff fb8e 	bl	8001024 <bm_i2c_read>
 8001908:	4603      	mov	r3, r0
 800190a:	2b00      	cmp	r3, #0
 800190c:	d101      	bne.n	8001912 <bno_init+0x4e>
 800190e:	224b      	movs	r2, #75	@ 0x4b
 8001910:	e000      	b.n	8001914 <bno_init+0x50>
 8001912:	2200      	movs	r2, #0
 8001914:	4b0a      	ldr	r3, [pc, #40]	@ (8001940 <bno_init+0x7c>)
 8001916:	701a      	strb	r2, [r3, #0]
    }
    if (g_bm_addr == 0x00U) return 0x00U;
 8001918:	4b09      	ldr	r3, [pc, #36]	@ (8001940 <bno_init+0x7c>)
 800191a:	781b      	ldrb	r3, [r3, #0]
 800191c:	2b00      	cmp	r3, #0
 800191e:	d101      	bne.n	8001924 <bno_init+0x60>
 8001920:	2300      	movs	r3, #0
 8001922:	e006      	b.n	8001932 <bno_init+0x6e>

    (void)shtp_recv();
 8001924:	f7ff fc18 	bl	8001158 <shtp_recv>
    bno_delay_ms(50U);
 8001928:	2032      	movs	r0, #50	@ 0x32
 800192a:	f7ff f9db 	bl	8000ce4 <bno_delay_ms>
    return g_bm_addr;
 800192e:	4b04      	ldr	r3, [pc, #16]	@ (8001940 <bno_init+0x7c>)
 8001930:	781b      	ldrb	r3, [r3, #0]
}
 8001932:	4618      	mov	r0, r3
 8001934:	3708      	adds	r7, #8
 8001936:	46bd      	mov	sp, r7
 8001938:	bd80      	pop	{r7, pc}
 800193a:	bf00      	nop
 800193c:	20000214 	.word	0x20000214
 8001940:	20000000 	.word	0x20000000

08001944 <bno_enable>:

void bno_enable(uint8_t rptID, uint32_t intervalUs) {
 8001944:	b580      	push	{r7, lr}
 8001946:	b088      	sub	sp, #32
 8001948:	af00      	add	r7, sp, #0
 800194a:	4603      	mov	r3, r0
 800194c:	6039      	str	r1, [r7, #0]
 800194e:	71fb      	strb	r3, [r7, #7]
    uint8_t tx[21] = {
 8001950:	2315      	movs	r3, #21
 8001952:	723b      	strb	r3, [r7, #8]
 8001954:	2300      	movs	r3, #0
 8001956:	727b      	strb	r3, [r7, #9]
 8001958:	2302      	movs	r3, #2
 800195a:	72bb      	strb	r3, [r7, #10]
 800195c:	2300      	movs	r3, #0
 800195e:	72fb      	strb	r3, [r7, #11]
 8001960:	23fd      	movs	r3, #253	@ 0xfd
 8001962:	733b      	strb	r3, [r7, #12]
 8001964:	79fb      	ldrb	r3, [r7, #7]
 8001966:	737b      	strb	r3, [r7, #13]
 8001968:	2300      	movs	r3, #0
 800196a:	73bb      	strb	r3, [r7, #14]
 800196c:	2300      	movs	r3, #0
 800196e:	73fb      	strb	r3, [r7, #15]
 8001970:	2300      	movs	r3, #0
 8001972:	743b      	strb	r3, [r7, #16]
        21, 0, 2, 0, 0xFD, rptID, 0, 0, 0,
        (uint8_t)(intervalUs & 0xFFU),
 8001974:	683b      	ldr	r3, [r7, #0]
 8001976:	b2db      	uxtb	r3, r3
    uint8_t tx[21] = {
 8001978:	747b      	strb	r3, [r7, #17]
        (uint8_t)((intervalUs >> 8) & 0xFFU),
 800197a:	683b      	ldr	r3, [r7, #0]
 800197c:	0a1b      	lsrs	r3, r3, #8
 800197e:	b2db      	uxtb	r3, r3
    uint8_t tx[21] = {
 8001980:	74bb      	strb	r3, [r7, #18]
        (uint8_t)((intervalUs >> 16) & 0xFFU),
 8001982:	683b      	ldr	r3, [r7, #0]
 8001984:	0c1b      	lsrs	r3, r3, #16
 8001986:	b2db      	uxtb	r3, r3
    uint8_t tx[21] = {
 8001988:	74fb      	strb	r3, [r7, #19]
        (uint8_t)((intervalUs >> 24) & 0xFFU),
 800198a:	683b      	ldr	r3, [r7, #0]
 800198c:	0e1b      	lsrs	r3, r3, #24
 800198e:	b2db      	uxtb	r3, r3
    uint8_t tx[21] = {
 8001990:	753b      	strb	r3, [r7, #20]
 8001992:	2300      	movs	r3, #0
 8001994:	757b      	strb	r3, [r7, #21]
 8001996:	2300      	movs	r3, #0
 8001998:	75bb      	strb	r3, [r7, #22]
 800199a:	2300      	movs	r3, #0
 800199c:	75fb      	strb	r3, [r7, #23]
 800199e:	2300      	movs	r3, #0
 80019a0:	763b      	strb	r3, [r7, #24]
 80019a2:	2300      	movs	r3, #0
 80019a4:	767b      	strb	r3, [r7, #25]
 80019a6:	2300      	movs	r3, #0
 80019a8:	76bb      	strb	r3, [r7, #26]
 80019aa:	2300      	movs	r3, #0
 80019ac:	76fb      	strb	r3, [r7, #27]
 80019ae:	2300      	movs	r3, #0
 80019b0:	773b      	strb	r3, [r7, #28]
        0, 0, 0, 0, 0, 0, 0, 0
    };
    tx[3] = g_bm_seq[2]++;
 80019b2:	4b0b      	ldr	r3, [pc, #44]	@ (80019e0 <bno_enable+0x9c>)
 80019b4:	789b      	ldrb	r3, [r3, #2]
 80019b6:	1c5a      	adds	r2, r3, #1
 80019b8:	b2d1      	uxtb	r1, r2
 80019ba:	4a09      	ldr	r2, [pc, #36]	@ (80019e0 <bno_enable+0x9c>)
 80019bc:	7091      	strb	r1, [r2, #2]
 80019be:	72fb      	strb	r3, [r7, #11]
    (void)bm_i2c_write(g_bm_addr, tx, sizeof(tx));
 80019c0:	4b08      	ldr	r3, [pc, #32]	@ (80019e4 <bno_enable+0xa0>)
 80019c2:	781b      	ldrb	r3, [r3, #0]
 80019c4:	f107 0108 	add.w	r1, r7, #8
 80019c8:	2215      	movs	r2, #21
 80019ca:	4618      	mov	r0, r3
 80019cc:	f7ff fab4 	bl	8000f38 <bm_i2c_write>
    bno_delay_ms(50U);
 80019d0:	2032      	movs	r0, #50	@ 0x32
 80019d2:	f7ff f987 	bl	8000ce4 <bno_delay_ms>
}
 80019d6:	bf00      	nop
 80019d8:	3720      	adds	r7, #32
 80019da:	46bd      	mov	sp, r7
 80019dc:	bd80      	pop	{r7, pc}
 80019de:	bf00      	nop
 80019e0:	20000214 	.word	0x20000214
 80019e4:	20000000 	.word	0x20000000

080019e8 <bno_update>:

int bno_update(BNO08x_Data *d) {
 80019e8:	b580      	push	{r7, lr}
 80019ea:	b086      	sub	sp, #24
 80019ec:	af00      	add	r7, sp, #0
 80019ee:	6078      	str	r0, [r7, #4]
    if (!d) return 0;
 80019f0:	687b      	ldr	r3, [r7, #4]
 80019f2:	2b00      	cmp	r3, #0
 80019f4:	d101      	bne.n	80019fa <bno_update+0x12>
 80019f6:	2300      	movs	r3, #0
 80019f8:	e077      	b.n	8001aea <bno_update+0x102>
    d->new_rotvec = 0U;
 80019fa:	687b      	ldr	r3, [r7, #4]
 80019fc:	2200      	movs	r2, #0
 80019fe:	f883 204e 	strb.w	r2, [r3, #78]	@ 0x4e
    d->new_gyro = 0U;
 8001a02:	687b      	ldr	r3, [r7, #4]
 8001a04:	2200      	movs	r2, #0
 8001a06:	f883 204d 	strb.w	r2, [r3, #77]	@ 0x4d
    d->new_accel = 0U;
 8001a0a:	687b      	ldr	r3, [r7, #4]
 8001a0c:	2200      	movs	r2, #0
 8001a0e:	f883 204c 	strb.w	r2, [r3, #76]	@ 0x4c

    uint16_t pay_len = shtp_recv();
 8001a12:	f7ff fba1 	bl	8001158 <shtp_recv>
 8001a16:	4603      	mov	r3, r0
 8001a18:	82bb      	strh	r3, [r7, #20]
    if (pay_len == 0U) return 0;
 8001a1a:	8abb      	ldrh	r3, [r7, #20]
 8001a1c:	2b00      	cmp	r3, #0
 8001a1e:	d101      	bne.n	8001a24 <bno_update+0x3c>
 8001a20:	2300      	movs	r3, #0
 8001a22:	e062      	b.n	8001aea <bno_update+0x102>
    if (g_bm_rx[2] != 3U) return 0;
 8001a24:	4b33      	ldr	r3, [pc, #204]	@ (8001af4 <bno_update+0x10c>)
 8001a26:	789b      	ldrb	r3, [r3, #2]
 8001a28:	2b03      	cmp	r3, #3
 8001a2a:	d001      	beq.n	8001a30 <bno_update+0x48>
 8001a2c:	2300      	movs	r3, #0
 8001a2e:	e05c      	b.n	8001aea <bno_update+0x102>

    d->pkt_len = (pay_len <= (uint16_t)sizeof(d->pkt)) ? pay_len : (uint16_t)sizeof(d->pkt);
 8001a30:	8abb      	ldrh	r3, [r7, #20]
 8001a32:	2b80      	cmp	r3, #128	@ 0x80
 8001a34:	bf28      	it	cs
 8001a36:	2380      	movcs	r3, #128	@ 0x80
 8001a38:	b29a      	uxth	r2, r3
 8001a3a:	687b      	ldr	r3, [r7, #4]
 8001a3c:	f8a3 20d0 	strh.w	r2, [r3, #208]	@ 0xd0
    memcpy(d->pkt, &g_bm_rx[4], d->pkt_len);
 8001a40:	687b      	ldr	r3, [r7, #4]
 8001a42:	f103 004f 	add.w	r0, r3, #79	@ 0x4f
 8001a46:	687b      	ldr	r3, [r7, #4]
 8001a48:	f8b3 30d0 	ldrh.w	r3, [r3, #208]	@ 0xd0
 8001a4c:	461a      	mov	r2, r3
 8001a4e:	492a      	ldr	r1, [pc, #168]	@ (8001af8 <bno_update+0x110>)
 8001a50:	f004 ff6b 	bl	800692a <memcpy>

    const uint8_t *p = &g_bm_rx[4];
 8001a54:	4b28      	ldr	r3, [pc, #160]	@ (8001af8 <bno_update+0x110>)
 8001a56:	613b      	str	r3, [r7, #16]
    uint16_t off = 0U;
 8001a58:	2300      	movs	r3, #0
 8001a5a:	82fb      	strh	r3, [r7, #22]
    while (off < pay_len) {
 8001a5c:	e02f      	b.n	8001abe <bno_update+0xd6>
        uint8_t rid = p[off];
 8001a5e:	8afb      	ldrh	r3, [r7, #22]
 8001a60:	693a      	ldr	r2, [r7, #16]
 8001a62:	4413      	add	r3, r2
 8001a64:	781b      	ldrb	r3, [r3, #0]
 8001a66:	73fb      	strb	r3, [r7, #15]
        if (rid == 0xFBU || rid == 0xFAU) {
 8001a68:	7bfb      	ldrb	r3, [r7, #15]
 8001a6a:	2bfb      	cmp	r3, #251	@ 0xfb
 8001a6c:	d002      	beq.n	8001a74 <bno_update+0x8c>
 8001a6e:	7bfb      	ldrb	r3, [r7, #15]
 8001a70:	2bfa      	cmp	r3, #250	@ 0xfa
 8001a72:	d103      	bne.n	8001a7c <bno_update+0x94>
            off += 5U;
 8001a74:	8afb      	ldrh	r3, [r7, #22]
 8001a76:	3305      	adds	r3, #5
 8001a78:	82fb      	strh	r3, [r7, #22]
            continue;
 8001a7a:	e020      	b.n	8001abe <bno_update+0xd6>
        }

        uint8_t rlen = bno_report_len(rid);
 8001a7c:	7bfb      	ldrb	r3, [r7, #15]
 8001a7e:	4618      	mov	r0, r3
 8001a80:	f7ff fba6 	bl	80011d0 <bno_report_len>
 8001a84:	4603      	mov	r3, r0
 8001a86:	73bb      	strb	r3, [r7, #14]
        if (rlen == 0U || (uint16_t)(off + rlen) > pay_len) break;
 8001a88:	7bbb      	ldrb	r3, [r7, #14]
 8001a8a:	2b00      	cmp	r3, #0
 8001a8c:	d01b      	beq.n	8001ac6 <bno_update+0xde>
 8001a8e:	7bbb      	ldrb	r3, [r7, #14]
 8001a90:	b29a      	uxth	r2, r3
 8001a92:	8afb      	ldrh	r3, [r7, #22]
 8001a94:	4413      	add	r3, r2
 8001a96:	b29b      	uxth	r3, r3
 8001a98:	8aba      	ldrh	r2, [r7, #20]
 8001a9a:	429a      	cmp	r2, r3
 8001a9c:	d313      	bcc.n	8001ac6 <bno_update+0xde>

        bno_parse_report(&p[off], (uint16_t)(pay_len - off), d);
 8001a9e:	8afb      	ldrh	r3, [r7, #22]
 8001aa0:	693a      	ldr	r2, [r7, #16]
 8001aa2:	18d0      	adds	r0, r2, r3
 8001aa4:	8aba      	ldrh	r2, [r7, #20]
 8001aa6:	8afb      	ldrh	r3, [r7, #22]
 8001aa8:	1ad3      	subs	r3, r2, r3
 8001aaa:	b29b      	uxth	r3, r3
 8001aac:	687a      	ldr	r2, [r7, #4]
 8001aae:	4619      	mov	r1, r3
 8001ab0:	f7ff fd04 	bl	80014bc <bno_parse_report>
        off += rlen;
 8001ab4:	7bbb      	ldrb	r3, [r7, #14]
 8001ab6:	b29a      	uxth	r2, r3
 8001ab8:	8afb      	ldrh	r3, [r7, #22]
 8001aba:	4413      	add	r3, r2
 8001abc:	82fb      	strh	r3, [r7, #22]
    while (off < pay_len) {
 8001abe:	8afa      	ldrh	r2, [r7, #22]
 8001ac0:	8abb      	ldrh	r3, [r7, #20]
 8001ac2:	429a      	cmp	r2, r3
 8001ac4:	d3cb      	bcc.n	8001a5e <bno_update+0x76>
    }

    return (d->new_accel || d->new_gyro || d->new_rotvec) ? 1 : 0;
 8001ac6:	687b      	ldr	r3, [r7, #4]
 8001ac8:	f893 304c 	ldrb.w	r3, [r3, #76]	@ 0x4c
 8001acc:	2b00      	cmp	r3, #0
 8001ace:	d109      	bne.n	8001ae4 <bno_update+0xfc>
 8001ad0:	687b      	ldr	r3, [r7, #4]
 8001ad2:	f893 304d 	ldrb.w	r3, [r3, #77]	@ 0x4d
 8001ad6:	2b00      	cmp	r3, #0
 8001ad8:	d104      	bne.n	8001ae4 <bno_update+0xfc>
 8001ada:	687b      	ldr	r3, [r7, #4]
 8001adc:	f893 304e 	ldrb.w	r3, [r3, #78]	@ 0x4e
 8001ae0:	2b00      	cmp	r3, #0
 8001ae2:	d001      	beq.n	8001ae8 <bno_update+0x100>
 8001ae4:	2301      	movs	r3, #1
 8001ae6:	e000      	b.n	8001aea <bno_update+0x102>
 8001ae8:	2300      	movs	r3, #0
}
 8001aea:	4618      	mov	r0, r3
 8001aec:	3718      	adds	r7, #24
 8001aee:	46bd      	mov	sp, r7
 8001af0:	bd80      	pop	{r7, pc}
 8001af2:	bf00      	nop
 8001af4:	2000021c 	.word	0x2000021c
 8001af8:	20000220 	.word	0x20000220

08001afc <bno_estimator_config>:

void bno_estimator_config(const BNO08x_EstimatorConfig *cfg) {
 8001afc:	b480      	push	{r7}
 8001afe:	b083      	sub	sp, #12
 8001b00:	af00      	add	r7, sp, #0
 8001b02:	6078      	str	r0, [r7, #4]
    if (!cfg) return;
 8001b04:	687b      	ldr	r3, [r7, #4]
 8001b06:	2b00      	cmp	r3, #0
 8001b08:	d037      	beq.n	8001b7a <bno_estimator_config+0x7e>
    g_est_cfg = *cfg;
 8001b0a:	4b1f      	ldr	r3, [pc, #124]	@ (8001b88 <bno_estimator_config+0x8c>)
 8001b0c:	687a      	ldr	r2, [r7, #4]
 8001b0e:	ca07      	ldmia	r2, {r0, r1, r2}
 8001b10:	e883 0007 	stmia.w	r3, {r0, r1, r2}
    if (g_est_cfg.yaw_sign == 0.0f) g_est_cfg.yaw_sign = 1.0f;
 8001b14:	4b1c      	ldr	r3, [pc, #112]	@ (8001b88 <bno_estimator_config+0x8c>)
 8001b16:	edd3 7a00 	vldr	s15, [r3]
 8001b1a:	eef5 7a40 	vcmp.f32	s15, #0.0
 8001b1e:	eef1 fa10 	vmrs	APSR_nzcv, fpscr
 8001b22:	d103      	bne.n	8001b2c <bno_estimator_config+0x30>
 8001b24:	4b18      	ldr	r3, [pc, #96]	@ (8001b88 <bno_estimator_config+0x8c>)
 8001b26:	f04f 527e 	mov.w	r2, #1065353216	@ 0x3f800000
 8001b2a:	601a      	str	r2, [r3, #0]
    if (g_est_cfg.gyro_tau_s < 0.0f) g_est_cfg.gyro_tau_s = 0.0f;
 8001b2c:	4b16      	ldr	r3, [pc, #88]	@ (8001b88 <bno_estimator_config+0x8c>)
 8001b2e:	edd3 7a01 	vldr	s15, [r3, #4]
 8001b32:	eef5 7ac0 	vcmpe.f32	s15, #0.0
 8001b36:	eef1 fa10 	vmrs	APSR_nzcv, fpscr
 8001b3a:	d503      	bpl.n	8001b44 <bno_estimator_config+0x48>
 8001b3c:	4b12      	ldr	r3, [pc, #72]	@ (8001b88 <bno_estimator_config+0x8c>)
 8001b3e:	f04f 0200 	mov.w	r2, #0
 8001b42:	605a      	str	r2, [r3, #4]
    if (g_est_cfg.correction_gain < 0.0f) g_est_cfg.correction_gain = 0.0f;
 8001b44:	4b10      	ldr	r3, [pc, #64]	@ (8001b88 <bno_estimator_config+0x8c>)
 8001b46:	edd3 7a02 	vldr	s15, [r3, #8]
 8001b4a:	eef5 7ac0 	vcmpe.f32	s15, #0.0
 8001b4e:	eef1 fa10 	vmrs	APSR_nzcv, fpscr
 8001b52:	d503      	bpl.n	8001b5c <bno_estimator_config+0x60>
 8001b54:	4b0c      	ldr	r3, [pc, #48]	@ (8001b88 <bno_estimator_config+0x8c>)
 8001b56:	f04f 0200 	mov.w	r2, #0
 8001b5a:	609a      	str	r2, [r3, #8]
    if (g_est_cfg.correction_gain > 1.0f) g_est_cfg.correction_gain = 1.0f;
 8001b5c:	4b0a      	ldr	r3, [pc, #40]	@ (8001b88 <bno_estimator_config+0x8c>)
 8001b5e:	edd3 7a02 	vldr	s15, [r3, #8]
 8001b62:	eeb7 7a00 	vmov.f32	s14, #112	@ 0x3f800000  1.0
 8001b66:	eef4 7ac7 	vcmpe.f32	s15, s14
 8001b6a:	eef1 fa10 	vmrs	APSR_nzcv, fpscr
 8001b6e:	dd05      	ble.n	8001b7c <bno_estimator_config+0x80>
 8001b70:	4b05      	ldr	r3, [pc, #20]	@ (8001b88 <bno_estimator_config+0x8c>)
 8001b72:	f04f 527e 	mov.w	r2, #1065353216	@ 0x3f800000
 8001b76:	609a      	str	r2, [r3, #8]
 8001b78:	e000      	b.n	8001b7c <bno_estimator_config+0x80>
    if (!cfg) return;
 8001b7a:	bf00      	nop
}
 8001b7c:	370c      	adds	r7, #12
 8001b7e:	46bd      	mov	sp, r7
 8001b80:	f85d 7b04 	ldr.w	r7, [sp], #4
 8001b84:	4770      	bx	lr
 8001b86:	bf00      	nop
 8001b88:	20000004 	.word	0x20000004

08001b8c <bno_zero_yaw>:

void bno_zero_yaw(BNO08x_Estimator *est) {
 8001b8c:	b480      	push	{r7}
 8001b8e:	b083      	sub	sp, #12
 8001b90:	af00      	add	r7, sp, #0
 8001b92:	6078      	str	r0, [r7, #4]
    g_yaw_offset_rad = 0.0f;
 8001b94:	4b0d      	ldr	r3, [pc, #52]	@ (8001bcc <bno_zero_yaw+0x40>)
 8001b96:	f04f 0200 	mov.w	r2, #0
 8001b9a:	601a      	str	r2, [r3, #0]
    g_zero_pending = 1U;
 8001b9c:	4b0c      	ldr	r3, [pc, #48]	@ (8001bd0 <bno_zero_yaw+0x44>)
 8001b9e:	2201      	movs	r2, #1
 8001ba0:	701a      	strb	r2, [r3, #0]
    if (est) {
 8001ba2:	687b      	ldr	r3, [r7, #4]
 8001ba4:	2b00      	cmp	r3, #0
 8001ba6:	d00b      	beq.n	8001bc0 <bno_zero_yaw+0x34>
        est->yaw_bno_rad = 0.0f;
 8001ba8:	687b      	ldr	r3, [r7, #4]
 8001baa:	f04f 0200 	mov.w	r2, #0
 8001bae:	605a      	str	r2, [r3, #4]
        est->yaw_est_rad = 0.0f;
 8001bb0:	687b      	ldr	r3, [r7, #4]
 8001bb2:	f04f 0200 	mov.w	r2, #0
 8001bb6:	609a      	str	r2, [r3, #8]
        est->yaw_zeroed = 0U;
 8001bb8:	687b      	ldr	r3, [r7, #4]
 8001bba:	2200      	movs	r2, #0
 8001bbc:	f883 202e 	strb.w	r2, [r3, #46]	@ 0x2e
    }
}
 8001bc0:	bf00      	nop
 8001bc2:	370c      	adds	r7, #12
 8001bc4:	46bd      	mov	sp, r7
 8001bc6:	f85d 7b04 	ldr.w	r7, [sp], #4
 8001bca:	4770      	bx	lr
 8001bcc:	200002a0 	.word	0x200002a0
 8001bd0:	20000010 	.word	0x20000010

08001bd4 <bno_estimator_update>:

void bno_estimator_update(const BNO08x_Data *d, float dt_s, BNO08x_Estimator *est) {
 8001bd4:	b580      	push	{r7, lr}
 8001bd6:	ed2d 8b02 	vpush	{d8}
 8001bda:	b086      	sub	sp, #24
 8001bdc:	af00      	add	r7, sp, #0
 8001bde:	60f8      	str	r0, [r7, #12]
 8001be0:	ed87 0a02 	vstr	s0, [r7, #8]
 8001be4:	6079      	str	r1, [r7, #4]
    if (!d || !est) return;
 8001be6:	68fb      	ldr	r3, [r7, #12]
 8001be8:	2b00      	cmp	r3, #0
 8001bea:	f000 8124 	beq.w	8001e36 <bno_estimator_update+0x262>
 8001bee:	687b      	ldr	r3, [r7, #4]
 8001bf0:	2b00      	cmp	r3, #0
 8001bf2:	f000 8120 	beq.w	8001e36 <bno_estimator_update+0x262>
    if (dt_s <= 0.0f || dt_s > 0.5f) dt_s = 0.01f;
 8001bf6:	edd7 7a02 	vldr	s15, [r7, #8]
 8001bfa:	eef5 7ac0 	vcmpe.f32	s15, #0.0
 8001bfe:	eef1 fa10 	vmrs	APSR_nzcv, fpscr
 8001c02:	d908      	bls.n	8001c16 <bno_estimator_update+0x42>
 8001c04:	edd7 7a02 	vldr	s15, [r7, #8]
 8001c08:	eeb6 7a00 	vmov.f32	s14, #96	@ 0x3f000000  0.5
 8001c0c:	eef4 7ac7 	vcmpe.f32	s15, s14
 8001c10:	eef1 fa10 	vmrs	APSR_nzcv, fpscr
 8001c14:	dd01      	ble.n	8001c1a <bno_estimator_update+0x46>
 8001c16:	4b8c      	ldr	r3, [pc, #560]	@ (8001e48 <bno_estimator_update+0x274>)
 8001c18:	60bb      	str	r3, [r7, #8]

    if (d->new_rotvec) {
 8001c1a:	68fb      	ldr	r3, [r7, #12]
 8001c1c:	f893 304e 	ldrb.w	r3, [r3, #78]	@ 0x4e
 8001c20:	2b00      	cmp	r3, #0
 8001c22:	d056      	beq.n	8001cd2 <bno_estimator_update+0xfe>
        est->yaw_raw_rad = g_est_cfg.yaw_sign * (d->yaw * PI / 180.0f);
 8001c24:	4b89      	ldr	r3, [pc, #548]	@ (8001e4c <bno_estimator_update+0x278>)
 8001c26:	ed93 7a00 	vldr	s14, [r3]
 8001c2a:	68fb      	ldr	r3, [r7, #12]
 8001c2c:	edd3 7a0d 	vldr	s15, [r3, #52]	@ 0x34
 8001c30:	eddf 6a87 	vldr	s13, [pc, #540]	@ 8001e50 <bno_estimator_update+0x27c>
 8001c34:	ee67 6aa6 	vmul.f32	s13, s15, s13
 8001c38:	ed9f 6a86 	vldr	s12, [pc, #536]	@ 8001e54 <bno_estimator_update+0x280>
 8001c3c:	eec6 7a86 	vdiv.f32	s15, s13, s12
 8001c40:	ee67 7a27 	vmul.f32	s15, s14, s15
 8001c44:	687b      	ldr	r3, [r7, #4]
 8001c46:	edc3 7a00 	vstr	s15, [r3]
        est->roll_rad = d->roll * PI / 180.0f;
 8001c4a:	68fb      	ldr	r3, [r7, #12]
 8001c4c:	edd3 7a0b 	vldr	s15, [r3, #44]	@ 0x2c
 8001c50:	ed9f 7a7f 	vldr	s14, [pc, #508]	@ 8001e50 <bno_estimator_update+0x27c>
 8001c54:	ee27 7a87 	vmul.f32	s14, s15, s14
 8001c58:	eddf 6a7e 	vldr	s13, [pc, #504]	@ 8001e54 <bno_estimator_update+0x280>
 8001c5c:	eec7 7a26 	vdiv.f32	s15, s14, s13
 8001c60:	687b      	ldr	r3, [r7, #4]
 8001c62:	edc3 7a09 	vstr	s15, [r3, #36]	@ 0x24
        est->pitch_rad = d->pitch * PI / 180.0f;
 8001c66:	68fb      	ldr	r3, [r7, #12]
 8001c68:	edd3 7a0c 	vldr	s15, [r3, #48]	@ 0x30
 8001c6c:	ed9f 7a78 	vldr	s14, [pc, #480]	@ 8001e50 <bno_estimator_update+0x27c>
 8001c70:	ee27 7a87 	vmul.f32	s14, s15, s14
 8001c74:	eddf 6a77 	vldr	s13, [pc, #476]	@ 8001e54 <bno_estimator_update+0x280>
 8001c78:	eec7 7a26 	vdiv.f32	s15, s14, s13
 8001c7c:	687b      	ldr	r3, [r7, #4]
 8001c7e:	edc3 7a0a 	vstr	s15, [r3, #40]	@ 0x28
        est->has_yaw = 1U;
 8001c82:	687b      	ldr	r3, [r7, #4]
 8001c84:	2201      	movs	r2, #1
 8001c86:	f883 202c 	strb.w	r2, [r3, #44]	@ 0x2c
        if (g_zero_pending) {
 8001c8a:	4b73      	ldr	r3, [pc, #460]	@ (8001e58 <bno_estimator_update+0x284>)
 8001c8c:	781b      	ldrb	r3, [r3, #0]
 8001c8e:	2b00      	cmp	r3, #0
 8001c90:	d00e      	beq.n	8001cb0 <bno_estimator_update+0xdc>
            g_yaw_offset_rad = est->yaw_raw_rad;
 8001c92:	687b      	ldr	r3, [r7, #4]
 8001c94:	681b      	ldr	r3, [r3, #0]
 8001c96:	4a71      	ldr	r2, [pc, #452]	@ (8001e5c <bno_estimator_update+0x288>)
 8001c98:	6013      	str	r3, [r2, #0]
            est->yaw_est_rad = 0.0f;
 8001c9a:	687b      	ldr	r3, [r7, #4]
 8001c9c:	f04f 0200 	mov.w	r2, #0
 8001ca0:	609a      	str	r2, [r3, #8]
            est->yaw_zeroed = 1U;
 8001ca2:	687b      	ldr	r3, [r7, #4]
 8001ca4:	2201      	movs	r2, #1
 8001ca6:	f883 202e 	strb.w	r2, [r3, #46]	@ 0x2e
            g_zero_pending = 0U;
 8001caa:	4b6b      	ldr	r3, [pc, #428]	@ (8001e58 <bno_estimator_update+0x284>)
 8001cac:	2200      	movs	r2, #0
 8001cae:	701a      	strb	r2, [r3, #0]
        }
        est->yaw_bno_rad = bno_wrap_rad(est->yaw_raw_rad - g_yaw_offset_rad);
 8001cb0:	687b      	ldr	r3, [r7, #4]
 8001cb2:	ed93 7a00 	vldr	s14, [r3]
 8001cb6:	4b69      	ldr	r3, [pc, #420]	@ (8001e5c <bno_estimator_update+0x288>)
 8001cb8:	edd3 7a00 	vldr	s15, [r3]
 8001cbc:	ee77 7a67 	vsub.f32	s15, s14, s15
 8001cc0:	eeb0 0a67 	vmov.f32	s0, s15
 8001cc4:	f7ff fab0 	bl	8001228 <bno_wrap_rad>
 8001cc8:	eef0 7a40 	vmov.f32	s15, s0
 8001ccc:	687b      	ldr	r3, [r7, #4]
 8001cce:	edc3 7a01 	vstr	s15, [r3, #4]
    }

    if (d->new_gyro) {
 8001cd2:	68fb      	ldr	r3, [r7, #12]
 8001cd4:	f893 304d 	ldrb.w	r3, [r3, #77]	@ 0x4d
 8001cd8:	2b00      	cmp	r3, #0
 8001cda:	d016      	beq.n	8001d0a <bno_estimator_update+0x136>
        est->gyro_x_raw_rad_s = d->gx;
 8001cdc:	68fb      	ldr	r3, [r7, #12]
 8001cde:	68da      	ldr	r2, [r3, #12]
 8001ce0:	687b      	ldr	r3, [r7, #4]
 8001ce2:	60da      	str	r2, [r3, #12]
        est->gyro_y_raw_rad_s = d->gy;
 8001ce4:	68fb      	ldr	r3, [r7, #12]
 8001ce6:	691a      	ldr	r2, [r3, #16]
 8001ce8:	687b      	ldr	r3, [r7, #4]
 8001cea:	611a      	str	r2, [r3, #16]
        est->gyro_z_raw_rad_s = g_est_cfg.yaw_sign * d->gz;
 8001cec:	4b57      	ldr	r3, [pc, #348]	@ (8001e4c <bno_estimator_update+0x278>)
 8001cee:	ed93 7a00 	vldr	s14, [r3]
 8001cf2:	68fb      	ldr	r3, [r7, #12]
 8001cf4:	edd3 7a05 	vldr	s15, [r3, #20]
 8001cf8:	ee67 7a27 	vmul.f32	s15, s14, s15
 8001cfc:	687b      	ldr	r3, [r7, #4]
 8001cfe:	edc3 7a05 	vstr	s15, [r3, #20]
        est->has_gyro = 1U;
 8001d02:	687b      	ldr	r3, [r7, #4]
 8001d04:	2201      	movs	r2, #1
 8001d06:	f883 202d 	strb.w	r2, [r3, #45]	@ 0x2d
    }

    if (!est->yaw_zeroed) return;
 8001d0a:	687b      	ldr	r3, [r7, #4]
 8001d0c:	f893 302e 	ldrb.w	r3, [r3, #46]	@ 0x2e
 8001d10:	2b00      	cmp	r3, #0
 8001d12:	f000 8092 	beq.w	8001e3a <bno_estimator_update+0x266>

    float alpha = (g_est_cfg.gyro_tau_s <= 0.0f) ? 1.0f : (dt_s / (g_est_cfg.gyro_tau_s + dt_s));
 8001d16:	4b4d      	ldr	r3, [pc, #308]	@ (8001e4c <bno_estimator_update+0x278>)
 8001d18:	edd3 7a01 	vldr	s15, [r3, #4]
 8001d1c:	eef5 7ac0 	vcmpe.f32	s15, #0.0
 8001d20:	eef1 fa10 	vmrs	APSR_nzcv, fpscr
 8001d24:	d802      	bhi.n	8001d2c <bno_estimator_update+0x158>
 8001d26:	eef7 7a00 	vmov.f32	s15, #112	@ 0x3f800000  1.0
 8001d2a:	e00a      	b.n	8001d42 <bno_estimator_update+0x16e>
 8001d2c:	4b47      	ldr	r3, [pc, #284]	@ (8001e4c <bno_estimator_update+0x278>)
 8001d2e:	ed93 7a01 	vldr	s14, [r3, #4]
 8001d32:	edd7 7a02 	vldr	s15, [r7, #8]
 8001d36:	ee37 7a27 	vadd.f32	s14, s14, s15
 8001d3a:	edd7 6a02 	vldr	s13, [r7, #8]
 8001d3e:	eec6 7a87 	vdiv.f32	s15, s13, s14
 8001d42:	edc7 7a05 	vstr	s15, [r7, #20]
    est->gyro_x_filt_rad_s += alpha * (est->gyro_x_raw_rad_s - est->gyro_x_filt_rad_s);
 8001d46:	687b      	ldr	r3, [r7, #4]
 8001d48:	ed93 7a06 	vldr	s14, [r3, #24]
 8001d4c:	687b      	ldr	r3, [r7, #4]
 8001d4e:	edd3 6a03 	vldr	s13, [r3, #12]
 8001d52:	687b      	ldr	r3, [r7, #4]
 8001d54:	edd3 7a06 	vldr	s15, [r3, #24]
 8001d58:	ee76 6ae7 	vsub.f32	s13, s13, s15
 8001d5c:	edd7 7a05 	vldr	s15, [r7, #20]
 8001d60:	ee66 7aa7 	vmul.f32	s15, s13, s15
 8001d64:	ee77 7a27 	vadd.f32	s15, s14, s15
 8001d68:	687b      	ldr	r3, [r7, #4]
 8001d6a:	edc3 7a06 	vstr	s15, [r3, #24]
    est->gyro_y_filt_rad_s += alpha * (est->gyro_y_raw_rad_s - est->gyro_y_filt_rad_s);
 8001d6e:	687b      	ldr	r3, [r7, #4]
 8001d70:	ed93 7a07 	vldr	s14, [r3, #28]
 8001d74:	687b      	ldr	r3, [r7, #4]
 8001d76:	edd3 6a04 	vldr	s13, [r3, #16]
 8001d7a:	687b      	ldr	r3, [r7, #4]
 8001d7c:	edd3 7a07 	vldr	s15, [r3, #28]
 8001d80:	ee76 6ae7 	vsub.f32	s13, s13, s15
 8001d84:	edd7 7a05 	vldr	s15, [r7, #20]
 8001d88:	ee66 7aa7 	vmul.f32	s15, s13, s15
 8001d8c:	ee77 7a27 	vadd.f32	s15, s14, s15
 8001d90:	687b      	ldr	r3, [r7, #4]
 8001d92:	edc3 7a07 	vstr	s15, [r3, #28]
    est->gyro_z_filt_rad_s += alpha * (est->gyro_z_raw_rad_s - est->gyro_z_filt_rad_s);
 8001d96:	687b      	ldr	r3, [r7, #4]
 8001d98:	ed93 7a08 	vldr	s14, [r3, #32]
 8001d9c:	687b      	ldr	r3, [r7, #4]
 8001d9e:	edd3 6a05 	vldr	s13, [r3, #20]
 8001da2:	687b      	ldr	r3, [r7, #4]
 8001da4:	edd3 7a08 	vldr	s15, [r3, #32]
 8001da8:	ee76 6ae7 	vsub.f32	s13, s13, s15
 8001dac:	edd7 7a05 	vldr	s15, [r7, #20]
 8001db0:	ee66 7aa7 	vmul.f32	s15, s13, s15
 8001db4:	ee77 7a27 	vadd.f32	s15, s14, s15
 8001db8:	687b      	ldr	r3, [r7, #4]
 8001dba:	edc3 7a08 	vstr	s15, [r3, #32]
    est->yaw_est_rad = bno_wrap_rad(est->yaw_est_rad + est->gyro_z_filt_rad_s * dt_s);
 8001dbe:	687b      	ldr	r3, [r7, #4]
 8001dc0:	ed93 7a02 	vldr	s14, [r3, #8]
 8001dc4:	687b      	ldr	r3, [r7, #4]
 8001dc6:	edd3 6a08 	vldr	s13, [r3, #32]
 8001dca:	edd7 7a02 	vldr	s15, [r7, #8]
 8001dce:	ee66 7aa7 	vmul.f32	s15, s13, s15
 8001dd2:	ee77 7a27 	vadd.f32	s15, s14, s15
 8001dd6:	eeb0 0a67 	vmov.f32	s0, s15
 8001dda:	f7ff fa25 	bl	8001228 <bno_wrap_rad>
 8001dde:	eef0 7a40 	vmov.f32	s15, s0
 8001de2:	687b      	ldr	r3, [r7, #4]
 8001de4:	edc3 7a02 	vstr	s15, [r3, #8]
    if (est->has_yaw) {
 8001de8:	687b      	ldr	r3, [r7, #4]
 8001dea:	f893 302c 	ldrb.w	r3, [r3, #44]	@ 0x2c
 8001dee:	2b00      	cmp	r3, #0
 8001df0:	d024      	beq.n	8001e3c <bno_estimator_update+0x268>
        est->yaw_est_rad = bno_wrap_rad(est->yaw_est_rad +
 8001df2:	687b      	ldr	r3, [r7, #4]
 8001df4:	ed93 8a02 	vldr	s16, [r3, #8]
            g_est_cfg.correction_gain * bno_wrap_rad(est->yaw_bno_rad - est->yaw_est_rad));
 8001df8:	4b14      	ldr	r3, [pc, #80]	@ (8001e4c <bno_estimator_update+0x278>)
 8001dfa:	edd3 8a02 	vldr	s17, [r3, #8]
 8001dfe:	687b      	ldr	r3, [r7, #4]
 8001e00:	ed93 7a01 	vldr	s14, [r3, #4]
 8001e04:	687b      	ldr	r3, [r7, #4]
 8001e06:	edd3 7a02 	vldr	s15, [r3, #8]
 8001e0a:	ee77 7a67 	vsub.f32	s15, s14, s15
 8001e0e:	eeb0 0a67 	vmov.f32	s0, s15
 8001e12:	f7ff fa09 	bl	8001228 <bno_wrap_rad>
 8001e16:	eef0 7a40 	vmov.f32	s15, s0
 8001e1a:	ee68 7aa7 	vmul.f32	s15, s17, s15
        est->yaw_est_rad = bno_wrap_rad(est->yaw_est_rad +
 8001e1e:	ee78 7a27 	vadd.f32	s15, s16, s15
 8001e22:	eeb0 0a67 	vmov.f32	s0, s15
 8001e26:	f7ff f9ff 	bl	8001228 <bno_wrap_rad>
 8001e2a:	eef0 7a40 	vmov.f32	s15, s0
 8001e2e:	687b      	ldr	r3, [r7, #4]
 8001e30:	edc3 7a02 	vstr	s15, [r3, #8]
 8001e34:	e002      	b.n	8001e3c <bno_estimator_update+0x268>
    if (!d || !est) return;
 8001e36:	bf00      	nop
 8001e38:	e000      	b.n	8001e3c <bno_estimator_update+0x268>
    if (!est->yaw_zeroed) return;
 8001e3a:	bf00      	nop
    }
}
 8001e3c:	3718      	adds	r7, #24
 8001e3e:	46bd      	mov	sp, r7
 8001e40:	ecbd 8b02 	vpop	{d8}
 8001e44:	bd80      	pop	{r7, pc}
 8001e46:	bf00      	nop
 8001e48:	3c23d70a 	.word	0x3c23d70a
 8001e4c:	20000004 	.word	0x20000004
 8001e50:	40490fdb 	.word	0x40490fdb
 8001e54:	43340000 	.word	0x43340000
 8001e58:	20000010 	.word	0x20000010
 8001e5c:	200002a0 	.word	0x200002a0

08001e60 <micros>:

BNO08x_Data imu;
BNO08x_Estimator est;

// ==================== TIỆN ÍCH CƠ BẢN ====================
static uint32_t micros(void) { return DWT_CYCCNT / 16U; }
 8001e60:	b480      	push	{r7}
 8001e62:	af00      	add	r7, sp, #0
 8001e64:	4b03      	ldr	r3, [pc, #12]	@ (8001e74 <micros+0x14>)
 8001e66:	681b      	ldr	r3, [r3, #0]
 8001e68:	091b      	lsrs	r3, r3, #4
 8001e6a:	4618      	mov	r0, r3
 8001e6c:	46bd      	mov	sp, r7
 8001e6e:	f85d 7b04 	ldr.w	r7, [sp], #4
 8001e72:	4770      	bx	lr
 8001e74:	e0001004 	.word	0xe0001004

08001e78 <millis>:
static uint32_t millis(void) { return DWT_CYCCNT / 16000U; }
 8001e78:	b480      	push	{r7}
 8001e7a:	af00      	add	r7, sp, #0
 8001e7c:	4b05      	ldr	r3, [pc, #20]	@ (8001e94 <millis+0x1c>)
 8001e7e:	681b      	ldr	r3, [r3, #0]
 8001e80:	4a05      	ldr	r2, [pc, #20]	@ (8001e98 <millis+0x20>)
 8001e82:	fba2 2303 	umull	r2, r3, r2, r3
 8001e86:	0a9b      	lsrs	r3, r3, #10
 8001e88:	4618      	mov	r0, r3
 8001e8a:	46bd      	mov	sp, r7
 8001e8c:	f85d 7b04 	ldr.w	r7, [sp], #4
 8001e90:	4770      	bx	lr
 8001e92:	bf00      	nop
 8001e94:	e0001004 	.word	0xe0001004
 8001e98:	10624dd3 	.word	0x10624dd3

08001e9c <f2s>:

static char *f2s(float val, int dec, char *buf) {
 8001e9c:	b590      	push	{r4, r7, lr}
 8001e9e:	b089      	sub	sp, #36	@ 0x24
 8001ea0:	af02      	add	r7, sp, #8
 8001ea2:	ed87 0a03 	vstr	s0, [r7, #12]
 8001ea6:	60b8      	str	r0, [r7, #8]
 8001ea8:	6079      	str	r1, [r7, #4]
    char sign = (val < 0.0f) ? '-' : ' ';
 8001eaa:	edd7 7a03 	vldr	s15, [r7, #12]
 8001eae:	eef5 7ac0 	vcmpe.f32	s15, #0.0
 8001eb2:	eef1 fa10 	vmrs	APSR_nzcv, fpscr
 8001eb6:	d501      	bpl.n	8001ebc <f2s+0x20>
 8001eb8:	232d      	movs	r3, #45	@ 0x2d
 8001eba:	e000      	b.n	8001ebe <f2s+0x22>
 8001ebc:	2320      	movs	r3, #32
 8001ebe:	75fb      	strb	r3, [r7, #23]
    val = fabsf(val);
 8001ec0:	edd7 7a03 	vldr	s15, [r7, #12]
 8001ec4:	eef0 7ae7 	vabs.f32	s15, s15
 8001ec8:	edc7 7a03 	vstr	s15, [r7, #12]
    int i_part = (int)val;
 8001ecc:	edd7 7a03 	vldr	s15, [r7, #12]
 8001ed0:	eefd 7ae7 	vcvt.s32.f32	s15, s15
 8001ed4:	ee17 3a90 	vmov	r3, s15
 8001ed8:	613b      	str	r3, [r7, #16]
    if (dec == 1)      sprintf(buf, "%c%d.%d", sign, i_part, (int)(val * 10.0f) % 10);
 8001eda:	68bb      	ldr	r3, [r7, #8]
 8001edc:	2b01      	cmp	r3, #1
 8001ede:	d11d      	bne.n	8001f1c <f2s+0x80>
 8001ee0:	7df8      	ldrb	r0, [r7, #23]
 8001ee2:	edd7 7a03 	vldr	s15, [r7, #12]
 8001ee6:	eeb2 7a04 	vmov.f32	s14, #36	@ 0x41200000  10.0
 8001eea:	ee67 7a87 	vmul.f32	s15, s15, s14
 8001eee:	eefd 7ae7 	vcvt.s32.f32	s15, s15
 8001ef2:	ee17 1a90 	vmov	r1, s15
 8001ef6:	4b32      	ldr	r3, [pc, #200]	@ (8001fc0 <f2s+0x124>)
 8001ef8:	fb83 2301 	smull	r2, r3, r3, r1
 8001efc:	109a      	asrs	r2, r3, #2
 8001efe:	17cb      	asrs	r3, r1, #31
 8001f00:	1ad2      	subs	r2, r2, r3
 8001f02:	4613      	mov	r3, r2
 8001f04:	009b      	lsls	r3, r3, #2
 8001f06:	4413      	add	r3, r2
 8001f08:	005b      	lsls	r3, r3, #1
 8001f0a:	1aca      	subs	r2, r1, r3
 8001f0c:	9200      	str	r2, [sp, #0]
 8001f0e:	693b      	ldr	r3, [r7, #16]
 8001f10:	4602      	mov	r2, r0
 8001f12:	492c      	ldr	r1, [pc, #176]	@ (8001fc4 <f2s+0x128>)
 8001f14:	6878      	ldr	r0, [r7, #4]
 8001f16:	f004 fbfb 	bl	8006710 <siprintf>
 8001f1a:	e03c      	b.n	8001f96 <f2s+0xfa>
    else if (dec == 2) sprintf(buf, "%c%d.%02d", sign, i_part, (int)(val * 100.0f) % 100);
 8001f1c:	68bb      	ldr	r3, [r7, #8]
 8001f1e:	2b02      	cmp	r3, #2
 8001f20:	d11c      	bne.n	8001f5c <f2s+0xc0>
 8001f22:	7df8      	ldrb	r0, [r7, #23]
 8001f24:	edd7 7a03 	vldr	s15, [r7, #12]
 8001f28:	ed9f 7a27 	vldr	s14, [pc, #156]	@ 8001fc8 <f2s+0x12c>
 8001f2c:	ee67 7a87 	vmul.f32	s15, s15, s14
 8001f30:	eefd 7ae7 	vcvt.s32.f32	s15, s15
 8001f34:	ee17 2a90 	vmov	r2, s15
 8001f38:	4b24      	ldr	r3, [pc, #144]	@ (8001fcc <f2s+0x130>)
 8001f3a:	fb83 1302 	smull	r1, r3, r3, r2
 8001f3e:	1159      	asrs	r1, r3, #5
 8001f40:	17d3      	asrs	r3, r2, #31
 8001f42:	1acb      	subs	r3, r1, r3
 8001f44:	2164      	movs	r1, #100	@ 0x64
 8001f46:	fb01 f303 	mul.w	r3, r1, r3
 8001f4a:	1ad3      	subs	r3, r2, r3
 8001f4c:	9300      	str	r3, [sp, #0]
 8001f4e:	693b      	ldr	r3, [r7, #16]
 8001f50:	4602      	mov	r2, r0
 8001f52:	491f      	ldr	r1, [pc, #124]	@ (8001fd0 <f2s+0x134>)
 8001f54:	6878      	ldr	r0, [r7, #4]
 8001f56:	f004 fbdb 	bl	8006710 <siprintf>
 8001f5a:	e01c      	b.n	8001f96 <f2s+0xfa>
    else               sprintf(buf, "%c%d.%04d", sign, i_part, (int)(val * 10000.0f) % 10000);
 8001f5c:	7df8      	ldrb	r0, [r7, #23]
 8001f5e:	edd7 7a03 	vldr	s15, [r7, #12]
 8001f62:	ed9f 7a1c 	vldr	s14, [pc, #112]	@ 8001fd4 <f2s+0x138>
 8001f66:	ee67 7a87 	vmul.f32	s15, s15, s14
 8001f6a:	eefd 7ae7 	vcvt.s32.f32	s15, s15
 8001f6e:	ee17 2a90 	vmov	r2, s15
 8001f72:	4b19      	ldr	r3, [pc, #100]	@ (8001fd8 <f2s+0x13c>)
 8001f74:	fb83 1302 	smull	r1, r3, r3, r2
 8001f78:	1319      	asrs	r1, r3, #12
 8001f7a:	17d3      	asrs	r3, r2, #31
 8001f7c:	1acb      	subs	r3, r1, r3
 8001f7e:	f242 7110 	movw	r1, #10000	@ 0x2710
 8001f82:	fb01 f303 	mul.w	r3, r1, r3
 8001f86:	1ad3      	subs	r3, r2, r3
 8001f88:	9300      	str	r3, [sp, #0]
 8001f8a:	693b      	ldr	r3, [r7, #16]
 8001f8c:	4602      	mov	r2, r0
 8001f8e:	4913      	ldr	r1, [pc, #76]	@ (8001fdc <f2s+0x140>)
 8001f90:	6878      	ldr	r0, [r7, #4]
 8001f92:	f004 fbbd 	bl	8006710 <siprintf>
    if (buf[0] == ' ') memmove(buf, buf + 1, strlen(buf));
 8001f96:	687b      	ldr	r3, [r7, #4]
 8001f98:	781b      	ldrb	r3, [r3, #0]
 8001f9a:	2b20      	cmp	r3, #32
 8001f9c:	d10a      	bne.n	8001fb4 <f2s+0x118>
 8001f9e:	687b      	ldr	r3, [r7, #4]
 8001fa0:	1c5c      	adds	r4, r3, #1
 8001fa2:	6878      	ldr	r0, [r7, #4]
 8001fa4:	f7fe f934 	bl	8000210 <strlen>
 8001fa8:	4603      	mov	r3, r0
 8001faa:	461a      	mov	r2, r3
 8001fac:	4621      	mov	r1, r4
 8001fae:	6878      	ldr	r0, [r7, #4]
 8001fb0:	f004 fc14 	bl	80067dc <memmove>
    return buf;
 8001fb4:	687b      	ldr	r3, [r7, #4]
}
 8001fb6:	4618      	mov	r0, r3
 8001fb8:	371c      	adds	r7, #28
 8001fba:	46bd      	mov	sp, r7
 8001fbc:	bd90      	pop	{r4, r7, pc}
 8001fbe:	bf00      	nop
 8001fc0:	66666667 	.word	0x66666667
 8001fc4:	08008910 	.word	0x08008910
 8001fc8:	42c80000 	.word	0x42c80000
 8001fcc:	51eb851f 	.word	0x51eb851f
 8001fd0:	08008918 	.word	0x08008918
 8001fd4:	461c4000 	.word	0x461c4000
 8001fd8:	68db8bad 	.word	0x68db8bad
 8001fdc:	08008924 	.word	0x08008924

08001fe0 <serial_print>:

static void serial_print(const char *str) {
 8001fe0:	b480      	push	{r7}
 8001fe2:	b083      	sub	sp, #12
 8001fe4:	af00      	add	r7, sp, #0
 8001fe6:	6078      	str	r0, [r7, #4]
    while (*str) {
 8001fe8:	e00c      	b.n	8002004 <serial_print+0x24>
        while (!(USART2_SR & (1U << 7))) {}
 8001fea:	bf00      	nop
 8001fec:	4b0b      	ldr	r3, [pc, #44]	@ (800201c <serial_print+0x3c>)
 8001fee:	681b      	ldr	r3, [r3, #0]
 8001ff0:	f003 0380 	and.w	r3, r3, #128	@ 0x80
 8001ff4:	2b00      	cmp	r3, #0
 8001ff6:	d0f9      	beq.n	8001fec <serial_print+0xc>
        USART2_DR = (uint32_t)(uint8_t)(*str++);
 8001ff8:	687b      	ldr	r3, [r7, #4]
 8001ffa:	1c5a      	adds	r2, r3, #1
 8001ffc:	607a      	str	r2, [r7, #4]
 8001ffe:	781a      	ldrb	r2, [r3, #0]
 8002000:	4b07      	ldr	r3, [pc, #28]	@ (8002020 <serial_print+0x40>)
 8002002:	601a      	str	r2, [r3, #0]
    while (*str) {
 8002004:	687b      	ldr	r3, [r7, #4]
 8002006:	781b      	ldrb	r3, [r3, #0]
 8002008:	2b00      	cmp	r3, #0
 800200a:	d1ee      	bne.n	8001fea <serial_print+0xa>
    }
}
 800200c:	bf00      	nop
 800200e:	bf00      	nop
 8002010:	370c      	adds	r7, #12
 8002012:	46bd      	mov	sp, r7
 8002014:	f85d 7b04 	ldr.w	r7, [sp], #4
 8002018:	4770      	bx	lr
 800201a:	bf00      	nop
 800201c:	40004400 	.word	0x40004400
 8002020:	40004404 	.word	0x40004404

08002024 <serial_receive>:

static bool serial_receive(uint8_t *c) {
 8002024:	b480      	push	{r7}
 8002026:	b083      	sub	sp, #12
 8002028:	af00      	add	r7, sp, #0
 800202a:	6078      	str	r0, [r7, #4]
    if (USART2_SR & (1U << 5)) {
 800202c:	4b09      	ldr	r3, [pc, #36]	@ (8002054 <serial_receive+0x30>)
 800202e:	681b      	ldr	r3, [r3, #0]
 8002030:	f003 0320 	and.w	r3, r3, #32
 8002034:	2b00      	cmp	r3, #0
 8002036:	d006      	beq.n	8002046 <serial_receive+0x22>
        *c = (uint8_t)USART2_DR;
 8002038:	4b07      	ldr	r3, [pc, #28]	@ (8002058 <serial_receive+0x34>)
 800203a:	681b      	ldr	r3, [r3, #0]
 800203c:	b2da      	uxtb	r2, r3
 800203e:	687b      	ldr	r3, [r7, #4]
 8002040:	701a      	strb	r2, [r3, #0]
        return true;
 8002042:	2301      	movs	r3, #1
 8002044:	e000      	b.n	8002048 <serial_receive+0x24>
    }
    return false;
 8002046:	2300      	movs	r3, #0
}
 8002048:	4618      	mov	r0, r3
 800204a:	370c      	adds	r7, #12
 800204c:	46bd      	mov	sp, r7
 800204e:	f85d 7b04 	ldr.w	r7, [sp], #4
 8002052:	4770      	bx	lr
 8002054:	40004400 	.word	0x40004400
 8002058:	40004404 	.word	0x40004404

0800205c <wrapAngle>:

float wrapAngle(float a) {
 800205c:	b480      	push	{r7}
 800205e:	b083      	sub	sp, #12
 8002060:	af00      	add	r7, sp, #0
 8002062:	ed87 0a01 	vstr	s0, [r7, #4]
    while (a >  PI) a -= 2.0f * PI;
 8002066:	e007      	b.n	8002078 <wrapAngle+0x1c>
 8002068:	edd7 7a01 	vldr	s15, [r7, #4]
 800206c:	ed9f 7a15 	vldr	s14, [pc, #84]	@ 80020c4 <wrapAngle+0x68>
 8002070:	ee77 7ac7 	vsub.f32	s15, s15, s14
 8002074:	edc7 7a01 	vstr	s15, [r7, #4]
 8002078:	edd7 7a01 	vldr	s15, [r7, #4]
 800207c:	ed9f 7a12 	vldr	s14, [pc, #72]	@ 80020c8 <wrapAngle+0x6c>
 8002080:	eef4 7ac7 	vcmpe.f32	s15, s14
 8002084:	eef1 fa10 	vmrs	APSR_nzcv, fpscr
 8002088:	dcee      	bgt.n	8002068 <wrapAngle+0xc>
    while (a < -PI) a += 2.0f * PI;
 800208a:	e007      	b.n	800209c <wrapAngle+0x40>
 800208c:	edd7 7a01 	vldr	s15, [r7, #4]
 8002090:	ed9f 7a0c 	vldr	s14, [pc, #48]	@ 80020c4 <wrapAngle+0x68>
 8002094:	ee77 7a87 	vadd.f32	s15, s15, s14
 8002098:	edc7 7a01 	vstr	s15, [r7, #4]
 800209c:	edd7 7a01 	vldr	s15, [r7, #4]
 80020a0:	ed9f 7a0a 	vldr	s14, [pc, #40]	@ 80020cc <wrapAngle+0x70>
 80020a4:	eef4 7ac7 	vcmpe.f32	s15, s14
 80020a8:	eef1 fa10 	vmrs	APSR_nzcv, fpscr
 80020ac:	d4ee      	bmi.n	800208c <wrapAngle+0x30>
    return a;
 80020ae:	687b      	ldr	r3, [r7, #4]
 80020b0:	ee07 3a90 	vmov	s15, r3
}
 80020b4:	eeb0 0a67 	vmov.f32	s0, s15
 80020b8:	370c      	adds	r7, #12
 80020ba:	46bd      	mov	sp, r7
 80020bc:	f85d 7b04 	ldr.w	r7, [sp], #4
 80020c0:	4770      	bx	lr
 80020c2:	bf00      	nop
 80020c4:	40c90fdb 	.word	0x40c90fdb
 80020c8:	40490fdb 	.word	0x40490fdb
 80020cc:	c0490fdb 	.word	0xc0490fdb

080020d0 <signNonZero>:

float signNonZero(float value) {
 80020d0:	b480      	push	{r7}
 80020d2:	b083      	sub	sp, #12
 80020d4:	af00      	add	r7, sp, #0
 80020d6:	ed87 0a01 	vstr	s0, [r7, #4]
    if (value > 0.0f) return 1.0f;
 80020da:	edd7 7a01 	vldr	s15, [r7, #4]
 80020de:	eef5 7ac0 	vcmpe.f32	s15, #0.0
 80020e2:	eef1 fa10 	vmrs	APSR_nzcv, fpscr
 80020e6:	dd02      	ble.n	80020ee <signNonZero+0x1e>
 80020e8:	f04f 537e 	mov.w	r3, #1065353216	@ 0x3f800000
 80020ec:	e00a      	b.n	8002104 <signNonZero+0x34>
    if (value < 0.0f) return -1.0f;
 80020ee:	edd7 7a01 	vldr	s15, [r7, #4]
 80020f2:	eef5 7ac0 	vcmpe.f32	s15, #0.0
 80020f6:	eef1 fa10 	vmrs	APSR_nzcv, fpscr
 80020fa:	d501      	bpl.n	8002100 <signNonZero+0x30>
 80020fc:	4b06      	ldr	r3, [pc, #24]	@ (8002118 <signNonZero+0x48>)
 80020fe:	e001      	b.n	8002104 <signNonZero+0x34>
    return 0.0f;
 8002100:	f04f 0300 	mov.w	r3, #0
}
 8002104:	ee07 3a90 	vmov	s15, r3
 8002108:	eeb0 0a67 	vmov.f32	s0, s15
 800210c:	370c      	adds	r7, #12
 800210e:	46bd      	mov	sp, r7
 8002110:	f85d 7b04 	ldr.w	r7, [sp], #4
 8002114:	4770      	bx	lr
 8002116:	bf00      	nop
 8002118:	bf800000 	.word	0xbf800000

0800211c <clampAbs>:

float clampAbs(float value, float limit) {
 800211c:	b480      	push	{r7}
 800211e:	b083      	sub	sp, #12
 8002120:	af00      	add	r7, sp, #0
 8002122:	ed87 0a01 	vstr	s0, [r7, #4]
 8002126:	edc7 0a00 	vstr	s1, [r7]
    if (value > limit) return limit;
 800212a:	ed97 7a01 	vldr	s14, [r7, #4]
 800212e:	edd7 7a00 	vldr	s15, [r7]
 8002132:	eeb4 7ae7 	vcmpe.f32	s14, s15
 8002136:	eef1 fa10 	vmrs	APSR_nzcv, fpscr
 800213a:	dd02      	ble.n	8002142 <clampAbs+0x26>
 800213c:	edd7 7a00 	vldr	s15, [r7]
 8002140:	e011      	b.n	8002166 <clampAbs+0x4a>
    if (value < -limit) return -limit;
 8002142:	edd7 7a00 	vldr	s15, [r7]
 8002146:	eef1 7a67 	vneg.f32	s15, s15
 800214a:	ed97 7a01 	vldr	s14, [r7, #4]
 800214e:	eeb4 7ae7 	vcmpe.f32	s14, s15
 8002152:	eef1 fa10 	vmrs	APSR_nzcv, fpscr
 8002156:	d504      	bpl.n	8002162 <clampAbs+0x46>
 8002158:	edd7 7a00 	vldr	s15, [r7]
 800215c:	eef1 7a67 	vneg.f32	s15, s15
 8002160:	e001      	b.n	8002166 <clampAbs+0x4a>
    return value;
 8002162:	edd7 7a01 	vldr	s15, [r7, #4]
}
 8002166:	eeb0 0a67 	vmov.f32	s0, s15
 800216a:	370c      	adds	r7, #12
 800216c:	46bd      	mov	sp, r7
 800216e:	f85d 7b04 	ldr.w	r7, [sp], #4
 8002172:	4770      	bx	lr

08002174 <slewToward>:

float slewToward(float current, float target, float maxDelta) {
 8002174:	b580      	push	{r7, lr}
 8002176:	b086      	sub	sp, #24
 8002178:	af00      	add	r7, sp, #0
 800217a:	ed87 0a03 	vstr	s0, [r7, #12]
 800217e:	edc7 0a02 	vstr	s1, [r7, #8]
 8002182:	ed87 1a01 	vstr	s2, [r7, #4]
    float delta = clampAbs(target - current, maxDelta);
 8002186:	ed97 7a02 	vldr	s14, [r7, #8]
 800218a:	edd7 7a03 	vldr	s15, [r7, #12]
 800218e:	ee77 7a67 	vsub.f32	s15, s14, s15
 8002192:	edd7 0a01 	vldr	s1, [r7, #4]
 8002196:	eeb0 0a67 	vmov.f32	s0, s15
 800219a:	f7ff ffbf 	bl	800211c <clampAbs>
 800219e:	ed87 0a05 	vstr	s0, [r7, #20]
    return current + delta;
 80021a2:	ed97 7a03 	vldr	s14, [r7, #12]
 80021a6:	edd7 7a05 	vldr	s15, [r7, #20]
 80021aa:	ee77 7a27 	vadd.f32	s15, s14, s15
}
 80021ae:	eeb0 0a67 	vmov.f32	s0, s15
 80021b2:	3718      	adds	r7, #24
 80021b4:	46bd      	mov	sp, r7
 80021b6:	bd80      	pop	{r7, pc}

080021b8 <rpmToWheelMps>:

float rpmToWheelMps(float wheel_rpm) { return wheel_rpm * WHEEL_CIRCUMFERENCE / 60.0f; }
 80021b8:	b480      	push	{r7}
 80021ba:	b083      	sub	sp, #12
 80021bc:	af00      	add	r7, sp, #0
 80021be:	ed87 0a01 	vstr	s0, [r7, #4]
 80021c2:	4b0a      	ldr	r3, [pc, #40]	@ (80021ec <rpmToWheelMps+0x34>)
 80021c4:	ed93 7a00 	vldr	s14, [r3]
 80021c8:	edd7 7a01 	vldr	s15, [r7, #4]
 80021cc:	ee67 7a27 	vmul.f32	s15, s14, s15
 80021d0:	ed9f 7a07 	vldr	s14, [pc, #28]	@ 80021f0 <rpmToWheelMps+0x38>
 80021d4:	eec7 6a87 	vdiv.f32	s13, s15, s14
 80021d8:	eef0 7a66 	vmov.f32	s15, s13
 80021dc:	eeb0 0a67 	vmov.f32	s0, s15
 80021e0:	370c      	adds	r7, #12
 80021e2:	46bd      	mov	sp, r7
 80021e4:	f85d 7b04 	ldr.w	r7, [sp], #4
 80021e8:	4770      	bx	lr
 80021ea:	bf00      	nop
 80021ec:	20000018 	.word	0x20000018
 80021f0:	42700000 	.word	0x42700000

080021f4 <hardware_init>:
float wheelMpsToRpm(float wheel_mps) { return wheel_mps * 60.0f / WHEEL_CIRCUMFERENCE; }

// ==================== KHỞI TẠO PHẦN CỨNG ====================
static void hardware_init(void) {
 80021f4:	b480      	push	{r7}
 80021f6:	af00      	add	r7, sp, #0
    RCC_AHB1ENR |= (1U << 0) | (1U << 1) | (1U << 2);
 80021f8:	4b60      	ldr	r3, [pc, #384]	@ (800237c <hardware_init+0x188>)
 80021fa:	681b      	ldr	r3, [r3, #0]
 80021fc:	4a5f      	ldr	r2, [pc, #380]	@ (800237c <hardware_init+0x188>)
 80021fe:	f043 0307 	orr.w	r3, r3, #7
 8002202:	6013      	str	r3, [r2, #0]
    RCC_APB1ENR |= (1U << 17);
 8002204:	4b5e      	ldr	r3, [pc, #376]	@ (8002380 <hardware_init+0x18c>)
 8002206:	681b      	ldr	r3, [r3, #0]
 8002208:	4a5d      	ldr	r2, [pc, #372]	@ (8002380 <hardware_init+0x18c>)
 800220a:	f443 3300 	orr.w	r3, r3, #131072	@ 0x20000
 800220e:	6013      	str	r3, [r2, #0]
    RCC_APB2ENR |= (1U << 14);
 8002210:	4b5c      	ldr	r3, [pc, #368]	@ (8002384 <hardware_init+0x190>)
 8002212:	681b      	ldr	r3, [r3, #0]
 8002214:	4a5b      	ldr	r2, [pc, #364]	@ (8002384 <hardware_init+0x190>)
 8002216:	f443 4380 	orr.w	r3, r3, #16384	@ 0x4000
 800221a:	6013      	str	r3, [r2, #0]
    (void)RCC_AHB1ENR;
 800221c:	4b57      	ldr	r3, [pc, #348]	@ (800237c <hardware_init+0x188>)
 800221e:	681b      	ldr	r3, [r3, #0]

    DEMCR |= (1U << 24);
 8002220:	4b59      	ldr	r3, [pc, #356]	@ (8002388 <hardware_init+0x194>)
 8002222:	681b      	ldr	r3, [r3, #0]
 8002224:	4a58      	ldr	r2, [pc, #352]	@ (8002388 <hardware_init+0x194>)
 8002226:	f043 7380 	orr.w	r3, r3, #16777216	@ 0x1000000
 800222a:	6013      	str	r3, [r2, #0]
    DWT_CYCCNT = 0U;
 800222c:	4b57      	ldr	r3, [pc, #348]	@ (800238c <hardware_init+0x198>)
 800222e:	2200      	movs	r2, #0
 8002230:	601a      	str	r2, [r3, #0]
    DWT_CTRL |= 1U;
 8002232:	4b57      	ldr	r3, [pc, #348]	@ (8002390 <hardware_init+0x19c>)
 8002234:	681b      	ldr	r3, [r3, #0]
 8002236:	4a56      	ldr	r2, [pc, #344]	@ (8002390 <hardware_init+0x19c>)
 8002238:	f043 0301 	orr.w	r3, r3, #1
 800223c:	6013      	str	r3, [r2, #0]

    // USART2: PA2 (TX), PA3 (RX)
    GPIOA_MODER &= ~(0xFU << 4);
 800223e:	4b55      	ldr	r3, [pc, #340]	@ (8002394 <hardware_init+0x1a0>)
 8002240:	681b      	ldr	r3, [r3, #0]
 8002242:	4a54      	ldr	r2, [pc, #336]	@ (8002394 <hardware_init+0x1a0>)
 8002244:	f023 03f0 	bic.w	r3, r3, #240	@ 0xf0
 8002248:	6013      	str	r3, [r2, #0]
    GPIOA_MODER |= (0xAU << 4);
 800224a:	4b52      	ldr	r3, [pc, #328]	@ (8002394 <hardware_init+0x1a0>)
 800224c:	681b      	ldr	r3, [r3, #0]
 800224e:	4a51      	ldr	r2, [pc, #324]	@ (8002394 <hardware_init+0x1a0>)
 8002250:	f043 03a0 	orr.w	r3, r3, #160	@ 0xa0
 8002254:	6013      	str	r3, [r2, #0]
    GPIOA_AFRL &= ~(0xFFU << 8);
 8002256:	4b50      	ldr	r3, [pc, #320]	@ (8002398 <hardware_init+0x1a4>)
 8002258:	681b      	ldr	r3, [r3, #0]
 800225a:	4a4f      	ldr	r2, [pc, #316]	@ (8002398 <hardware_init+0x1a4>)
 800225c:	f423 437f 	bic.w	r3, r3, #65280	@ 0xff00
 8002260:	6013      	str	r3, [r2, #0]
    GPIOA_AFRL |= (0x77U << 8);
 8002262:	4b4d      	ldr	r3, [pc, #308]	@ (8002398 <hardware_init+0x1a4>)
 8002264:	681b      	ldr	r3, [r3, #0]
 8002266:	4a4c      	ldr	r2, [pc, #304]	@ (8002398 <hardware_init+0x1a4>)
 8002268:	f443 43ee 	orr.w	r3, r3, #30464	@ 0x7700
 800226c:	6013      	str	r3, [r2, #0]
    USART2_BRR = 0x008BU; // 115200 at 16MHz
 800226e:	4b4b      	ldr	r3, [pc, #300]	@ (800239c <hardware_init+0x1a8>)
 8002270:	228b      	movs	r2, #139	@ 0x8b
 8002272:	601a      	str	r2, [r3, #0]
    USART2_CR1 = (1U << 13) | (1U << 3) | (1U << 2);
 8002274:	4b4a      	ldr	r3, [pc, #296]	@ (80023a0 <hardware_init+0x1ac>)
 8002276:	f242 020c 	movw	r2, #8204	@ 0x200c
 800227a:	601a      	str	r2, [r3, #0]

    // Encoders: A = PA0, PA1, PC2, PC3 | B = PB4, PB5, PB6, PB7
    GPIOA_MODER &= ~(0xFU);
 800227c:	4b45      	ldr	r3, [pc, #276]	@ (8002394 <hardware_init+0x1a0>)
 800227e:	681b      	ldr	r3, [r3, #0]
 8002280:	4a44      	ldr	r2, [pc, #272]	@ (8002394 <hardware_init+0x1a0>)
 8002282:	f023 030f 	bic.w	r3, r3, #15
 8002286:	6013      	str	r3, [r2, #0]
    GPIOA_PUPDR &= ~(0xFU); GPIOA_PUPDR |= (0x5U);
 8002288:	4b46      	ldr	r3, [pc, #280]	@ (80023a4 <hardware_init+0x1b0>)
 800228a:	681b      	ldr	r3, [r3, #0]
 800228c:	4a45      	ldr	r2, [pc, #276]	@ (80023a4 <hardware_init+0x1b0>)
 800228e:	f023 030f 	bic.w	r3, r3, #15
 8002292:	6013      	str	r3, [r2, #0]
 8002294:	4b43      	ldr	r3, [pc, #268]	@ (80023a4 <hardware_init+0x1b0>)
 8002296:	681b      	ldr	r3, [r3, #0]
 8002298:	4a42      	ldr	r2, [pc, #264]	@ (80023a4 <hardware_init+0x1b0>)
 800229a:	f043 0305 	orr.w	r3, r3, #5
 800229e:	6013      	str	r3, [r2, #0]

    GPIOC_MODER &= ~(0xFU << 4);
 80022a0:	4b41      	ldr	r3, [pc, #260]	@ (80023a8 <hardware_init+0x1b4>)
 80022a2:	681b      	ldr	r3, [r3, #0]
 80022a4:	4a40      	ldr	r2, [pc, #256]	@ (80023a8 <hardware_init+0x1b4>)
 80022a6:	f023 03f0 	bic.w	r3, r3, #240	@ 0xf0
 80022aa:	6013      	str	r3, [r2, #0]
    GPIOC_PUPDR &= ~(0xFU << 4); GPIOC_PUPDR |= (0x5U << 4);
 80022ac:	4b3f      	ldr	r3, [pc, #252]	@ (80023ac <hardware_init+0x1b8>)
 80022ae:	681b      	ldr	r3, [r3, #0]
 80022b0:	4a3e      	ldr	r2, [pc, #248]	@ (80023ac <hardware_init+0x1b8>)
 80022b2:	f023 03f0 	bic.w	r3, r3, #240	@ 0xf0
 80022b6:	6013      	str	r3, [r2, #0]
 80022b8:	4b3c      	ldr	r3, [pc, #240]	@ (80023ac <hardware_init+0x1b8>)
 80022ba:	681b      	ldr	r3, [r3, #0]
 80022bc:	4a3b      	ldr	r2, [pc, #236]	@ (80023ac <hardware_init+0x1b8>)
 80022be:	f043 0350 	orr.w	r3, r3, #80	@ 0x50
 80022c2:	6013      	str	r3, [r2, #0]

    GPIOB_MODER &= ~(0xFF00U);
 80022c4:	4b3a      	ldr	r3, [pc, #232]	@ (80023b0 <hardware_init+0x1bc>)
 80022c6:	681b      	ldr	r3, [r3, #0]
 80022c8:	4a39      	ldr	r2, [pc, #228]	@ (80023b0 <hardware_init+0x1bc>)
 80022ca:	f423 437f 	bic.w	r3, r3, #65280	@ 0xff00
 80022ce:	6013      	str	r3, [r2, #0]
    GPIOB_PUPDR &= ~(0xFF00U); GPIOB_PUPDR |= (0x5500U);
 80022d0:	4b38      	ldr	r3, [pc, #224]	@ (80023b4 <hardware_init+0x1c0>)
 80022d2:	681b      	ldr	r3, [r3, #0]
 80022d4:	4a37      	ldr	r2, [pc, #220]	@ (80023b4 <hardware_init+0x1c0>)
 80022d6:	f423 437f 	bic.w	r3, r3, #65280	@ 0xff00
 80022da:	6013      	str	r3, [r2, #0]
 80022dc:	4b35      	ldr	r3, [pc, #212]	@ (80023b4 <hardware_init+0x1c0>)
 80022de:	681b      	ldr	r3, [r3, #0]
 80022e0:	4a34      	ldr	r2, [pc, #208]	@ (80023b4 <hardware_init+0x1c0>)
 80022e2:	f443 43aa 	orr.w	r3, r3, #21760	@ 0x5500
 80022e6:	6013      	str	r3, [r2, #0]

    // EXTI cho Encoder A
    SYSCFG_EXTICR1 &= ~(0xFFFFU);
 80022e8:	4b33      	ldr	r3, [pc, #204]	@ (80023b8 <hardware_init+0x1c4>)
 80022ea:	681b      	ldr	r3, [r3, #0]
 80022ec:	4a32      	ldr	r2, [pc, #200]	@ (80023b8 <hardware_init+0x1c4>)
 80022ee:	0c1b      	lsrs	r3, r3, #16
 80022f0:	041b      	lsls	r3, r3, #16
 80022f2:	6013      	str	r3, [r2, #0]
    SYSCFG_EXTICR1 |= (0x2200U); // PA0, PA1, PC2, PC3
 80022f4:	4b30      	ldr	r3, [pc, #192]	@ (80023b8 <hardware_init+0x1c4>)
 80022f6:	681b      	ldr	r3, [r3, #0]
 80022f8:	4a2f      	ldr	r2, [pc, #188]	@ (80023b8 <hardware_init+0x1c4>)
 80022fa:	f443 5308 	orr.w	r3, r3, #8704	@ 0x2200
 80022fe:	6013      	str	r3, [r2, #0]
    EXTI_IMR |= 0x0FU;
 8002300:	4b2e      	ldr	r3, [pc, #184]	@ (80023bc <hardware_init+0x1c8>)
 8002302:	681b      	ldr	r3, [r3, #0]
 8002304:	4a2d      	ldr	r2, [pc, #180]	@ (80023bc <hardware_init+0x1c8>)
 8002306:	f043 030f 	orr.w	r3, r3, #15
 800230a:	6013      	str	r3, [r2, #0]
    EXTI_RTSR |= 0x0FU;
 800230c:	4b2c      	ldr	r3, [pc, #176]	@ (80023c0 <hardware_init+0x1cc>)
 800230e:	681b      	ldr	r3, [r3, #0]
 8002310:	4a2b      	ldr	r2, [pc, #172]	@ (80023c0 <hardware_init+0x1cc>)
 8002312:	f043 030f 	orr.w	r3, r3, #15
 8002316:	6013      	str	r3, [r2, #0]
    EXTI_FTSR |= 0x0FU;
 8002318:	4b2a      	ldr	r3, [pc, #168]	@ (80023c4 <hardware_init+0x1d0>)
 800231a:	681b      	ldr	r3, [r3, #0]
 800231c:	4a29      	ldr	r2, [pc, #164]	@ (80023c4 <hardware_init+0x1d0>)
 800231e:	f043 030f 	orr.w	r3, r3, #15
 8002322:	6013      	str	r3, [r2, #0]
    NVIC_ISER0 |= (1U << 6) | (1U << 7) | (1U << 8) | (1U << 9);
 8002324:	4b28      	ldr	r3, [pc, #160]	@ (80023c8 <hardware_init+0x1d4>)
 8002326:	681b      	ldr	r3, [r3, #0]
 8002328:	4a27      	ldr	r2, [pc, #156]	@ (80023c8 <hardware_init+0x1d4>)
 800232a:	f443 7370 	orr.w	r3, r3, #960	@ 0x3c0
 800232e:	6013      	str	r3, [r2, #0]

    // Motor Pins (Output cho logic PWM, TODO: Cấu hình Hardware Timer sau)
    // Motor 1: PC0, PC1 | Motor 2: PC4, PC5 | Motor 3: PB0, PB1 | Motor 4: PB2, PB10
    GPIOC_MODER &= ~((3U << 0) | (3U << 2) | (3U << 8) | (3U << 10));
 8002330:	4b1d      	ldr	r3, [pc, #116]	@ (80023a8 <hardware_init+0x1b4>)
 8002332:	681b      	ldr	r3, [r3, #0]
 8002334:	4a1c      	ldr	r2, [pc, #112]	@ (80023a8 <hardware_init+0x1b4>)
 8002336:	f423 6370 	bic.w	r3, r3, #3840	@ 0xf00
 800233a:	f023 030f 	bic.w	r3, r3, #15
 800233e:	6013      	str	r3, [r2, #0]
    GPIOC_MODER |=  ((1U << 0) | (1U << 2) | (1U << 8) | (1U << 10));
 8002340:	4b19      	ldr	r3, [pc, #100]	@ (80023a8 <hardware_init+0x1b4>)
 8002342:	681b      	ldr	r3, [r3, #0]
 8002344:	4a18      	ldr	r2, [pc, #96]	@ (80023a8 <hardware_init+0x1b4>)
 8002346:	f443 63a0 	orr.w	r3, r3, #1280	@ 0x500
 800234a:	f043 0305 	orr.w	r3, r3, #5
 800234e:	6013      	str	r3, [r2, #0]

    GPIOB_MODER &= ~((3U << 0) | (3U << 2) | (3U << 4) | (3U << 20));
 8002350:	4b17      	ldr	r3, [pc, #92]	@ (80023b0 <hardware_init+0x1bc>)
 8002352:	681b      	ldr	r3, [r3, #0]
 8002354:	4a16      	ldr	r2, [pc, #88]	@ (80023b0 <hardware_init+0x1bc>)
 8002356:	f423 1340 	bic.w	r3, r3, #3145728	@ 0x300000
 800235a:	f023 033f 	bic.w	r3, r3, #63	@ 0x3f
 800235e:	6013      	str	r3, [r2, #0]
    GPIOB_MODER |=  ((1U << 0) | (1U << 2) | (1U << 4) | (1U << 20));
 8002360:	4b13      	ldr	r3, [pc, #76]	@ (80023b0 <hardware_init+0x1bc>)
 8002362:	681b      	ldr	r3, [r3, #0]
 8002364:	4a12      	ldr	r2, [pc, #72]	@ (80023b0 <hardware_init+0x1bc>)
 8002366:	f443 1380 	orr.w	r3, r3, #1048576	@ 0x100000
 800236a:	f043 0315 	orr.w	r3, r3, #21
 800236e:	6013      	str	r3, [r2, #0]
}
 8002370:	bf00      	nop
 8002372:	46bd      	mov	sp, r7
 8002374:	f85d 7b04 	ldr.w	r7, [sp], #4
 8002378:	4770      	bx	lr
 800237a:	bf00      	nop
 800237c:	40023830 	.word	0x40023830
 8002380:	40023840 	.word	0x40023840
 8002384:	40023844 	.word	0x40023844
 8002388:	e000edfc 	.word	0xe000edfc
 800238c:	e0001004 	.word	0xe0001004
 8002390:	e0001000 	.word	0xe0001000
 8002394:	40020000 	.word	0x40020000
 8002398:	40020020 	.word	0x40020020
 800239c:	40004408 	.word	0x40004408
 80023a0:	4000440c 	.word	0x4000440c
 80023a4:	4002000c 	.word	0x4002000c
 80023a8:	40020800 	.word	0x40020800
 80023ac:	4002080c 	.word	0x4002080c
 80023b0:	40020400 	.word	0x40020400
 80023b4:	4002040c 	.word	0x4002040c
 80023b8:	40013808 	.word	0x40013808
 80023bc:	40013c00 	.word	0x40013c00
 80023c0:	40013c08 	.word	0x40013c08
 80023c4:	40013c0c 	.word	0x40013c0c
 80023c8:	e000e100 	.word	0xe000e100

080023cc <EXTI0_IRQHandler>:

// ==================== NGẮT ENCODER ====================
void EXTI0_IRQHandler(void) {
 80023cc:	b480      	push	{r7}
 80023ce:	b083      	sub	sp, #12
 80023d0:	af00      	add	r7, sp, #0
    if (EXTI_PR & (1U << 0)) {
 80023d2:	4b16      	ldr	r3, [pc, #88]	@ (800242c <EXTI0_IRQHandler+0x60>)
 80023d4:	681b      	ldr	r3, [r3, #0]
 80023d6:	f003 0301 	and.w	r3, r3, #1
 80023da:	2b00      	cmp	r3, #0
 80023dc:	d01f      	beq.n	800241e <EXTI0_IRQHandler+0x52>
        EXTI_PR = (1U << 0);
 80023de:	4b13      	ldr	r3, [pc, #76]	@ (800242c <EXTI0_IRQHandler+0x60>)
 80023e0:	2201      	movs	r2, #1
 80023e2:	601a      	str	r2, [r3, #0]
        uint8_t a = (GPIOA_IDR & (1U << 0)) ? 1U : 0U;
 80023e4:	4b12      	ldr	r3, [pc, #72]	@ (8002430 <EXTI0_IRQHandler+0x64>)
 80023e6:	681b      	ldr	r3, [r3, #0]
 80023e8:	b2db      	uxtb	r3, r3
 80023ea:	f003 0301 	and.w	r3, r3, #1
 80023ee:	71fb      	strb	r3, [r7, #7]
        uint8_t b = (GPIOB_IDR & (1U << 4)) ? 1U : 0U;
 80023f0:	4b10      	ldr	r3, [pc, #64]	@ (8002434 <EXTI0_IRQHandler+0x68>)
 80023f2:	681b      	ldr	r3, [r3, #0]
 80023f4:	f003 0310 	and.w	r3, r3, #16
 80023f8:	2b00      	cmp	r3, #0
 80023fa:	d001      	beq.n	8002400 <EXTI0_IRQHandler+0x34>
 80023fc:	2301      	movs	r3, #1
 80023fe:	e000      	b.n	8002402 <EXTI0_IRQHandler+0x36>
 8002400:	2300      	movs	r3, #0
 8002402:	71bb      	strb	r3, [r7, #6]
        enc_count[0] += (a != b) ? 1 : -1;
 8002404:	4b0c      	ldr	r3, [pc, #48]	@ (8002438 <EXTI0_IRQHandler+0x6c>)
 8002406:	681b      	ldr	r3, [r3, #0]
 8002408:	79f9      	ldrb	r1, [r7, #7]
 800240a:	79ba      	ldrb	r2, [r7, #6]
 800240c:	4291      	cmp	r1, r2
 800240e:	d001      	beq.n	8002414 <EXTI0_IRQHandler+0x48>
 8002410:	2201      	movs	r2, #1
 8002412:	e001      	b.n	8002418 <EXTI0_IRQHandler+0x4c>
 8002414:	f04f 32ff 	mov.w	r2, #4294967295
 8002418:	4413      	add	r3, r2
 800241a:	4a07      	ldr	r2, [pc, #28]	@ (8002438 <EXTI0_IRQHandler+0x6c>)
 800241c:	6013      	str	r3, [r2, #0]
    }
}
 800241e:	bf00      	nop
 8002420:	370c      	adds	r7, #12
 8002422:	46bd      	mov	sp, r7
 8002424:	f85d 7b04 	ldr.w	r7, [sp], #4
 8002428:	4770      	bx	lr
 800242a:	bf00      	nop
 800242c:	40013c14 	.word	0x40013c14
 8002430:	40020010 	.word	0x40020010
 8002434:	40020410 	.word	0x40020410
 8002438:	200002a4 	.word	0x200002a4

0800243c <EXTI1_IRQHandler>:
void EXTI1_IRQHandler(void) {
 800243c:	b480      	push	{r7}
 800243e:	b083      	sub	sp, #12
 8002440:	af00      	add	r7, sp, #0
    if (EXTI_PR & (1U << 1)) {
 8002442:	4b18      	ldr	r3, [pc, #96]	@ (80024a4 <EXTI1_IRQHandler+0x68>)
 8002444:	681b      	ldr	r3, [r3, #0]
 8002446:	f003 0302 	and.w	r3, r3, #2
 800244a:	2b00      	cmp	r3, #0
 800244c:	d023      	beq.n	8002496 <EXTI1_IRQHandler+0x5a>
        EXTI_PR = (1U << 1);
 800244e:	4b15      	ldr	r3, [pc, #84]	@ (80024a4 <EXTI1_IRQHandler+0x68>)
 8002450:	2202      	movs	r2, #2
 8002452:	601a      	str	r2, [r3, #0]
        uint8_t a = (GPIOA_IDR & (1U << 1)) ? 1U : 0U;
 8002454:	4b14      	ldr	r3, [pc, #80]	@ (80024a8 <EXTI1_IRQHandler+0x6c>)
 8002456:	681b      	ldr	r3, [r3, #0]
 8002458:	f003 0302 	and.w	r3, r3, #2
 800245c:	2b00      	cmp	r3, #0
 800245e:	d001      	beq.n	8002464 <EXTI1_IRQHandler+0x28>
 8002460:	2301      	movs	r3, #1
 8002462:	e000      	b.n	8002466 <EXTI1_IRQHandler+0x2a>
 8002464:	2300      	movs	r3, #0
 8002466:	71fb      	strb	r3, [r7, #7]
        uint8_t b = (GPIOB_IDR & (1U << 5)) ? 1U : 0U;
 8002468:	4b10      	ldr	r3, [pc, #64]	@ (80024ac <EXTI1_IRQHandler+0x70>)
 800246a:	681b      	ldr	r3, [r3, #0]
 800246c:	f003 0320 	and.w	r3, r3, #32
 8002470:	2b00      	cmp	r3, #0
 8002472:	d001      	beq.n	8002478 <EXTI1_IRQHandler+0x3c>
 8002474:	2301      	movs	r3, #1
 8002476:	e000      	b.n	800247a <EXTI1_IRQHandler+0x3e>
 8002478:	2300      	movs	r3, #0
 800247a:	71bb      	strb	r3, [r7, #6]
        enc_count[1] += (a != b) ? -1 : 1;
 800247c:	4b0c      	ldr	r3, [pc, #48]	@ (80024b0 <EXTI1_IRQHandler+0x74>)
 800247e:	685b      	ldr	r3, [r3, #4]
 8002480:	79f9      	ldrb	r1, [r7, #7]
 8002482:	79ba      	ldrb	r2, [r7, #6]
 8002484:	4291      	cmp	r1, r2
 8002486:	d002      	beq.n	800248e <EXTI1_IRQHandler+0x52>
 8002488:	f04f 32ff 	mov.w	r2, #4294967295
 800248c:	e000      	b.n	8002490 <EXTI1_IRQHandler+0x54>
 800248e:	2201      	movs	r2, #1
 8002490:	4413      	add	r3, r2
 8002492:	4a07      	ldr	r2, [pc, #28]	@ (80024b0 <EXTI1_IRQHandler+0x74>)
 8002494:	6053      	str	r3, [r2, #4]
    }
}
 8002496:	bf00      	nop
 8002498:	370c      	adds	r7, #12
 800249a:	46bd      	mov	sp, r7
 800249c:	f85d 7b04 	ldr.w	r7, [sp], #4
 80024a0:	4770      	bx	lr
 80024a2:	bf00      	nop
 80024a4:	40013c14 	.word	0x40013c14
 80024a8:	40020010 	.word	0x40020010
 80024ac:	40020410 	.word	0x40020410
 80024b0:	200002a4 	.word	0x200002a4

080024b4 <EXTI2_IRQHandler>:
void EXTI2_IRQHandler(void) {
 80024b4:	b480      	push	{r7}
 80024b6:	b083      	sub	sp, #12
 80024b8:	af00      	add	r7, sp, #0
    if (EXTI_PR & (1U << 2)) {
 80024ba:	4b18      	ldr	r3, [pc, #96]	@ (800251c <EXTI2_IRQHandler+0x68>)
 80024bc:	681b      	ldr	r3, [r3, #0]
 80024be:	f003 0304 	and.w	r3, r3, #4
 80024c2:	2b00      	cmp	r3, #0
 80024c4:	d023      	beq.n	800250e <EXTI2_IRQHandler+0x5a>
        EXTI_PR = (1U << 2);
 80024c6:	4b15      	ldr	r3, [pc, #84]	@ (800251c <EXTI2_IRQHandler+0x68>)
 80024c8:	2204      	movs	r2, #4
 80024ca:	601a      	str	r2, [r3, #0]
        uint8_t a = (GPIOC_IDR & (1U << 2)) ? 1U : 0U;
 80024cc:	4b14      	ldr	r3, [pc, #80]	@ (8002520 <EXTI2_IRQHandler+0x6c>)
 80024ce:	681b      	ldr	r3, [r3, #0]
 80024d0:	f003 0304 	and.w	r3, r3, #4
 80024d4:	2b00      	cmp	r3, #0
 80024d6:	d001      	beq.n	80024dc <EXTI2_IRQHandler+0x28>
 80024d8:	2301      	movs	r3, #1
 80024da:	e000      	b.n	80024de <EXTI2_IRQHandler+0x2a>
 80024dc:	2300      	movs	r3, #0
 80024de:	71fb      	strb	r3, [r7, #7]
        uint8_t b = (GPIOB_IDR & (1U << 6)) ? 1U : 0U;
 80024e0:	4b10      	ldr	r3, [pc, #64]	@ (8002524 <EXTI2_IRQHandler+0x70>)
 80024e2:	681b      	ldr	r3, [r3, #0]
 80024e4:	f003 0340 	and.w	r3, r3, #64	@ 0x40
 80024e8:	2b00      	cmp	r3, #0
 80024ea:	d001      	beq.n	80024f0 <EXTI2_IRQHandler+0x3c>
 80024ec:	2301      	movs	r3, #1
 80024ee:	e000      	b.n	80024f2 <EXTI2_IRQHandler+0x3e>
 80024f0:	2300      	movs	r3, #0
 80024f2:	71bb      	strb	r3, [r7, #6]
        enc_count[2] += (a != b) ? -1 : 1;
 80024f4:	4b0c      	ldr	r3, [pc, #48]	@ (8002528 <EXTI2_IRQHandler+0x74>)
 80024f6:	689b      	ldr	r3, [r3, #8]
 80024f8:	79f9      	ldrb	r1, [r7, #7]
 80024fa:	79ba      	ldrb	r2, [r7, #6]
 80024fc:	4291      	cmp	r1, r2
 80024fe:	d002      	beq.n	8002506 <EXTI2_IRQHandler+0x52>
 8002500:	f04f 32ff 	mov.w	r2, #4294967295
 8002504:	e000      	b.n	8002508 <EXTI2_IRQHandler+0x54>
 8002506:	2201      	movs	r2, #1
 8002508:	4413      	add	r3, r2
 800250a:	4a07      	ldr	r2, [pc, #28]	@ (8002528 <EXTI2_IRQHandler+0x74>)
 800250c:	6093      	str	r3, [r2, #8]
    }
}
 800250e:	bf00      	nop
 8002510:	370c      	adds	r7, #12
 8002512:	46bd      	mov	sp, r7
 8002514:	f85d 7b04 	ldr.w	r7, [sp], #4
 8002518:	4770      	bx	lr
 800251a:	bf00      	nop
 800251c:	40013c14 	.word	0x40013c14
 8002520:	40020810 	.word	0x40020810
 8002524:	40020410 	.word	0x40020410
 8002528:	200002a4 	.word	0x200002a4

0800252c <EXTI3_IRQHandler>:
void EXTI3_IRQHandler(void) {
 800252c:	b480      	push	{r7}
 800252e:	b083      	sub	sp, #12
 8002530:	af00      	add	r7, sp, #0
    if (EXTI_PR & (1U << 3)) {
 8002532:	4b18      	ldr	r3, [pc, #96]	@ (8002594 <EXTI3_IRQHandler+0x68>)
 8002534:	681b      	ldr	r3, [r3, #0]
 8002536:	f003 0308 	and.w	r3, r3, #8
 800253a:	2b00      	cmp	r3, #0
 800253c:	d023      	beq.n	8002586 <EXTI3_IRQHandler+0x5a>
        EXTI_PR = (1U << 3);
 800253e:	4b15      	ldr	r3, [pc, #84]	@ (8002594 <EXTI3_IRQHandler+0x68>)
 8002540:	2208      	movs	r2, #8
 8002542:	601a      	str	r2, [r3, #0]
        uint8_t a = (GPIOC_IDR & (1U << 3)) ? 1U : 0U;
 8002544:	4b14      	ldr	r3, [pc, #80]	@ (8002598 <EXTI3_IRQHandler+0x6c>)
 8002546:	681b      	ldr	r3, [r3, #0]
 8002548:	f003 0308 	and.w	r3, r3, #8
 800254c:	2b00      	cmp	r3, #0
 800254e:	d001      	beq.n	8002554 <EXTI3_IRQHandler+0x28>
 8002550:	2301      	movs	r3, #1
 8002552:	e000      	b.n	8002556 <EXTI3_IRQHandler+0x2a>
 8002554:	2300      	movs	r3, #0
 8002556:	71fb      	strb	r3, [r7, #7]
        uint8_t b = (GPIOB_IDR & (1U << 7)) ? 1U : 0U;
 8002558:	4b10      	ldr	r3, [pc, #64]	@ (800259c <EXTI3_IRQHandler+0x70>)
 800255a:	681b      	ldr	r3, [r3, #0]
 800255c:	f003 0380 	and.w	r3, r3, #128	@ 0x80
 8002560:	2b00      	cmp	r3, #0
 8002562:	d001      	beq.n	8002568 <EXTI3_IRQHandler+0x3c>
 8002564:	2301      	movs	r3, #1
 8002566:	e000      	b.n	800256a <EXTI3_IRQHandler+0x3e>
 8002568:	2300      	movs	r3, #0
 800256a:	71bb      	strb	r3, [r7, #6]
        enc_count[3] += (a != b) ? 1 : -1;
 800256c:	4b0c      	ldr	r3, [pc, #48]	@ (80025a0 <EXTI3_IRQHandler+0x74>)
 800256e:	68db      	ldr	r3, [r3, #12]
 8002570:	79f9      	ldrb	r1, [r7, #7]
 8002572:	79ba      	ldrb	r2, [r7, #6]
 8002574:	4291      	cmp	r1, r2
 8002576:	d001      	beq.n	800257c <EXTI3_IRQHandler+0x50>
 8002578:	2201      	movs	r2, #1
 800257a:	e001      	b.n	8002580 <EXTI3_IRQHandler+0x54>
 800257c:	f04f 32ff 	mov.w	r2, #4294967295
 8002580:	4413      	add	r3, r2
 8002582:	4a07      	ldr	r2, [pc, #28]	@ (80025a0 <EXTI3_IRQHandler+0x74>)
 8002584:	60d3      	str	r3, [r2, #12]
    }
}
 8002586:	bf00      	nop
 8002588:	370c      	adds	r7, #12
 800258a:	46bd      	mov	sp, r7
 800258c:	f85d 7b04 	ldr.w	r7, [sp], #4
 8002590:	4770      	bx	lr
 8002592:	bf00      	nop
 8002594:	40013c14 	.word	0x40013c14
 8002598:	40020810 	.word	0x40020810
 800259c:	40020410 	.word	0x40020410
 80025a0:	200002a4 	.word	0x200002a4

080025a4 <setMotorSignedPwm>:

// ==================== ĐIỀU KHIỂN MOTOR ====================
void setMotorSignedPwm(uint8_t motor_id, float pwmSigned) {
 80025a4:	b480      	push	{r7}
 80025a6:	b085      	sub	sp, #20
 80025a8:	af00      	add	r7, sp, #0
 80025aa:	4603      	mov	r3, r0
 80025ac:	ed87 0a00 	vstr	s0, [r7]
 80025b0:	71fb      	strb	r3, [r7, #7]
    float pwmAbs = fabsf(pwmSigned);
 80025b2:	edd7 7a00 	vldr	s15, [r7]
 80025b6:	eef0 7ae7 	vabs.f32	s15, s15
 80025ba:	edc7 7a03 	vstr	s15, [r7, #12]
    if (pwmAbs < PWM_ZERO_DB) pwmAbs = 0;
 80025be:	eeb2 7a0c 	vmov.f32	s14, #44	@ 0x41600000  14.0
 80025c2:	edd7 7a03 	vldr	s15, [r7, #12]
 80025c6:	eef4 7ac7 	vcmpe.f32	s15, s14
 80025ca:	eef1 fa10 	vmrs	APSR_nzcv, fpscr
 80025ce:	d502      	bpl.n	80025d6 <setMotorSignedPwm+0x32>
 80025d0:	f04f 0300 	mov.w	r3, #0
 80025d4:	60fb      	str	r3, [r7, #12]
    
    // TODO: Áp dụng pwmAbs vào thanh ghi CCR của Timer tương ứng.
    // Dưới đây là mô phỏng set HIGH/LOW (Digital On/Off) để giữ đúng logic hàm.
    bool fwd = (pwmSigned >= 0.0f && pwmAbs > 0);
 80025d6:	edd7 7a00 	vldr	s15, [r7]
 80025da:	eef5 7ac0 	vcmpe.f32	s15, #0.0
 80025de:	eef1 fa10 	vmrs	APSR_nzcv, fpscr
 80025e2:	db08      	blt.n	80025f6 <setMotorSignedPwm+0x52>
 80025e4:	edd7 7a03 	vldr	s15, [r7, #12]
 80025e8:	eef5 7ac0 	vcmpe.f32	s15, #0.0
 80025ec:	eef1 fa10 	vmrs	APSR_nzcv, fpscr
 80025f0:	dd01      	ble.n	80025f6 <setMotorSignedPwm+0x52>
 80025f2:	2301      	movs	r3, #1
 80025f4:	e000      	b.n	80025f8 <setMotorSignedPwm+0x54>
 80025f6:	2300      	movs	r3, #0
 80025f8:	72fb      	strb	r3, [r7, #11]
 80025fa:	7afb      	ldrb	r3, [r7, #11]
 80025fc:	f003 0301 	and.w	r3, r3, #1
 8002600:	72fb      	strb	r3, [r7, #11]
    bool rev = (pwmSigned < 0.0f && pwmAbs > 0);
 8002602:	edd7 7a00 	vldr	s15, [r7]
 8002606:	eef5 7ac0 	vcmpe.f32	s15, #0.0
 800260a:	eef1 fa10 	vmrs	APSR_nzcv, fpscr
 800260e:	d508      	bpl.n	8002622 <setMotorSignedPwm+0x7e>
 8002610:	edd7 7a03 	vldr	s15, [r7, #12]
 8002614:	eef5 7ac0 	vcmpe.f32	s15, #0.0
 8002618:	eef1 fa10 	vmrs	APSR_nzcv, fpscr
 800261c:	dd01      	ble.n	8002622 <setMotorSignedPwm+0x7e>
 800261e:	2301      	movs	r3, #1
 8002620:	e000      	b.n	8002624 <setMotorSignedPwm+0x80>
 8002622:	2300      	movs	r3, #0
 8002624:	72bb      	strb	r3, [r7, #10]
 8002626:	7abb      	ldrb	r3, [r7, #10]
 8002628:	f003 0301 	and.w	r3, r3, #1
 800262c:	72bb      	strb	r3, [r7, #10]

    switch(motor_id) {
 800262e:	79fb      	ldrb	r3, [r7, #7]
 8002630:	2b03      	cmp	r3, #3
 8002632:	f200 8088 	bhi.w	8002746 <setMotorSignedPwm+0x1a2>
 8002636:	a201      	add	r2, pc, #4	@ (adr r2, 800263c <setMotorSignedPwm+0x98>)
 8002638:	f852 f023 	ldr.w	pc, [r2, r3, lsl #2]
 800263c:	0800264d 	.word	0x0800264d
 8002640:	0800268b 	.word	0x0800268b
 8002644:	080026c9 	.word	0x080026c9
 8002648:	08002707 	.word	0x08002707
        case 0:
            if(fwd)      { GPIOC_BSRR = (1U << 0); GPIOC_BSRR = (1U << 17); } // PC0=1, PC1=0
 800264c:	7afb      	ldrb	r3, [r7, #11]
 800264e:	2b00      	cmp	r3, #0
 8002650:	d007      	beq.n	8002662 <setMotorSignedPwm+0xbe>
 8002652:	4b40      	ldr	r3, [pc, #256]	@ (8002754 <setMotorSignedPwm+0x1b0>)
 8002654:	2201      	movs	r2, #1
 8002656:	601a      	str	r2, [r3, #0]
 8002658:	4b3e      	ldr	r3, [pc, #248]	@ (8002754 <setMotorSignedPwm+0x1b0>)
 800265a:	f44f 3200 	mov.w	r2, #131072	@ 0x20000
 800265e:	601a      	str	r2, [r3, #0]
            else if(rev) { GPIOC_BSRR = (1U << 16); GPIOC_BSRR = (1U << 1); } // PC0=0, PC1=1
            else         { GPIOC_BSRR = (1U << 16); GPIOC_BSRR = (1U << 17); }
            break;
 8002660:	e071      	b.n	8002746 <setMotorSignedPwm+0x1a2>
            else if(rev) { GPIOC_BSRR = (1U << 16); GPIOC_BSRR = (1U << 1); } // PC0=0, PC1=1
 8002662:	7abb      	ldrb	r3, [r7, #10]
 8002664:	2b00      	cmp	r3, #0
 8002666:	d007      	beq.n	8002678 <setMotorSignedPwm+0xd4>
 8002668:	4b3a      	ldr	r3, [pc, #232]	@ (8002754 <setMotorSignedPwm+0x1b0>)
 800266a:	f44f 3280 	mov.w	r2, #65536	@ 0x10000
 800266e:	601a      	str	r2, [r3, #0]
 8002670:	4b38      	ldr	r3, [pc, #224]	@ (8002754 <setMotorSignedPwm+0x1b0>)
 8002672:	2202      	movs	r2, #2
 8002674:	601a      	str	r2, [r3, #0]
            break;
 8002676:	e066      	b.n	8002746 <setMotorSignedPwm+0x1a2>
            else         { GPIOC_BSRR = (1U << 16); GPIOC_BSRR = (1U << 17); }
 8002678:	4b36      	ldr	r3, [pc, #216]	@ (8002754 <setMotorSignedPwm+0x1b0>)
 800267a:	f44f 3280 	mov.w	r2, #65536	@ 0x10000
 800267e:	601a      	str	r2, [r3, #0]
 8002680:	4b34      	ldr	r3, [pc, #208]	@ (8002754 <setMotorSignedPwm+0x1b0>)
 8002682:	f44f 3200 	mov.w	r2, #131072	@ 0x20000
 8002686:	601a      	str	r2, [r3, #0]
            break;
 8002688:	e05d      	b.n	8002746 <setMotorSignedPwm+0x1a2>
        case 1:
            if(fwd)      { GPIOC_BSRR = (1U << 4); GPIOC_BSRR = (1U << 21); } 
 800268a:	7afb      	ldrb	r3, [r7, #11]
 800268c:	2b00      	cmp	r3, #0
 800268e:	d007      	beq.n	80026a0 <setMotorSignedPwm+0xfc>
 8002690:	4b30      	ldr	r3, [pc, #192]	@ (8002754 <setMotorSignedPwm+0x1b0>)
 8002692:	2210      	movs	r2, #16
 8002694:	601a      	str	r2, [r3, #0]
 8002696:	4b2f      	ldr	r3, [pc, #188]	@ (8002754 <setMotorSignedPwm+0x1b0>)
 8002698:	f44f 1200 	mov.w	r2, #2097152	@ 0x200000
 800269c:	601a      	str	r2, [r3, #0]
            else if(rev) { GPIOC_BSRR = (1U << 20); GPIOC_BSRR = (1U << 5); }
            else         { GPIOC_BSRR = (1U << 20); GPIOC_BSRR = (1U << 21); }
            break;
 800269e:	e052      	b.n	8002746 <setMotorSignedPwm+0x1a2>
            else if(rev) { GPIOC_BSRR = (1U << 20); GPIOC_BSRR = (1U << 5); }
 80026a0:	7abb      	ldrb	r3, [r7, #10]
 80026a2:	2b00      	cmp	r3, #0
 80026a4:	d007      	beq.n	80026b6 <setMotorSignedPwm+0x112>
 80026a6:	4b2b      	ldr	r3, [pc, #172]	@ (8002754 <setMotorSignedPwm+0x1b0>)
 80026a8:	f44f 1280 	mov.w	r2, #1048576	@ 0x100000
 80026ac:	601a      	str	r2, [r3, #0]
 80026ae:	4b29      	ldr	r3, [pc, #164]	@ (8002754 <setMotorSignedPwm+0x1b0>)
 80026b0:	2220      	movs	r2, #32
 80026b2:	601a      	str	r2, [r3, #0]
            break;
 80026b4:	e047      	b.n	8002746 <setMotorSignedPwm+0x1a2>
            else         { GPIOC_BSRR = (1U << 20); GPIOC_BSRR = (1U << 21); }
 80026b6:	4b27      	ldr	r3, [pc, #156]	@ (8002754 <setMotorSignedPwm+0x1b0>)
 80026b8:	f44f 1280 	mov.w	r2, #1048576	@ 0x100000
 80026bc:	601a      	str	r2, [r3, #0]
 80026be:	4b25      	ldr	r3, [pc, #148]	@ (8002754 <setMotorSignedPwm+0x1b0>)
 80026c0:	f44f 1200 	mov.w	r2, #2097152	@ 0x200000
 80026c4:	601a      	str	r2, [r3, #0]
            break;
 80026c6:	e03e      	b.n	8002746 <setMotorSignedPwm+0x1a2>
        case 2:
            if(fwd)      { GPIOB_BSRR = (1U << 0); GPIOB_BSRR = (1U << 17); } 
 80026c8:	7afb      	ldrb	r3, [r7, #11]
 80026ca:	2b00      	cmp	r3, #0
 80026cc:	d007      	beq.n	80026de <setMotorSignedPwm+0x13a>
 80026ce:	4b22      	ldr	r3, [pc, #136]	@ (8002758 <setMotorSignedPwm+0x1b4>)
 80026d0:	2201      	movs	r2, #1
 80026d2:	601a      	str	r2, [r3, #0]
 80026d4:	4b20      	ldr	r3, [pc, #128]	@ (8002758 <setMotorSignedPwm+0x1b4>)
 80026d6:	f44f 3200 	mov.w	r2, #131072	@ 0x20000
 80026da:	601a      	str	r2, [r3, #0]
            else if(rev) { GPIOB_BSRR = (1U << 16); GPIOB_BSRR = (1U << 1); }
            else         { GPIOB_BSRR = (1U << 16); GPIOB_BSRR = (1U << 17); }
            break;
 80026dc:	e033      	b.n	8002746 <setMotorSignedPwm+0x1a2>
            else if(rev) { GPIOB_BSRR = (1U << 16); GPIOB_BSRR = (1U << 1); }
 80026de:	7abb      	ldrb	r3, [r7, #10]
 80026e0:	2b00      	cmp	r3, #0
 80026e2:	d007      	beq.n	80026f4 <setMotorSignedPwm+0x150>
 80026e4:	4b1c      	ldr	r3, [pc, #112]	@ (8002758 <setMotorSignedPwm+0x1b4>)
 80026e6:	f44f 3280 	mov.w	r2, #65536	@ 0x10000
 80026ea:	601a      	str	r2, [r3, #0]
 80026ec:	4b1a      	ldr	r3, [pc, #104]	@ (8002758 <setMotorSignedPwm+0x1b4>)
 80026ee:	2202      	movs	r2, #2
 80026f0:	601a      	str	r2, [r3, #0]
            break;
 80026f2:	e028      	b.n	8002746 <setMotorSignedPwm+0x1a2>
            else         { GPIOB_BSRR = (1U << 16); GPIOB_BSRR = (1U << 17); }
 80026f4:	4b18      	ldr	r3, [pc, #96]	@ (8002758 <setMotorSignedPwm+0x1b4>)
 80026f6:	f44f 3280 	mov.w	r2, #65536	@ 0x10000
 80026fa:	601a      	str	r2, [r3, #0]
 80026fc:	4b16      	ldr	r3, [pc, #88]	@ (8002758 <setMotorSignedPwm+0x1b4>)
 80026fe:	f44f 3200 	mov.w	r2, #131072	@ 0x20000
 8002702:	601a      	str	r2, [r3, #0]
            break;
 8002704:	e01f      	b.n	8002746 <setMotorSignedPwm+0x1a2>
        case 3:
            if(fwd)      { GPIOB_BSRR = (1U << 2); GPIOB_BSRR = (1U << 26); } // PB2=1, PB10=0
 8002706:	7afb      	ldrb	r3, [r7, #11]
 8002708:	2b00      	cmp	r3, #0
 800270a:	d007      	beq.n	800271c <setMotorSignedPwm+0x178>
 800270c:	4b12      	ldr	r3, [pc, #72]	@ (8002758 <setMotorSignedPwm+0x1b4>)
 800270e:	2204      	movs	r2, #4
 8002710:	601a      	str	r2, [r3, #0]
 8002712:	4b11      	ldr	r3, [pc, #68]	@ (8002758 <setMotorSignedPwm+0x1b4>)
 8002714:	f04f 6280 	mov.w	r2, #67108864	@ 0x4000000
 8002718:	601a      	str	r2, [r3, #0]
            else if(rev) { GPIOB_BSRR = (1U << 18); GPIOB_BSRR = (1U << 10); }
            else         { GPIOB_BSRR = (1U << 18); GPIOB_BSRR = (1U << 26); }
            break;
 800271a:	e013      	b.n	8002744 <setMotorSignedPwm+0x1a0>
            else if(rev) { GPIOB_BSRR = (1U << 18); GPIOB_BSRR = (1U << 10); }
 800271c:	7abb      	ldrb	r3, [r7, #10]
 800271e:	2b00      	cmp	r3, #0
 8002720:	d008      	beq.n	8002734 <setMotorSignedPwm+0x190>
 8002722:	4b0d      	ldr	r3, [pc, #52]	@ (8002758 <setMotorSignedPwm+0x1b4>)
 8002724:	f44f 2280 	mov.w	r2, #262144	@ 0x40000
 8002728:	601a      	str	r2, [r3, #0]
 800272a:	4b0b      	ldr	r3, [pc, #44]	@ (8002758 <setMotorSignedPwm+0x1b4>)
 800272c:	f44f 6280 	mov.w	r2, #1024	@ 0x400
 8002730:	601a      	str	r2, [r3, #0]
            break;
 8002732:	e007      	b.n	8002744 <setMotorSignedPwm+0x1a0>
            else         { GPIOB_BSRR = (1U << 18); GPIOB_BSRR = (1U << 26); }
 8002734:	4b08      	ldr	r3, [pc, #32]	@ (8002758 <setMotorSignedPwm+0x1b4>)
 8002736:	f44f 2280 	mov.w	r2, #262144	@ 0x40000
 800273a:	601a      	str	r2, [r3, #0]
 800273c:	4b06      	ldr	r3, [pc, #24]	@ (8002758 <setMotorSignedPwm+0x1b4>)
 800273e:	f04f 6280 	mov.w	r2, #67108864	@ 0x4000000
 8002742:	601a      	str	r2, [r3, #0]
            break;
 8002744:	bf00      	nop
    }
}
 8002746:	bf00      	nop
 8002748:	3714      	adds	r7, #20
 800274a:	46bd      	mov	sp, r7
 800274c:	f85d 7b04 	ldr.w	r7, [sp], #4
 8002750:	4770      	bx	lr
 8002752:	bf00      	nop
 8002754:	40020818 	.word	0x40020818
 8002758:	40020418 	.word	0x40020418

0800275c <applyMotorPwm>:

void applyMotorPwm(float p0, float p1, float p2, float p3) {
 800275c:	b580      	push	{r7, lr}
 800275e:	b084      	sub	sp, #16
 8002760:	af00      	add	r7, sp, #0
 8002762:	ed87 0a03 	vstr	s0, [r7, #12]
 8002766:	edc7 0a02 	vstr	s1, [r7, #8]
 800276a:	ed87 1a01 	vstr	s2, [r7, #4]
 800276e:	edc7 1a00 	vstr	s3, [r7]
    setMotorSignedPwm(0, p0);
 8002772:	ed97 0a03 	vldr	s0, [r7, #12]
 8002776:	2000      	movs	r0, #0
 8002778:	f7ff ff14 	bl	80025a4 <setMotorSignedPwm>
    setMotorSignedPwm(1, p1);
 800277c:	ed97 0a02 	vldr	s0, [r7, #8]
 8002780:	2001      	movs	r0, #1
 8002782:	f7ff ff0f 	bl	80025a4 <setMotorSignedPwm>
    setMotorSignedPwm(2, p2);
 8002786:	ed97 0a01 	vldr	s0, [r7, #4]
 800278a:	2002      	movs	r0, #2
 800278c:	f7ff ff0a 	bl	80025a4 <setMotorSignedPwm>
    setMotorSignedPwm(3, p3);
 8002790:	ed97 0a00 	vldr	s0, [r7]
 8002794:	2003      	movs	r0, #3
 8002796:	f7ff ff05 	bl	80025a4 <setMotorSignedPwm>
}
 800279a:	bf00      	nop
 800279c:	3710      	adds	r7, #16
 800279e:	46bd      	mov	sp, r7
 80027a0:	bd80      	pop	{r7, pc}
	...

080027a4 <captureIMUYawOffset>:

void captureIMUYawOffset(void) {
 80027a4:	b480      	push	{r7}
 80027a6:	af00      	add	r7, sp, #0
    if (imu_has_yaw) {
 80027a8:	4b0d      	ldr	r3, [pc, #52]	@ (80027e0 <captureIMUYawOffset+0x3c>)
 80027aa:	781b      	ldrb	r3, [r3, #0]
 80027ac:	2b00      	cmp	r3, #0
 80027ae:	d008      	beq.n	80027c2 <captureIMUYawOffset+0x1e>
        imu_yaw_offset_rad = imu_yaw_raw_rad;
 80027b0:	4b0c      	ldr	r3, [pc, #48]	@ (80027e4 <captureIMUYawOffset+0x40>)
 80027b2:	681b      	ldr	r3, [r3, #0]
 80027b4:	4a0c      	ldr	r2, [pc, #48]	@ (80027e8 <captureIMUYawOffset+0x44>)
 80027b6:	6013      	str	r3, [r2, #0]
        imu_yaw_rad = 0.0f;
 80027b8:	4b0c      	ldr	r3, [pc, #48]	@ (80027ec <captureIMUYawOffset+0x48>)
 80027ba:	f04f 0200 	mov.w	r2, #0
 80027be:	601a      	str	r2, [r3, #0]
 80027c0:	e002      	b.n	80027c8 <captureIMUYawOffset+0x24>
    } else {
        imu_pending_offset = true;
 80027c2:	4b0b      	ldr	r3, [pc, #44]	@ (80027f0 <captureIMUYawOffset+0x4c>)
 80027c4:	2201      	movs	r2, #1
 80027c6:	701a      	strb	r2, [r3, #0]
    }
    headingLocked = false;
 80027c8:	4b0a      	ldr	r3, [pc, #40]	@ (80027f4 <captureIMUYawOffset+0x50>)
 80027ca:	2200      	movs	r2, #0
 80027cc:	701a      	strb	r2, [r3, #0]
    headingIntegral = 0.0f;
 80027ce:	4b0a      	ldr	r3, [pc, #40]	@ (80027f8 <captureIMUYawOffset+0x54>)
 80027d0:	f04f 0200 	mov.w	r2, #0
 80027d4:	601a      	str	r2, [r3, #0]
}
 80027d6:	bf00      	nop
 80027d8:	46bd      	mov	sp, r7
 80027da:	f85d 7b04 	ldr.w	r7, [sp], #4
 80027de:	4770      	bx	lr
 80027e0:	2000033d 	.word	0x2000033d
 80027e4:	20000340 	.word	0x20000340
 80027e8:	20000344 	.word	0x20000344
 80027ec:	20000348 	.word	0x20000348
 80027f0:	2000002c 	.word	0x2000002c
 80027f4:	2000036c 	.word	0x2000036c
 80027f8:	20000374 	.word	0x20000374

080027fc <hardStopAll>:

void hardStopAll(void) {
 80027fc:	b580      	push	{r7, lr}
 80027fe:	b082      	sub	sp, #8
 8002800:	af00      	add	r7, sp, #0
    applyMotorPwm(0.0f, 0.0f, 0.0f, 0.0f);
 8002802:	eddf 1a3a 	vldr	s3, [pc, #232]	@ 80028ec <hardStopAll+0xf0>
 8002806:	ed9f 1a39 	vldr	s2, [pc, #228]	@ 80028ec <hardStopAll+0xf0>
 800280a:	eddf 0a38 	vldr	s1, [pc, #224]	@ 80028ec <hardStopAll+0xf0>
 800280e:	ed9f 0a37 	vldr	s0, [pc, #220]	@ 80028ec <hardStopAll+0xf0>
 8002812:	f7ff ffa3 	bl	800275c <applyMotorPwm>
    __asm volatile("cpsid i");
 8002816:	b672      	cpsid	i
    for (int i = 0; i < 4; ++i) prev_enc_count[i] = enc_count[i];
 8002818:	2300      	movs	r3, #0
 800281a:	607b      	str	r3, [r7, #4]
 800281c:	e00a      	b.n	8002834 <hardStopAll+0x38>
 800281e:	4a34      	ldr	r2, [pc, #208]	@ (80028f0 <hardStopAll+0xf4>)
 8002820:	687b      	ldr	r3, [r7, #4]
 8002822:	f852 2023 	ldr.w	r2, [r2, r3, lsl #2]
 8002826:	4933      	ldr	r1, [pc, #204]	@ (80028f4 <hardStopAll+0xf8>)
 8002828:	687b      	ldr	r3, [r7, #4]
 800282a:	f841 2023 	str.w	r2, [r1, r3, lsl #2]
 800282e:	687b      	ldr	r3, [r7, #4]
 8002830:	3301      	adds	r3, #1
 8002832:	607b      	str	r3, [r7, #4]
 8002834:	687b      	ldr	r3, [r7, #4]
 8002836:	2b03      	cmp	r3, #3
 8002838:	ddf1      	ble.n	800281e <hardStopAll+0x22>
    __asm volatile("cpsie i");
 800283a:	b662      	cpsie	i

    vxTarget = 0.0f; vyTarget = 0.0f; wzTarget = 0.0f;
 800283c:	4b2e      	ldr	r3, [pc, #184]	@ (80028f8 <hardStopAll+0xfc>)
 800283e:	f04f 0200 	mov.w	r2, #0
 8002842:	601a      	str	r2, [r3, #0]
 8002844:	4b2d      	ldr	r3, [pc, #180]	@ (80028fc <hardStopAll+0x100>)
 8002846:	f04f 0200 	mov.w	r2, #0
 800284a:	601a      	str	r2, [r3, #0]
 800284c:	4b2c      	ldr	r3, [pc, #176]	@ (8002900 <hardStopAll+0x104>)
 800284e:	f04f 0200 	mov.w	r2, #0
 8002852:	601a      	str	r2, [r3, #0]
    vxCmd = 0.0f; vyCmd = 0.0f; wzCmd = 0.0f;
 8002854:	4b2b      	ldr	r3, [pc, #172]	@ (8002904 <hardStopAll+0x108>)
 8002856:	f04f 0200 	mov.w	r2, #0
 800285a:	601a      	str	r2, [r3, #0]
 800285c:	4b2a      	ldr	r3, [pc, #168]	@ (8002908 <hardStopAll+0x10c>)
 800285e:	f04f 0200 	mov.w	r2, #0
 8002862:	601a      	str	r2, [r3, #0]
 8002864:	4b29      	ldr	r3, [pc, #164]	@ (800290c <hardStopAll+0x110>)
 8002866:	f04f 0200 	mov.w	r2, #0
 800286a:	601a      	str	r2, [r3, #0]
    headingLocked = false;
 800286c:	4b28      	ldr	r3, [pc, #160]	@ (8002910 <hardStopAll+0x114>)
 800286e:	2200      	movs	r2, #0
 8002870:	701a      	strb	r2, [r3, #0]
    headingIntegral = 0.0f;
 8002872:	4b28      	ldr	r3, [pc, #160]	@ (8002914 <hardStopAll+0x118>)
 8002874:	f04f 0200 	mov.w	r2, #0
 8002878:	601a      	str	r2, [r3, #0]
    for (int i = 0; i < 4; ++i) {
 800287a:	2300      	movs	r3, #0
 800287c:	603b      	str	r3, [r7, #0]
 800287e:	e02c      	b.n	80028da <hardStopAll+0xde>
        targetRPM[i] = 0.0f; actualRPM[i] = 0.0f;
 8002880:	4a25      	ldr	r2, [pc, #148]	@ (8002918 <hardStopAll+0x11c>)
 8002882:	683b      	ldr	r3, [r7, #0]
 8002884:	009b      	lsls	r3, r3, #2
 8002886:	4413      	add	r3, r2
 8002888:	f04f 0200 	mov.w	r2, #0
 800288c:	601a      	str	r2, [r3, #0]
 800288e:	4a23      	ldr	r2, [pc, #140]	@ (800291c <hardStopAll+0x120>)
 8002890:	683b      	ldr	r3, [r7, #0]
 8002892:	009b      	lsls	r3, r3, #2
 8002894:	4413      	add	r3, r2
 8002896:	f04f 0200 	mov.w	r2, #0
 800289a:	601a      	str	r2, [r3, #0]
        actualRPMFilt[i] = 0.0f; wheelIntegralPwm[i] = 0.0f;
 800289c:	4a20      	ldr	r2, [pc, #128]	@ (8002920 <hardStopAll+0x124>)
 800289e:	683b      	ldr	r3, [r7, #0]
 80028a0:	009b      	lsls	r3, r3, #2
 80028a2:	4413      	add	r3, r2
 80028a4:	f04f 0200 	mov.w	r2, #0
 80028a8:	601a      	str	r2, [r3, #0]
 80028aa:	4a1e      	ldr	r2, [pc, #120]	@ (8002924 <hardStopAll+0x128>)
 80028ac:	683b      	ldr	r3, [r7, #0]
 80028ae:	009b      	lsls	r3, r3, #2
 80028b0:	4413      	add	r3, r2
 80028b2:	f04f 0200 	mov.w	r2, #0
 80028b6:	601a      	str	r2, [r3, #0]
        filtRef[i] = 0.0f; pwmOutput[i] = 0.0f;
 80028b8:	4a1b      	ldr	r2, [pc, #108]	@ (8002928 <hardStopAll+0x12c>)
 80028ba:	683b      	ldr	r3, [r7, #0]
 80028bc:	009b      	lsls	r3, r3, #2
 80028be:	4413      	add	r3, r2
 80028c0:	f04f 0200 	mov.w	r2, #0
 80028c4:	601a      	str	r2, [r3, #0]
 80028c6:	4a19      	ldr	r2, [pc, #100]	@ (800292c <hardStopAll+0x130>)
 80028c8:	683b      	ldr	r3, [r7, #0]
 80028ca:	009b      	lsls	r3, r3, #2
 80028cc:	4413      	add	r3, r2
 80028ce:	f04f 0200 	mov.w	r2, #0
 80028d2:	601a      	str	r2, [r3, #0]
    for (int i = 0; i < 4; ++i) {
 80028d4:	683b      	ldr	r3, [r7, #0]
 80028d6:	3301      	adds	r3, #1
 80028d8:	603b      	str	r3, [r7, #0]
 80028da:	683b      	ldr	r3, [r7, #0]
 80028dc:	2b03      	cmp	r3, #3
 80028de:	ddcf      	ble.n	8002880 <hardStopAll+0x84>
    }
}
 80028e0:	bf00      	nop
 80028e2:	bf00      	nop
 80028e4:	3708      	adds	r7, #8
 80028e6:	46bd      	mov	sp, r7
 80028e8:	bd80      	pop	{r7, pc}
 80028ea:	bf00      	nop
 80028ec:	00000000 	.word	0x00000000
 80028f0:	200002a4 	.word	0x200002a4
 80028f4:	200002b4 	.word	0x200002b4
 80028f8:	20000324 	.word	0x20000324
 80028fc:	20000328 	.word	0x20000328
 8002900:	2000032c 	.word	0x2000032c
 8002904:	20000330 	.word	0x20000330
 8002908:	20000334 	.word	0x20000334
 800290c:	20000338 	.word	0x20000338
 8002910:	2000036c 	.word	0x2000036c
 8002914:	20000374 	.word	0x20000374
 8002918:	200002c4 	.word	0x200002c4
 800291c:	200002d4 	.word	0x200002d4
 8002920:	200002e4 	.word	0x200002e4
 8002924:	200002f4 	.word	0x200002f4
 8002928:	20000304 	.word	0x20000304
 800292c:	20000314 	.word	0x20000314

08002930 <resetOdometry>:

void resetOdometry(void) {
 8002930:	b580      	push	{r7, lr}
 8002932:	b082      	sub	sp, #8
 8002934:	af00      	add	r7, sp, #0
    __asm volatile("cpsid i");
 8002936:	b672      	cpsid	i
    for (int i = 0; i < 4; ++i) { enc_count[i] = 0; prev_enc_count[i] = 0; }
 8002938:	2300      	movs	r3, #0
 800293a:	607b      	str	r3, [r7, #4]
 800293c:	e00c      	b.n	8002958 <resetOdometry+0x28>
 800293e:	4a17      	ldr	r2, [pc, #92]	@ (800299c <resetOdometry+0x6c>)
 8002940:	687b      	ldr	r3, [r7, #4]
 8002942:	2100      	movs	r1, #0
 8002944:	f842 1023 	str.w	r1, [r2, r3, lsl #2]
 8002948:	4a15      	ldr	r2, [pc, #84]	@ (80029a0 <resetOdometry+0x70>)
 800294a:	687b      	ldr	r3, [r7, #4]
 800294c:	2100      	movs	r1, #0
 800294e:	f842 1023 	str.w	r1, [r2, r3, lsl #2]
 8002952:	687b      	ldr	r3, [r7, #4]
 8002954:	3301      	adds	r3, #1
 8002956:	607b      	str	r3, [r7, #4]
 8002958:	687b      	ldr	r3, [r7, #4]
 800295a:	2b03      	cmp	r3, #3
 800295c:	ddef      	ble.n	800293e <resetOdometry+0xe>
    __asm volatile("cpsie i");
 800295e:	b662      	cpsie	i

    odom_x_m = 0.0f; odom_y_m = 0.0f; odom_theta_rad = 0.0f;
 8002960:	4b10      	ldr	r3, [pc, #64]	@ (80029a4 <resetOdometry+0x74>)
 8002962:	f04f 0200 	mov.w	r2, #0
 8002966:	601a      	str	r2, [r3, #0]
 8002968:	4b0f      	ldr	r3, [pc, #60]	@ (80029a8 <resetOdometry+0x78>)
 800296a:	f04f 0200 	mov.w	r2, #0
 800296e:	601a      	str	r2, [r3, #0]
 8002970:	4b0e      	ldr	r3, [pc, #56]	@ (80029ac <resetOdometry+0x7c>)
 8002972:	f04f 0200 	mov.w	r2, #0
 8002976:	601a      	str	r2, [r3, #0]
    robot_vx_mps = 0.0f; robot_vy_mps = 0.0f; robot_wz_rad_s = 0.0f;
 8002978:	4b0d      	ldr	r3, [pc, #52]	@ (80029b0 <resetOdometry+0x80>)
 800297a:	f04f 0200 	mov.w	r2, #0
 800297e:	601a      	str	r2, [r3, #0]
 8002980:	4b0c      	ldr	r3, [pc, #48]	@ (80029b4 <resetOdometry+0x84>)
 8002982:	f04f 0200 	mov.w	r2, #0
 8002986:	601a      	str	r2, [r3, #0]
 8002988:	4b0b      	ldr	r3, [pc, #44]	@ (80029b8 <resetOdometry+0x88>)
 800298a:	f04f 0200 	mov.w	r2, #0
 800298e:	601a      	str	r2, [r3, #0]
    captureIMUYawOffset();
 8002990:	f7ff ff08 	bl	80027a4 <captureIMUYawOffset>
}
 8002994:	bf00      	nop
 8002996:	3708      	adds	r7, #8
 8002998:	46bd      	mov	sp, r7
 800299a:	bd80      	pop	{r7, pc}
 800299c:	200002a4 	.word	0x200002a4
 80029a0:	200002b4 	.word	0x200002b4
 80029a4:	20000350 	.word	0x20000350
 80029a8:	20000354 	.word	0x20000354
 80029ac:	20000358 	.word	0x20000358
 80029b0:	2000035c 	.word	0x2000035c
 80029b4:	20000360 	.word	0x20000360
 80029b8:	20000364 	.word	0x20000364

080029bc <mecanumIK>:

// ==================== TOÁN HỌC ROBOT ====================
void mecanumIK(float vx, float vy, float omega) {
 80029bc:	b480      	push	{r7}
 80029be:	b08f      	sub	sp, #60	@ 0x3c
 80029c0:	af00      	add	r7, sp, #0
 80029c2:	ed87 0a03 	vstr	s0, [r7, #12]
 80029c6:	edc7 0a02 	vstr	s1, [r7, #8]
 80029ca:	ed87 1a01 	vstr	s2, [r7, #4]
    float v_fl =  vx - vy + ROTATION_RADIUS_M * omega;
 80029ce:	ed97 7a03 	vldr	s14, [r7, #12]
 80029d2:	edd7 7a02 	vldr	s15, [r7, #8]
 80029d6:	ee37 7a67 	vsub.f32	s14, s14, s15
 80029da:	4b62      	ldr	r3, [pc, #392]	@ (8002b64 <mecanumIK+0x1a8>)
 80029dc:	edd3 6a00 	vldr	s13, [r3]
 80029e0:	edd7 7a01 	vldr	s15, [r7, #4]
 80029e4:	ee66 7aa7 	vmul.f32	s15, s13, s15
 80029e8:	ee77 7a27 	vadd.f32	s15, s14, s15
 80029ec:	edc7 7a0a 	vstr	s15, [r7, #40]	@ 0x28
    float v_fr =  vx + vy - ROTATION_RADIUS_M * omega;
 80029f0:	ed97 7a03 	vldr	s14, [r7, #12]
 80029f4:	edd7 7a02 	vldr	s15, [r7, #8]
 80029f8:	ee37 7a27 	vadd.f32	s14, s14, s15
 80029fc:	4b59      	ldr	r3, [pc, #356]	@ (8002b64 <mecanumIK+0x1a8>)
 80029fe:	edd3 6a00 	vldr	s13, [r3]
 8002a02:	edd7 7a01 	vldr	s15, [r7, #4]
 8002a06:	ee66 7aa7 	vmul.f32	s15, s13, s15
 8002a0a:	ee77 7a67 	vsub.f32	s15, s14, s15
 8002a0e:	edc7 7a09 	vstr	s15, [r7, #36]	@ 0x24
    float v_bl = -vx - vy - ROTATION_RADIUS_M * omega;
 8002a12:	edd7 7a03 	vldr	s15, [r7, #12]
 8002a16:	eeb1 7a67 	vneg.f32	s14, s15
 8002a1a:	edd7 7a02 	vldr	s15, [r7, #8]
 8002a1e:	ee37 7a67 	vsub.f32	s14, s14, s15
 8002a22:	4b50      	ldr	r3, [pc, #320]	@ (8002b64 <mecanumIK+0x1a8>)
 8002a24:	edd3 6a00 	vldr	s13, [r3]
 8002a28:	edd7 7a01 	vldr	s15, [r7, #4]
 8002a2c:	ee66 7aa7 	vmul.f32	s15, s13, s15
 8002a30:	ee77 7a67 	vsub.f32	s15, s14, s15
 8002a34:	edc7 7a08 	vstr	s15, [r7, #32]
    float v_br = -vx + vy + ROTATION_RADIUS_M * omega;
 8002a38:	ed97 7a02 	vldr	s14, [r7, #8]
 8002a3c:	edd7 7a03 	vldr	s15, [r7, #12]
 8002a40:	ee37 7a67 	vsub.f32	s14, s14, s15
 8002a44:	4b47      	ldr	r3, [pc, #284]	@ (8002b64 <mecanumIK+0x1a8>)
 8002a46:	edd3 6a00 	vldr	s13, [r3]
 8002a4a:	edd7 7a01 	vldr	s15, [r7, #4]
 8002a4e:	ee66 7aa7 	vmul.f32	s15, s13, s15
 8002a52:	ee77 7a27 	vadd.f32	s15, s14, s15
 8002a56:	edc7 7a07 	vstr	s15, [r7, #28]

    float factor = 60.0f / WHEEL_CIRCUMFERENCE;
 8002a5a:	4b43      	ldr	r3, [pc, #268]	@ (8002b68 <mecanumIK+0x1ac>)
 8002a5c:	ed93 7a00 	vldr	s14, [r3]
 8002a60:	eddf 6a42 	vldr	s13, [pc, #264]	@ 8002b6c <mecanumIK+0x1b0>
 8002a64:	eec6 7a87 	vdiv.f32	s15, s13, s14
 8002a68:	edc7 7a06 	vstr	s15, [r7, #24]
    targetRPM[0] = v_fl * factor;
 8002a6c:	ed97 7a0a 	vldr	s14, [r7, #40]	@ 0x28
 8002a70:	edd7 7a06 	vldr	s15, [r7, #24]
 8002a74:	ee67 7a27 	vmul.f32	s15, s14, s15
 8002a78:	4b3d      	ldr	r3, [pc, #244]	@ (8002b70 <mecanumIK+0x1b4>)
 8002a7a:	edc3 7a00 	vstr	s15, [r3]
    targetRPM[1] = v_fr * factor;
 8002a7e:	ed97 7a09 	vldr	s14, [r7, #36]	@ 0x24
 8002a82:	edd7 7a06 	vldr	s15, [r7, #24]
 8002a86:	ee67 7a27 	vmul.f32	s15, s14, s15
 8002a8a:	4b39      	ldr	r3, [pc, #228]	@ (8002b70 <mecanumIK+0x1b4>)
 8002a8c:	edc3 7a01 	vstr	s15, [r3, #4]
    targetRPM[2] = v_bl * factor;
 8002a90:	ed97 7a08 	vldr	s14, [r7, #32]
 8002a94:	edd7 7a06 	vldr	s15, [r7, #24]
 8002a98:	ee67 7a27 	vmul.f32	s15, s14, s15
 8002a9c:	4b34      	ldr	r3, [pc, #208]	@ (8002b70 <mecanumIK+0x1b4>)
 8002a9e:	edc3 7a02 	vstr	s15, [r3, #8]
    targetRPM[3] = v_br * factor;
 8002aa2:	ed97 7a07 	vldr	s14, [r7, #28]
 8002aa6:	edd7 7a06 	vldr	s15, [r7, #24]
 8002aaa:	ee67 7a27 	vmul.f32	s15, s14, s15
 8002aae:	4b30      	ldr	r3, [pc, #192]	@ (8002b70 <mecanumIK+0x1b4>)
 8002ab0:	edc3 7a03 	vstr	s15, [r3, #12]

    float maxReq = 0;
 8002ab4:	f04f 0300 	mov.w	r3, #0
 8002ab8:	637b      	str	r3, [r7, #52]	@ 0x34
    for (int i = 0; i < 4; i++) {
 8002aba:	2300      	movs	r3, #0
 8002abc:	633b      	str	r3, [r7, #48]	@ 0x30
 8002abe:	e01b      	b.n	8002af8 <mecanumIK+0x13c>
        if (fabsf(targetRPM[i]) > maxReq) maxReq = fabsf(targetRPM[i]);
 8002ac0:	4a2b      	ldr	r2, [pc, #172]	@ (8002b70 <mecanumIK+0x1b4>)
 8002ac2:	6b3b      	ldr	r3, [r7, #48]	@ 0x30
 8002ac4:	009b      	lsls	r3, r3, #2
 8002ac6:	4413      	add	r3, r2
 8002ac8:	edd3 7a00 	vldr	s15, [r3]
 8002acc:	eef0 7ae7 	vabs.f32	s15, s15
 8002ad0:	ed97 7a0d 	vldr	s14, [r7, #52]	@ 0x34
 8002ad4:	eeb4 7ae7 	vcmpe.f32	s14, s15
 8002ad8:	eef1 fa10 	vmrs	APSR_nzcv, fpscr
 8002adc:	d509      	bpl.n	8002af2 <mecanumIK+0x136>
 8002ade:	4a24      	ldr	r2, [pc, #144]	@ (8002b70 <mecanumIK+0x1b4>)
 8002ae0:	6b3b      	ldr	r3, [r7, #48]	@ 0x30
 8002ae2:	009b      	lsls	r3, r3, #2
 8002ae4:	4413      	add	r3, r2
 8002ae6:	edd3 7a00 	vldr	s15, [r3]
 8002aea:	eef0 7ae7 	vabs.f32	s15, s15
 8002aee:	edc7 7a0d 	vstr	s15, [r7, #52]	@ 0x34
    for (int i = 0; i < 4; i++) {
 8002af2:	6b3b      	ldr	r3, [r7, #48]	@ 0x30
 8002af4:	3301      	adds	r3, #1
 8002af6:	633b      	str	r3, [r7, #48]	@ 0x30
 8002af8:	6b3b      	ldr	r3, [r7, #48]	@ 0x30
 8002afa:	2b03      	cmp	r3, #3
 8002afc:	dde0      	ble.n	8002ac0 <mecanumIK+0x104>
    }
    if (maxReq > RPM_MAX) {
 8002afe:	4b1d      	ldr	r3, [pc, #116]	@ (8002b74 <mecanumIK+0x1b8>)
 8002b00:	edd3 7a00 	vldr	s15, [r3]
 8002b04:	ed97 7a0d 	vldr	s14, [r7, #52]	@ 0x34
 8002b08:	eeb4 7ae7 	vcmpe.f32	s14, s15
 8002b0c:	eef1 fa10 	vmrs	APSR_nzcv, fpscr
 8002b10:	dc00      	bgt.n	8002b14 <mecanumIK+0x158>
        float scale = RPM_MAX / maxReq;
        for (int i = 0; i < 4; i++) targetRPM[i] *= scale;
    }
}
 8002b12:	e021      	b.n	8002b58 <mecanumIK+0x19c>
        float scale = RPM_MAX / maxReq;
 8002b14:	4b17      	ldr	r3, [pc, #92]	@ (8002b74 <mecanumIK+0x1b8>)
 8002b16:	edd3 6a00 	vldr	s13, [r3]
 8002b1a:	ed97 7a0d 	vldr	s14, [r7, #52]	@ 0x34
 8002b1e:	eec6 7a87 	vdiv.f32	s15, s13, s14
 8002b22:	edc7 7a05 	vstr	s15, [r7, #20]
        for (int i = 0; i < 4; i++) targetRPM[i] *= scale;
 8002b26:	2300      	movs	r3, #0
 8002b28:	62fb      	str	r3, [r7, #44]	@ 0x2c
 8002b2a:	e012      	b.n	8002b52 <mecanumIK+0x196>
 8002b2c:	4a10      	ldr	r2, [pc, #64]	@ (8002b70 <mecanumIK+0x1b4>)
 8002b2e:	6afb      	ldr	r3, [r7, #44]	@ 0x2c
 8002b30:	009b      	lsls	r3, r3, #2
 8002b32:	4413      	add	r3, r2
 8002b34:	ed93 7a00 	vldr	s14, [r3]
 8002b38:	edd7 7a05 	vldr	s15, [r7, #20]
 8002b3c:	ee67 7a27 	vmul.f32	s15, s14, s15
 8002b40:	4a0b      	ldr	r2, [pc, #44]	@ (8002b70 <mecanumIK+0x1b4>)
 8002b42:	6afb      	ldr	r3, [r7, #44]	@ 0x2c
 8002b44:	009b      	lsls	r3, r3, #2
 8002b46:	4413      	add	r3, r2
 8002b48:	edc3 7a00 	vstr	s15, [r3]
 8002b4c:	6afb      	ldr	r3, [r7, #44]	@ 0x2c
 8002b4e:	3301      	adds	r3, #1
 8002b50:	62fb      	str	r3, [r7, #44]	@ 0x2c
 8002b52:	6afb      	ldr	r3, [r7, #44]	@ 0x2c
 8002b54:	2b03      	cmp	r3, #3
 8002b56:	dde9      	ble.n	8002b2c <mecanumIK+0x170>
}
 8002b58:	bf00      	nop
 8002b5a:	373c      	adds	r7, #60	@ 0x3c
 8002b5c:	46bd      	mov	sp, r7
 8002b5e:	f85d 7b04 	ldr.w	r7, [sp], #4
 8002b62:	4770      	bx	lr
 8002b64:	2000001c 	.word	0x2000001c
 8002b68:	20000018 	.word	0x20000018
 8002b6c:	42700000 	.word	0x42700000
 8002b70:	200002c4 	.word	0x200002c4
 8002b74:	20000020 	.word	0x20000020

08002b78 <updateWheelController>:

float updateWheelController(float rpmRef, float rpmMeas, float *integralPwm, float *refFilt, float dt) {
 8002b78:	b580      	push	{r7, lr}
 8002b7a:	b08c      	sub	sp, #48	@ 0x30
 8002b7c:	af00      	add	r7, sp, #0
 8002b7e:	ed87 0a05 	vstr	s0, [r7, #20]
 8002b82:	edc7 0a04 	vstr	s1, [r7, #16]
 8002b86:	60f8      	str	r0, [r7, #12]
 8002b88:	60b9      	str	r1, [r7, #8]
 8002b8a:	ed87 1a01 	vstr	s2, [r7, #4]
    *refFilt += (rpmRef - *refFilt) * dt / TAU_P_FILT;
 8002b8e:	68bb      	ldr	r3, [r7, #8]
 8002b90:	ed93 7a00 	vldr	s14, [r3]
 8002b94:	68bb      	ldr	r3, [r7, #8]
 8002b96:	edd3 7a00 	vldr	s15, [r3]
 8002b9a:	edd7 6a05 	vldr	s13, [r7, #20]
 8002b9e:	ee76 6ae7 	vsub.f32	s13, s13, s15
 8002ba2:	edd7 7a01 	vldr	s15, [r7, #4]
 8002ba6:	ee66 6aa7 	vmul.f32	s13, s13, s15
 8002baa:	ed9f 6a95 	vldr	s12, [pc, #596]	@ 8002e00 <updateWheelController+0x288>
 8002bae:	eec6 7a86 	vdiv.f32	s15, s13, s12
 8002bb2:	ee77 7a27 	vadd.f32	s15, s14, s15
 8002bb6:	68bb      	ldr	r3, [r7, #8]
 8002bb8:	edc3 7a00 	vstr	s15, [r3]
    *refFilt = fminf(fmaxf(*refFilt, -RPM_MAX), RPM_MAX);
 8002bbc:	68bb      	ldr	r3, [r7, #8]
 8002bbe:	ed93 7a00 	vldr	s14, [r3]
 8002bc2:	4b90      	ldr	r3, [pc, #576]	@ (8002e04 <updateWheelController+0x28c>)
 8002bc4:	edd3 7a00 	vldr	s15, [r3]
 8002bc8:	eef1 7a67 	vneg.f32	s15, s15
 8002bcc:	eef0 0a67 	vmov.f32	s1, s15
 8002bd0:	eeb0 0a47 	vmov.f32	s0, s14
 8002bd4:	f001 fd14 	bl	8004600 <fmaxf>
 8002bd8:	eeb0 7a40 	vmov.f32	s14, s0
 8002bdc:	4b89      	ldr	r3, [pc, #548]	@ (8002e04 <updateWheelController+0x28c>)
 8002bde:	edd3 7a00 	vldr	s15, [r3]
 8002be2:	eef0 0a67 	vmov.f32	s1, s15
 8002be6:	eeb0 0a47 	vmov.f32	s0, s14
 8002bea:	f001 fd31 	bl	8004650 <fminf>
 8002bee:	eef0 7a40 	vmov.f32	s15, s0
 8002bf2:	68bb      	ldr	r3, [r7, #8]
 8002bf4:	edc3 7a00 	vstr	s15, [r3]

    if (fabsf(*refFilt) < WHEEL_REF_ZERO_RPM && fabsf(rpmMeas) < WHEEL_MEAS_ZERO_RPM) {
 8002bf8:	68bb      	ldr	r3, [r7, #8]
 8002bfa:	edd3 7a00 	vldr	s15, [r3]
 8002bfe:	eef0 7ae7 	vabs.f32	s15, s15
 8002c02:	eeb2 7a08 	vmov.f32	s14, #40	@ 0x41400000  12.0
 8002c06:	eef4 7ac7 	vcmpe.f32	s15, s14
 8002c0a:	eef1 fa10 	vmrs	APSR_nzcv, fpscr
 8002c0e:	d515      	bpl.n	8002c3c <updateWheelController+0xc4>
 8002c10:	edd7 7a04 	vldr	s15, [r7, #16]
 8002c14:	eef0 7ae7 	vabs.f32	s15, s15
 8002c18:	eeb2 7a04 	vmov.f32	s14, #36	@ 0x41200000  10.0
 8002c1c:	eef4 7ac7 	vcmpe.f32	s15, s14
 8002c20:	eef1 fa10 	vmrs	APSR_nzcv, fpscr
 8002c24:	d50a      	bpl.n	8002c3c <updateWheelController+0xc4>
        *integralPwm = 0.0f;
 8002c26:	68fb      	ldr	r3, [r7, #12]
 8002c28:	f04f 0200 	mov.w	r2, #0
 8002c2c:	601a      	str	r2, [r3, #0]
        *refFilt = 0.0f;
 8002c2e:	68bb      	ldr	r3, [r7, #8]
 8002c30:	f04f 0200 	mov.w	r2, #0
 8002c34:	601a      	str	r2, [r3, #0]
        return 0.0f;
 8002c36:	eddf 7a74 	vldr	s15, [pc, #464]	@ 8002e08 <updateWheelController+0x290>
 8002c3a:	e0dc      	b.n	8002df6 <updateWheelController+0x27e>
    }

    float err = *refFilt - rpmMeas;
 8002c3c:	68bb      	ldr	r3, [r7, #8]
 8002c3e:	ed93 7a00 	vldr	s14, [r3]
 8002c42:	edd7 7a04 	vldr	s15, [r7, #16]
 8002c46:	ee77 7a67 	vsub.f32	s15, s14, s15
 8002c4a:	edc7 7a0a 	vstr	s15, [r7, #40]	@ 0x28
    float uFF = WHEEL_KV_PWM_PER_RPM * (*refFilt);
 8002c4e:	68bb      	ldr	r3, [r7, #8]
 8002c50:	ed93 7a00 	vldr	s14, [r3]
 8002c54:	4b6d      	ldr	r3, [pc, #436]	@ (8002e0c <updateWheelController+0x294>)
 8002c56:	edd3 7a00 	vldr	s15, [r3]
 8002c5a:	ee67 7a27 	vmul.f32	s15, s14, s15
 8002c5e:	edc7 7a0b 	vstr	s15, [r7, #44]	@ 0x2c
    if (fabsf(*refFilt) > WHEEL_REF_ZERO_RPM) {
 8002c62:	68bb      	ldr	r3, [r7, #8]
 8002c64:	edd3 7a00 	vldr	s15, [r3]
 8002c68:	eef0 7ae7 	vabs.f32	s15, s15
 8002c6c:	eeb2 7a08 	vmov.f32	s14, #40	@ 0x41400000  12.0
 8002c70:	eef4 7ac7 	vcmpe.f32	s15, s14
 8002c74:	eef1 fa10 	vmrs	APSR_nzcv, fpscr
 8002c78:	dd13      	ble.n	8002ca2 <updateWheelController+0x12a>
        uFF += signNonZero(*refFilt) * WHEEL_KS_PWM;
 8002c7a:	68bb      	ldr	r3, [r7, #8]
 8002c7c:	edd3 7a00 	vldr	s15, [r3]
 8002c80:	eeb0 0a67 	vmov.f32	s0, s15
 8002c84:	f7ff fa24 	bl	80020d0 <signNonZero>
 8002c88:	eeb0 7a40 	vmov.f32	s14, s0
 8002c8c:	4b60      	ldr	r3, [pc, #384]	@ (8002e10 <updateWheelController+0x298>)
 8002c8e:	edd3 7a00 	vldr	s15, [r3]
 8002c92:	ee67 7a27 	vmul.f32	s15, s14, s15
 8002c96:	ed97 7a0b 	vldr	s14, [r7, #44]	@ 0x2c
 8002c9a:	ee77 7a27 	vadd.f32	s15, s14, s15
 8002c9e:	edc7 7a0b 	vstr	s15, [r7, #44]	@ 0x2c
    }

    float p = WHEEL_KP_PWM_PER_RPM * err;
 8002ca2:	ed9f 7a5c 	vldr	s14, [pc, #368]	@ 8002e14 <updateWheelController+0x29c>
 8002ca6:	edd7 7a0a 	vldr	s15, [r7, #40]	@ 0x28
 8002caa:	ee67 7a87 	vmul.f32	s15, s15, s14
 8002cae:	edc7 7a09 	vstr	s15, [r7, #36]	@ 0x24
    float uPre = uFF + p + *integralPwm;
 8002cb2:	ed97 7a0b 	vldr	s14, [r7, #44]	@ 0x2c
 8002cb6:	edd7 7a09 	vldr	s15, [r7, #36]	@ 0x24
 8002cba:	ee37 7a27 	vadd.f32	s14, s14, s15
 8002cbe:	68fb      	ldr	r3, [r7, #12]
 8002cc0:	edd3 7a00 	vldr	s15, [r3]
 8002cc4:	ee77 7a27 	vadd.f32	s15, s14, s15
 8002cc8:	edc7 7a08 	vstr	s15, [r7, #32]
    float uSat = fminf(fmaxf(uPre, -255.0f), 255.0f);
 8002ccc:	eddf 0a52 	vldr	s1, [pc, #328]	@ 8002e18 <updateWheelController+0x2a0>
 8002cd0:	ed97 0a08 	vldr	s0, [r7, #32]
 8002cd4:	f001 fc94 	bl	8004600 <fmaxf>
 8002cd8:	eef0 7a40 	vmov.f32	s15, s0
 8002cdc:	eddf 0a4f 	vldr	s1, [pc, #316]	@ 8002e1c <updateWheelController+0x2a4>
 8002ce0:	eeb0 0a67 	vmov.f32	s0, s15
 8002ce4:	f001 fcb4 	bl	8004650 <fminf>
 8002ce8:	ed87 0a07 	vstr	s0, [r7, #28]

    bool allowIntegrate = (fabsf(uPre - uSat) < 0.5f) ||
 8002cec:	ed97 7a08 	vldr	s14, [r7, #32]
 8002cf0:	edd7 7a07 	vldr	s15, [r7, #28]
 8002cf4:	ee77 7a67 	vsub.f32	s15, s14, s15
 8002cf8:	eef0 7ae7 	vabs.f32	s15, s15
                          ((uPre > uSat) && (err < 0.0f)) ||
 8002cfc:	eeb6 7a00 	vmov.f32	s14, #96	@ 0x3f000000  0.5
 8002d00:	eef4 7ac7 	vcmpe.f32	s15, s14
 8002d04:	eef1 fa10 	vmrs	APSR_nzcv, fpscr
 8002d08:	d41f      	bmi.n	8002d4a <updateWheelController+0x1d2>
    bool allowIntegrate = (fabsf(uPre - uSat) < 0.5f) ||
 8002d0a:	ed97 7a08 	vldr	s14, [r7, #32]
 8002d0e:	edd7 7a07 	vldr	s15, [r7, #28]
 8002d12:	eeb4 7ae7 	vcmpe.f32	s14, s15
 8002d16:	eef1 fa10 	vmrs	APSR_nzcv, fpscr
 8002d1a:	dd06      	ble.n	8002d2a <updateWheelController+0x1b2>
                          ((uPre > uSat) && (err < 0.0f)) ||
 8002d1c:	edd7 7a0a 	vldr	s15, [r7, #40]	@ 0x28
 8002d20:	eef5 7ac0 	vcmpe.f32	s15, #0.0
 8002d24:	eef1 fa10 	vmrs	APSR_nzcv, fpscr
 8002d28:	d40f      	bmi.n	8002d4a <updateWheelController+0x1d2>
 8002d2a:	ed97 7a08 	vldr	s14, [r7, #32]
 8002d2e:	edd7 7a07 	vldr	s15, [r7, #28]
 8002d32:	eeb4 7ae7 	vcmpe.f32	s14, s15
 8002d36:	eef1 fa10 	vmrs	APSR_nzcv, fpscr
 8002d3a:	d508      	bpl.n	8002d4e <updateWheelController+0x1d6>
                          ((uPre < uSat) && (err > 0.0f));
 8002d3c:	edd7 7a0a 	vldr	s15, [r7, #40]	@ 0x28
 8002d40:	eef5 7ac0 	vcmpe.f32	s15, #0.0
 8002d44:	eef1 fa10 	vmrs	APSR_nzcv, fpscr
 8002d48:	dd01      	ble.n	8002d4e <updateWheelController+0x1d6>
                          ((uPre > uSat) && (err < 0.0f)) ||
 8002d4a:	2301      	movs	r3, #1
 8002d4c:	e000      	b.n	8002d50 <updateWheelController+0x1d8>
 8002d4e:	2300      	movs	r3, #0
    bool allowIntegrate = (fabsf(uPre - uSat) < 0.5f) ||
 8002d50:	76fb      	strb	r3, [r7, #27]
 8002d52:	7efb      	ldrb	r3, [r7, #27]
 8002d54:	f003 0301 	and.w	r3, r3, #1
 8002d58:	76fb      	strb	r3, [r7, #27]

    if (allowIntegrate) {
 8002d5a:	7efb      	ldrb	r3, [r7, #27]
 8002d5c:	2b00      	cmp	r3, #0
 8002d5e:	d02d      	beq.n	8002dbc <updateWheelController+0x244>
        *integralPwm += WHEEL_KI_PWM_PER_RPM_S * err * dt;
 8002d60:	68fb      	ldr	r3, [r7, #12]
 8002d62:	ed93 7a00 	vldr	s14, [r3]
 8002d66:	eef6 6a08 	vmov.f32	s13, #104	@ 0x3f400000  0.750
 8002d6a:	edd7 7a0a 	vldr	s15, [r7, #40]	@ 0x28
 8002d6e:	ee66 6aa7 	vmul.f32	s13, s13, s15
 8002d72:	edd7 7a01 	vldr	s15, [r7, #4]
 8002d76:	ee66 7aa7 	vmul.f32	s15, s13, s15
 8002d7a:	ee77 7a27 	vadd.f32	s15, s14, s15
 8002d7e:	68fb      	ldr	r3, [r7, #12]
 8002d80:	edc3 7a00 	vstr	s15, [r3]
        *integralPwm = fminf(fmaxf(*integralPwm, -WHEEL_I_LIMIT_PWM), WHEEL_I_LIMIT_PWM);
 8002d84:	68fb      	ldr	r3, [r7, #12]
 8002d86:	edd3 7a00 	vldr	s15, [r3]
 8002d8a:	ed9f 7a25 	vldr	s14, [pc, #148]	@ 8002e20 <updateWheelController+0x2a8>
 8002d8e:	eeb1 7a47 	vneg.f32	s14, s14
 8002d92:	eef0 0a47 	vmov.f32	s1, s14
 8002d96:	eeb0 0a67 	vmov.f32	s0, s15
 8002d9a:	f001 fc31 	bl	8004600 <fmaxf>
 8002d9e:	eef0 7a40 	vmov.f32	s15, s0
 8002da2:	ed9f 7a1f 	vldr	s14, [pc, #124]	@ 8002e20 <updateWheelController+0x2a8>
 8002da6:	eef0 0a47 	vmov.f32	s1, s14
 8002daa:	eeb0 0a67 	vmov.f32	s0, s15
 8002dae:	f001 fc4f 	bl	8004650 <fminf>
 8002db2:	eef0 7a40 	vmov.f32	s15, s0
 8002db6:	68fb      	ldr	r3, [r7, #12]
 8002db8:	edc3 7a00 	vstr	s15, [r3]
    }

    uPre = uFF + p + *integralPwm;
 8002dbc:	ed97 7a0b 	vldr	s14, [r7, #44]	@ 0x2c
 8002dc0:	edd7 7a09 	vldr	s15, [r7, #36]	@ 0x24
 8002dc4:	ee37 7a27 	vadd.f32	s14, s14, s15
 8002dc8:	68fb      	ldr	r3, [r7, #12]
 8002dca:	edd3 7a00 	vldr	s15, [r3]
 8002dce:	ee77 7a27 	vadd.f32	s15, s14, s15
 8002dd2:	edc7 7a08 	vstr	s15, [r7, #32]
    return fminf(fmaxf(uPre, -255.0f), 255.0f);
 8002dd6:	eddf 0a10 	vldr	s1, [pc, #64]	@ 8002e18 <updateWheelController+0x2a0>
 8002dda:	ed97 0a08 	vldr	s0, [r7, #32]
 8002dde:	f001 fc0f 	bl	8004600 <fmaxf>
 8002de2:	eef0 7a40 	vmov.f32	s15, s0
 8002de6:	eddf 0a0d 	vldr	s1, [pc, #52]	@ 8002e1c <updateWheelController+0x2a4>
 8002dea:	eeb0 0a67 	vmov.f32	s0, s15
 8002dee:	f001 fc2f 	bl	8004650 <fminf>
 8002df2:	eef0 7a40 	vmov.f32	s15, s0
}
 8002df6:	eeb0 0a67 	vmov.f32	s0, s15
 8002dfa:	3730      	adds	r7, #48	@ 0x30
 8002dfc:	46bd      	mov	sp, r7
 8002dfe:	bd80      	pop	{r7, pc}
 8002e00:	3c23d70a 	.word	0x3c23d70a
 8002e04:	20000020 	.word	0x20000020
 8002e08:	00000000 	.word	0x00000000
 8002e0c:	20000024 	.word	0x20000024
 8002e10:	20000028 	.word	0x20000028
 8002e14:	3e4ccccd 	.word	0x3e4ccccd
 8002e18:	c37f0000 	.word	0xc37f0000
 8002e1c:	437f0000 	.word	0x437f0000
 8002e20:	42dc0000 	.word	0x42dc0000

08002e24 <updateOdometry>:

void updateOdometry(float dt) {
 8002e24:	b580      	push	{r7, lr}
 8002e26:	b08c      	sub	sp, #48	@ 0x30
 8002e28:	af00      	add	r7, sp, #0
 8002e2a:	ed87 0a01 	vstr	s0, [r7, #4]
    float v_fl = rpmToWheelMps(actualRPMFilt[0]);
 8002e2e:	4b70      	ldr	r3, [pc, #448]	@ (8002ff0 <updateOdometry+0x1cc>)
 8002e30:	edd3 7a00 	vldr	s15, [r3]
 8002e34:	eeb0 0a67 	vmov.f32	s0, s15
 8002e38:	f7ff f9be 	bl	80021b8 <rpmToWheelMps>
 8002e3c:	ed87 0a0b 	vstr	s0, [r7, #44]	@ 0x2c
    float v_fr = rpmToWheelMps(actualRPMFilt[1]);
 8002e40:	4b6b      	ldr	r3, [pc, #428]	@ (8002ff0 <updateOdometry+0x1cc>)
 8002e42:	edd3 7a01 	vldr	s15, [r3, #4]
 8002e46:	eeb0 0a67 	vmov.f32	s0, s15
 8002e4a:	f7ff f9b5 	bl	80021b8 <rpmToWheelMps>
 8002e4e:	ed87 0a0a 	vstr	s0, [r7, #40]	@ 0x28
    float v_bl = rpmToWheelMps(actualRPMFilt[2]);
 8002e52:	4b67      	ldr	r3, [pc, #412]	@ (8002ff0 <updateOdometry+0x1cc>)
 8002e54:	edd3 7a02 	vldr	s15, [r3, #8]
 8002e58:	eeb0 0a67 	vmov.f32	s0, s15
 8002e5c:	f7ff f9ac 	bl	80021b8 <rpmToWheelMps>
 8002e60:	ed87 0a09 	vstr	s0, [r7, #36]	@ 0x24
    float v_br = rpmToWheelMps(actualRPMFilt[3]);
 8002e64:	4b62      	ldr	r3, [pc, #392]	@ (8002ff0 <updateOdometry+0x1cc>)
 8002e66:	edd3 7a03 	vldr	s15, [r3, #12]
 8002e6a:	eeb0 0a67 	vmov.f32	s0, s15
 8002e6e:	f7ff f9a3 	bl	80021b8 <rpmToWheelMps>
 8002e72:	ed87 0a08 	vstr	s0, [r7, #32]

    float vx_local = ( v_fl + v_fr - v_bl - v_br) * 0.25f;
 8002e76:	ed97 7a0b 	vldr	s14, [r7, #44]	@ 0x2c
 8002e7a:	edd7 7a0a 	vldr	s15, [r7, #40]	@ 0x28
 8002e7e:	ee37 7a27 	vadd.f32	s14, s14, s15
 8002e82:	edd7 7a09 	vldr	s15, [r7, #36]	@ 0x24
 8002e86:	ee37 7a67 	vsub.f32	s14, s14, s15
 8002e8a:	edd7 7a08 	vldr	s15, [r7, #32]
 8002e8e:	ee77 7a67 	vsub.f32	s15, s14, s15
 8002e92:	eeb5 7a00 	vmov.f32	s14, #80	@ 0x3e800000  0.250
 8002e96:	ee67 7a87 	vmul.f32	s15, s15, s14
 8002e9a:	edc7 7a07 	vstr	s15, [r7, #28]
    float vy_local = (-v_fl + v_fr - v_bl + v_br) * 0.25f;
 8002e9e:	ed97 7a0a 	vldr	s14, [r7, #40]	@ 0x28
 8002ea2:	edd7 7a0b 	vldr	s15, [r7, #44]	@ 0x2c
 8002ea6:	ee37 7a67 	vsub.f32	s14, s14, s15
 8002eaa:	edd7 7a09 	vldr	s15, [r7, #36]	@ 0x24
 8002eae:	ee37 7a67 	vsub.f32	s14, s14, s15
 8002eb2:	edd7 7a08 	vldr	s15, [r7, #32]
 8002eb6:	ee77 7a27 	vadd.f32	s15, s14, s15
 8002eba:	eeb5 7a00 	vmov.f32	s14, #80	@ 0x3e800000  0.250
 8002ebe:	ee67 7a87 	vmul.f32	s15, s15, s14
 8002ec2:	edc7 7a06 	vstr	s15, [r7, #24]
    float wz_encoder = ( v_fl - v_fr - v_bl + v_br) / (4.0f * ROTATION_RADIUS_M);
 8002ec6:	ed97 7a0b 	vldr	s14, [r7, #44]	@ 0x2c
 8002eca:	edd7 7a0a 	vldr	s15, [r7, #40]	@ 0x28
 8002ece:	ee37 7a67 	vsub.f32	s14, s14, s15
 8002ed2:	edd7 7a09 	vldr	s15, [r7, #36]	@ 0x24
 8002ed6:	ee37 7a67 	vsub.f32	s14, s14, s15
 8002eda:	edd7 7a08 	vldr	s15, [r7, #32]
 8002ede:	ee77 6a27 	vadd.f32	s13, s14, s15
 8002ee2:	4b44      	ldr	r3, [pc, #272]	@ (8002ff4 <updateOdometry+0x1d0>)
 8002ee4:	edd3 7a00 	vldr	s15, [r3]
 8002ee8:	eeb1 7a00 	vmov.f32	s14, #16	@ 0x40800000  4.0
 8002eec:	ee27 7a87 	vmul.f32	s14, s15, s14
 8002ef0:	eec6 7a87 	vdiv.f32	s15, s13, s14
 8002ef4:	edc7 7a05 	vstr	s15, [r7, #20]
    float wz = imu_has_gyro ? imu_wz_rad_s : wz_encoder;
 8002ef8:	4b3f      	ldr	r3, [pc, #252]	@ (8002ff8 <updateOdometry+0x1d4>)
 8002efa:	781b      	ldrb	r3, [r3, #0]
 8002efc:	2b00      	cmp	r3, #0
 8002efe:	d002      	beq.n	8002f06 <updateOdometry+0xe2>
 8002f00:	4b3e      	ldr	r3, [pc, #248]	@ (8002ffc <updateOdometry+0x1d8>)
 8002f02:	681b      	ldr	r3, [r3, #0]
 8002f04:	e000      	b.n	8002f08 <updateOdometry+0xe4>
 8002f06:	697b      	ldr	r3, [r7, #20]
 8002f08:	613b      	str	r3, [r7, #16]

    if (imu_has_yaw) {
 8002f0a:	4b3d      	ldr	r3, [pc, #244]	@ (8003000 <updateOdometry+0x1dc>)
 8002f0c:	781b      	ldrb	r3, [r3, #0]
 8002f0e:	2b00      	cmp	r3, #0
 8002f10:	d004      	beq.n	8002f1c <updateOdometry+0xf8>
        odom_theta_rad = imu_yaw_rad;
 8002f12:	4b3c      	ldr	r3, [pc, #240]	@ (8003004 <updateOdometry+0x1e0>)
 8002f14:	681b      	ldr	r3, [r3, #0]
 8002f16:	4a3c      	ldr	r2, [pc, #240]	@ (8003008 <updateOdometry+0x1e4>)
 8002f18:	6013      	str	r3, [r2, #0]
 8002f1a:	e013      	b.n	8002f44 <updateOdometry+0x120>
    } else {
        odom_theta_rad = wrapAngle(odom_theta_rad + wz * dt);
 8002f1c:	ed97 7a04 	vldr	s14, [r7, #16]
 8002f20:	edd7 7a01 	vldr	s15, [r7, #4]
 8002f24:	ee27 7a27 	vmul.f32	s14, s14, s15
 8002f28:	4b37      	ldr	r3, [pc, #220]	@ (8003008 <updateOdometry+0x1e4>)
 8002f2a:	edd3 7a00 	vldr	s15, [r3]
 8002f2e:	ee77 7a27 	vadd.f32	s15, s14, s15
 8002f32:	eeb0 0a67 	vmov.f32	s0, s15
 8002f36:	f7ff f891 	bl	800205c <wrapAngle>
 8002f3a:	eef0 7a40 	vmov.f32	s15, s0
 8002f3e:	4b32      	ldr	r3, [pc, #200]	@ (8003008 <updateOdometry+0x1e4>)
 8002f40:	edc3 7a00 	vstr	s15, [r3]
    }

    float cos_th = cosf(odom_theta_rad);
 8002f44:	4b30      	ldr	r3, [pc, #192]	@ (8003008 <updateOdometry+0x1e4>)
 8002f46:	edd3 7a00 	vldr	s15, [r3]
 8002f4a:	eeb0 0a67 	vmov.f32	s0, s15
 8002f4e:	f001 fad7 	bl	8004500 <cosf>
 8002f52:	ed87 0a03 	vstr	s0, [r7, #12]
    float sin_th = sinf(odom_theta_rad);
 8002f56:	4b2c      	ldr	r3, [pc, #176]	@ (8003008 <updateOdometry+0x1e4>)
 8002f58:	edd3 7a00 	vldr	s15, [r3]
 8002f5c:	eeb0 0a67 	vmov.f32	s0, s15
 8002f60:	f001 fb0e 	bl	8004580 <sinf>
 8002f64:	ed87 0a02 	vstr	s0, [r7, #8]

    odom_x_m += (vx_local * cos_th - vy_local * sin_th) * dt;
 8002f68:	ed97 7a07 	vldr	s14, [r7, #28]
 8002f6c:	edd7 7a03 	vldr	s15, [r7, #12]
 8002f70:	ee27 7a27 	vmul.f32	s14, s14, s15
 8002f74:	edd7 6a06 	vldr	s13, [r7, #24]
 8002f78:	edd7 7a02 	vldr	s15, [r7, #8]
 8002f7c:	ee66 7aa7 	vmul.f32	s15, s13, s15
 8002f80:	ee37 7a67 	vsub.f32	s14, s14, s15
 8002f84:	edd7 7a01 	vldr	s15, [r7, #4]
 8002f88:	ee27 7a27 	vmul.f32	s14, s14, s15
 8002f8c:	4b1f      	ldr	r3, [pc, #124]	@ (800300c <updateOdometry+0x1e8>)
 8002f8e:	edd3 7a00 	vldr	s15, [r3]
 8002f92:	ee77 7a27 	vadd.f32	s15, s14, s15
 8002f96:	4b1d      	ldr	r3, [pc, #116]	@ (800300c <updateOdometry+0x1e8>)
 8002f98:	edc3 7a00 	vstr	s15, [r3]
    odom_y_m += (vx_local * sin_th + vy_local * cos_th) * dt;
 8002f9c:	ed97 7a07 	vldr	s14, [r7, #28]
 8002fa0:	edd7 7a02 	vldr	s15, [r7, #8]
 8002fa4:	ee27 7a27 	vmul.f32	s14, s14, s15
 8002fa8:	edd7 6a06 	vldr	s13, [r7, #24]
 8002fac:	edd7 7a03 	vldr	s15, [r7, #12]
 8002fb0:	ee66 7aa7 	vmul.f32	s15, s13, s15
 8002fb4:	ee37 7a27 	vadd.f32	s14, s14, s15
 8002fb8:	edd7 7a01 	vldr	s15, [r7, #4]
 8002fbc:	ee27 7a27 	vmul.f32	s14, s14, s15
 8002fc0:	4b13      	ldr	r3, [pc, #76]	@ (8003010 <updateOdometry+0x1ec>)
 8002fc2:	edd3 7a00 	vldr	s15, [r3]
 8002fc6:	ee77 7a27 	vadd.f32	s15, s14, s15
 8002fca:	4b11      	ldr	r3, [pc, #68]	@ (8003010 <updateOdometry+0x1ec>)
 8002fcc:	edc3 7a00 	vstr	s15, [r3]
    robot_vx_mps = vx_local;
 8002fd0:	4a10      	ldr	r2, [pc, #64]	@ (8003014 <updateOdometry+0x1f0>)
 8002fd2:	69fb      	ldr	r3, [r7, #28]
 8002fd4:	6013      	str	r3, [r2, #0]
    robot_vy_mps = vy_local;
 8002fd6:	4a10      	ldr	r2, [pc, #64]	@ (8003018 <updateOdometry+0x1f4>)
 8002fd8:	69bb      	ldr	r3, [r7, #24]
 8002fda:	6013      	str	r3, [r2, #0]
    robot_wz_rad_s = wz;
 8002fdc:	4a0f      	ldr	r2, [pc, #60]	@ (800301c <updateOdometry+0x1f8>)
 8002fde:	693b      	ldr	r3, [r7, #16]
 8002fe0:	6013      	str	r3, [r2, #0]
    robot_wz_enc_rad_s = wz_encoder;
 8002fe2:	4a0f      	ldr	r2, [pc, #60]	@ (8003020 <updateOdometry+0x1fc>)
 8002fe4:	697b      	ldr	r3, [r7, #20]
 8002fe6:	6013      	str	r3, [r2, #0]
}
 8002fe8:	bf00      	nop
 8002fea:	3730      	adds	r7, #48	@ 0x30
 8002fec:	46bd      	mov	sp, r7
 8002fee:	bd80      	pop	{r7, pc}
 8002ff0:	200002e4 	.word	0x200002e4
 8002ff4:	2000001c 	.word	0x2000001c
 8002ff8:	2000033e 	.word	0x2000033e
 8002ffc:	2000034c 	.word	0x2000034c
 8003000:	2000033d 	.word	0x2000033d
 8003004:	20000348 	.word	0x20000348
 8003008:	20000358 	.word	0x20000358
 800300c:	20000350 	.word	0x20000350
 8003010:	20000354 	.word	0x20000354
 8003014:	2000035c 	.word	0x2000035c
 8003018:	20000360 	.word	0x20000360
 800301c:	20000364 	.word	0x20000364
 8003020:	20000368 	.word	0x20000368

08003024 <applyHeadingControl>:

float applyHeadingControl(float vxCmdLocal, float vyCmdLocal, float wzCmdLocal, float dt) {
 8003024:	b580      	push	{r7, lr}
 8003026:	b088      	sub	sp, #32
 8003028:	af00      	add	r7, sp, #0
 800302a:	ed87 0a03 	vstr	s0, [r7, #12]
 800302e:	edc7 0a02 	vstr	s1, [r7, #8]
 8003032:	ed87 1a01 	vstr	s2, [r7, #4]
 8003036:	edc7 1a00 	vstr	s3, [r7]
    if (externalHeadingControl) {
 800303a:	4b7b      	ldr	r3, [pc, #492]	@ (8003228 <applyHeadingControl+0x204>)
 800303c:	781b      	ldrb	r3, [r3, #0]
 800303e:	2b00      	cmp	r3, #0
 8003040:	d00f      	beq.n	8003062 <applyHeadingControl+0x3e>
        headingLocked = false;
 8003042:	4b7a      	ldr	r3, [pc, #488]	@ (800322c <applyHeadingControl+0x208>)
 8003044:	2200      	movs	r2, #0
 8003046:	701a      	strb	r2, [r3, #0]
        headingIntegral = 0.0f;
 8003048:	4b79      	ldr	r3, [pc, #484]	@ (8003230 <applyHeadingControl+0x20c>)
 800304a:	f04f 0200 	mov.w	r2, #0
 800304e:	601a      	str	r2, [r3, #0]
        return clampAbs(wzCmdLocal, 3.14f);
 8003050:	eddf 0a78 	vldr	s1, [pc, #480]	@ 8003234 <applyHeadingControl+0x210>
 8003054:	ed97 0a01 	vldr	s0, [r7, #4]
 8003058:	f7ff f860 	bl	800211c <clampAbs>
 800305c:	eef0 7a40 	vmov.f32	s15, s0
 8003060:	e0dc      	b.n	800321c <applyHeadingControl+0x1f8>
    }

    if (!imu_has_yaw || !imu_has_gyro) {
 8003062:	4b75      	ldr	r3, [pc, #468]	@ (8003238 <applyHeadingControl+0x214>)
 8003064:	781b      	ldrb	r3, [r3, #0]
 8003066:	f083 0301 	eor.w	r3, r3, #1
 800306a:	b2db      	uxtb	r3, r3
 800306c:	2b00      	cmp	r3, #0
 800306e:	d106      	bne.n	800307e <applyHeadingControl+0x5a>
 8003070:	4b72      	ldr	r3, [pc, #456]	@ (800323c <applyHeadingControl+0x218>)
 8003072:	781b      	ldrb	r3, [r3, #0]
 8003074:	f083 0301 	eor.w	r3, r3, #1
 8003078:	b2db      	uxtb	r3, r3
 800307a:	2b00      	cmp	r3, #0
 800307c:	d009      	beq.n	8003092 <applyHeadingControl+0x6e>
        headingLocked = false;
 800307e:	4b6b      	ldr	r3, [pc, #428]	@ (800322c <applyHeadingControl+0x208>)
 8003080:	2200      	movs	r2, #0
 8003082:	701a      	strb	r2, [r3, #0]
        headingIntegral = 0.0f;
 8003084:	4b6a      	ldr	r3, [pc, #424]	@ (8003230 <applyHeadingControl+0x20c>)
 8003086:	f04f 0200 	mov.w	r2, #0
 800308a:	601a      	str	r2, [r3, #0]
        return wzCmdLocal;
 800308c:	edd7 7a01 	vldr	s15, [r7, #4]
 8003090:	e0c4      	b.n	800321c <applyHeadingControl+0x1f8>
    }

    bool hasLinear = (fabsf(vxCmdLocal) > LIN_MOVE_THRESHOLD) ||
 8003092:	edd7 7a03 	vldr	s15, [r7, #12]
 8003096:	eef0 7ae7 	vabs.f32	s15, s15
 800309a:	ed9f 7a69 	vldr	s14, [pc, #420]	@ 8003240 <applyHeadingControl+0x21c>
 800309e:	eef4 7ac7 	vcmpe.f32	s15, s14
 80030a2:	eef1 fa10 	vmrs	APSR_nzcv, fpscr
 80030a6:	dc0a      	bgt.n	80030be <applyHeadingControl+0x9a>
                     (fabsf(vyCmdLocal) > LIN_MOVE_THRESHOLD);
 80030a8:	edd7 7a02 	vldr	s15, [r7, #8]
 80030ac:	eef0 7ae7 	vabs.f32	s15, s15
 80030b0:	ed9f 7a63 	vldr	s14, [pc, #396]	@ 8003240 <applyHeadingControl+0x21c>
    bool hasLinear = (fabsf(vxCmdLocal) > LIN_MOVE_THRESHOLD) ||
 80030b4:	eef4 7ac7 	vcmpe.f32	s15, s14
 80030b8:	eef1 fa10 	vmrs	APSR_nzcv, fpscr
 80030bc:	dd01      	ble.n	80030c2 <applyHeadingControl+0x9e>
 80030be:	2301      	movs	r3, #1
 80030c0:	e000      	b.n	80030c4 <applyHeadingControl+0xa0>
 80030c2:	2300      	movs	r3, #0
 80030c4:	77fb      	strb	r3, [r7, #31]
 80030c6:	7ffb      	ldrb	r3, [r7, #31]
 80030c8:	f003 0301 	and.w	r3, r3, #1
 80030cc:	77fb      	strb	r3, [r7, #31]
    bool omegaNearZero = fabsf(wzCmdLocal) < OMEGA_CMD_DEADBAND;
 80030ce:	edd7 7a01 	vldr	s15, [r7, #4]
 80030d2:	eef0 7ae7 	vabs.f32	s15, s15
 80030d6:	ed9f 7a5b 	vldr	s14, [pc, #364]	@ 8003244 <applyHeadingControl+0x220>
 80030da:	eef4 7ac7 	vcmpe.f32	s15, s14
 80030de:	eef1 fa10 	vmrs	APSR_nzcv, fpscr
 80030e2:	bf4c      	ite	mi
 80030e4:	2301      	movmi	r3, #1
 80030e6:	2300      	movpl	r3, #0
 80030e8:	77bb      	strb	r3, [r7, #30]

    if (omegaNearZero && hasLinear) {
 80030ea:	7fbb      	ldrb	r3, [r7, #30]
 80030ec:	2b00      	cmp	r3, #0
 80030ee:	d063      	beq.n	80031b8 <applyHeadingControl+0x194>
 80030f0:	7ffb      	ldrb	r3, [r7, #31]
 80030f2:	2b00      	cmp	r3, #0
 80030f4:	d060      	beq.n	80031b8 <applyHeadingControl+0x194>
        if (!headingLocked) {
 80030f6:	4b4d      	ldr	r3, [pc, #308]	@ (800322c <applyHeadingControl+0x208>)
 80030f8:	781b      	ldrb	r3, [r3, #0]
 80030fa:	f083 0301 	eor.w	r3, r3, #1
 80030fe:	b2db      	uxtb	r3, r3
 8003100:	2b00      	cmp	r3, #0
 8003102:	d00a      	beq.n	800311a <applyHeadingControl+0xf6>
            headingTargetRad = imu_yaw_rad;
 8003104:	4b50      	ldr	r3, [pc, #320]	@ (8003248 <applyHeadingControl+0x224>)
 8003106:	681b      	ldr	r3, [r3, #0]
 8003108:	4a50      	ldr	r2, [pc, #320]	@ (800324c <applyHeadingControl+0x228>)
 800310a:	6013      	str	r3, [r2, #0]
            headingLocked = true;
 800310c:	4b47      	ldr	r3, [pc, #284]	@ (800322c <applyHeadingControl+0x208>)
 800310e:	2201      	movs	r2, #1
 8003110:	701a      	strb	r2, [r3, #0]
            headingIntegral = 0.0f;
 8003112:	4b47      	ldr	r3, [pc, #284]	@ (8003230 <applyHeadingControl+0x20c>)
 8003114:	f04f 0200 	mov.w	r2, #0
 8003118:	601a      	str	r2, [r3, #0]
        }
        float headingErr = wrapAngle(headingTargetRad - imu_yaw_rad);
 800311a:	4b4c      	ldr	r3, [pc, #304]	@ (800324c <applyHeadingControl+0x228>)
 800311c:	ed93 7a00 	vldr	s14, [r3]
 8003120:	4b49      	ldr	r3, [pc, #292]	@ (8003248 <applyHeadingControl+0x224>)
 8003122:	edd3 7a00 	vldr	s15, [r3]
 8003126:	ee77 7a67 	vsub.f32	s15, s14, s15
 800312a:	eeb0 0a67 	vmov.f32	s0, s15
 800312e:	f7fe ff95 	bl	800205c <wrapAngle>
 8003132:	ed87 0a06 	vstr	s0, [r7, #24]
        headingIntegral += KI_HEADING_HOLD * headingErr * dt;
 8003136:	eeb6 7a00 	vmov.f32	s14, #96	@ 0x3f000000  0.5
 800313a:	edd7 7a06 	vldr	s15, [r7, #24]
 800313e:	ee27 7a27 	vmul.f32	s14, s14, s15
 8003142:	edd7 7a00 	vldr	s15, [r7]
 8003146:	ee27 7a27 	vmul.f32	s14, s14, s15
 800314a:	4b39      	ldr	r3, [pc, #228]	@ (8003230 <applyHeadingControl+0x20c>)
 800314c:	edd3 7a00 	vldr	s15, [r3]
 8003150:	ee77 7a27 	vadd.f32	s15, s14, s15
 8003154:	4b36      	ldr	r3, [pc, #216]	@ (8003230 <applyHeadingControl+0x20c>)
 8003156:	edc3 7a00 	vstr	s15, [r3]
        headingIntegral = clampAbs(headingIntegral, MAX_HEADING_INTEGRAL);
 800315a:	4b35      	ldr	r3, [pc, #212]	@ (8003230 <applyHeadingControl+0x20c>)
 800315c:	edd3 7a00 	vldr	s15, [r3]
 8003160:	eeb7 7a00 	vmov.f32	s14, #112	@ 0x3f800000  1.0
 8003164:	eef0 0a47 	vmov.f32	s1, s14
 8003168:	eeb0 0a67 	vmov.f32	s0, s15
 800316c:	f7fe ffd6 	bl	800211c <clampAbs>
 8003170:	eef0 7a40 	vmov.f32	s15, s0
 8003174:	4b2e      	ldr	r3, [pc, #184]	@ (8003230 <applyHeadingControl+0x20c>)
 8003176:	edc3 7a00 	vstr	s15, [r3]

        float omegaFix = KP_HEADING_HOLD * headingErr + headingIntegral - KD_HEADING_HOLD * imu_wz_rad_s;
 800317a:	eeb0 7a08 	vmov.f32	s14, #8	@ 0x40400000  3.0
 800317e:	edd7 7a06 	vldr	s15, [r7, #24]
 8003182:	ee27 7a27 	vmul.f32	s14, s14, s15
 8003186:	4b2a      	ldr	r3, [pc, #168]	@ (8003230 <applyHeadingControl+0x20c>)
 8003188:	edd3 7a00 	vldr	s15, [r3]
 800318c:	ee37 7a27 	vadd.f32	s14, s14, s15
 8003190:	eef6 6a00 	vmov.f32	s13, #96	@ 0x3f000000  0.5
 8003194:	4b2e      	ldr	r3, [pc, #184]	@ (8003250 <applyHeadingControl+0x22c>)
 8003196:	edd3 7a00 	vldr	s15, [r3]
 800319a:	ee66 7aa7 	vmul.f32	s15, s13, s15
 800319e:	ee77 7a67 	vsub.f32	s15, s14, s15
 80031a2:	edc7 7a05 	vstr	s15, [r7, #20]
        return clampAbs(omegaFix, 3.14f);
 80031a6:	eddf 0a23 	vldr	s1, [pc, #140]	@ 8003234 <applyHeadingControl+0x210>
 80031aa:	ed97 0a05 	vldr	s0, [r7, #20]
 80031ae:	f7fe ffb5 	bl	800211c <clampAbs>
 80031b2:	eef0 7a40 	vmov.f32	s15, s0
 80031b6:	e031      	b.n	800321c <applyHeadingControl+0x1f8>
    }

    if (!omegaNearZero) {
 80031b8:	7fbb      	ldrb	r3, [r7, #30]
 80031ba:	f083 0301 	eor.w	r3, r3, #1
 80031be:	b2db      	uxtb	r3, r3
 80031c0:	2b00      	cmp	r3, #0
 80031c2:	d022      	beq.n	800320a <applyHeadingControl+0x1e6>
        headingLocked = false;
 80031c4:	4b19      	ldr	r3, [pc, #100]	@ (800322c <applyHeadingControl+0x208>)
 80031c6:	2200      	movs	r2, #0
 80031c8:	701a      	strb	r2, [r3, #0]
        headingIntegral = 0.0f;
 80031ca:	4b19      	ldr	r3, [pc, #100]	@ (8003230 <applyHeadingControl+0x20c>)
 80031cc:	f04f 0200 	mov.w	r2, #0
 80031d0:	601a      	str	r2, [r3, #0]
        float wzErr = wzCmdLocal - imu_wz_rad_s;
 80031d2:	4b1f      	ldr	r3, [pc, #124]	@ (8003250 <applyHeadingControl+0x22c>)
 80031d4:	edd3 7a00 	vldr	s15, [r3]
 80031d8:	ed97 7a01 	vldr	s14, [r7, #4]
 80031dc:	ee77 7a67 	vsub.f32	s15, s14, s15
 80031e0:	edc7 7a04 	vstr	s15, [r7, #16]
        return clampAbs(wzCmdLocal + KP_YAW_RATE * wzErr, 3.14f);
 80031e4:	eeb6 7a00 	vmov.f32	s14, #96	@ 0x3f000000  0.5
 80031e8:	edd7 7a04 	vldr	s15, [r7, #16]
 80031ec:	ee27 7a27 	vmul.f32	s14, s14, s15
 80031f0:	edd7 7a01 	vldr	s15, [r7, #4]
 80031f4:	ee77 7a27 	vadd.f32	s15, s14, s15
 80031f8:	eddf 0a0e 	vldr	s1, [pc, #56]	@ 8003234 <applyHeadingControl+0x210>
 80031fc:	eeb0 0a67 	vmov.f32	s0, s15
 8003200:	f7fe ff8c 	bl	800211c <clampAbs>
 8003204:	eef0 7a40 	vmov.f32	s15, s0
 8003208:	e008      	b.n	800321c <applyHeadingControl+0x1f8>
    }

    headingLocked = false;
 800320a:	4b08      	ldr	r3, [pc, #32]	@ (800322c <applyHeadingControl+0x208>)
 800320c:	2200      	movs	r2, #0
 800320e:	701a      	strb	r2, [r3, #0]
    headingIntegral = 0.0f;
 8003210:	4b07      	ldr	r3, [pc, #28]	@ (8003230 <applyHeadingControl+0x20c>)
 8003212:	f04f 0200 	mov.w	r2, #0
 8003216:	601a      	str	r2, [r3, #0]
    return 0.0f;
 8003218:	eddf 7a0e 	vldr	s15, [pc, #56]	@ 8003254 <applyHeadingControl+0x230>
}
 800321c:	eeb0 0a67 	vmov.f32	s0, s15
 8003220:	3720      	adds	r7, #32
 8003222:	46bd      	mov	sp, r7
 8003224:	bd80      	pop	{r7, pc}
 8003226:	bf00      	nop
 8003228:	20000378 	.word	0x20000378
 800322c:	2000036c 	.word	0x2000036c
 8003230:	20000374 	.word	0x20000374
 8003234:	4048f5c3 	.word	0x4048f5c3
 8003238:	2000033d 	.word	0x2000033d
 800323c:	2000033e 	.word	0x2000033e
 8003240:	3c23d70a 	.word	0x3c23d70a
 8003244:	3d4ccccd 	.word	0x3d4ccccd
 8003248:	20000348 	.word	0x20000348
 800324c:	20000370 	.word	0x20000370
 8003250:	2000034c 	.word	0x2000034c
 8003254:	00000000 	.word	0x00000000

08003258 <parseThreeFloats>:

// ==================== SERIAL COMMANDS ====================
static bool parseThreeFloats(const char *str, float *a, float *b, float *c) {
 8003258:	b580      	push	{r7, lr}
 800325a:	b086      	sub	sp, #24
 800325c:	af00      	add	r7, sp, #0
 800325e:	60f8      	str	r0, [r7, #12]
 8003260:	60b9      	str	r1, [r7, #8]
 8003262:	607a      	str	r2, [r7, #4]
 8003264:	603b      	str	r3, [r7, #0]
    char *end;
    *a = strtof(str, &end); if (end == str) return false; str = end;
 8003266:	f107 0314 	add.w	r3, r7, #20
 800326a:	4619      	mov	r1, r3
 800326c:	68f8      	ldr	r0, [r7, #12]
 800326e:	f003 f8a3 	bl	80063b8 <strtof>
 8003272:	eef0 7a40 	vmov.f32	s15, s0
 8003276:	68bb      	ldr	r3, [r7, #8]
 8003278:	edc3 7a00 	vstr	s15, [r3]
 800327c:	697b      	ldr	r3, [r7, #20]
 800327e:	68fa      	ldr	r2, [r7, #12]
 8003280:	429a      	cmp	r2, r3
 8003282:	d101      	bne.n	8003288 <parseThreeFloats+0x30>
 8003284:	2300      	movs	r3, #0
 8003286:	e026      	b.n	80032d6 <parseThreeFloats+0x7e>
 8003288:	697b      	ldr	r3, [r7, #20]
 800328a:	60fb      	str	r3, [r7, #12]
    *b = strtof(str, &end); if (end == str) return false; str = end;
 800328c:	f107 0314 	add.w	r3, r7, #20
 8003290:	4619      	mov	r1, r3
 8003292:	68f8      	ldr	r0, [r7, #12]
 8003294:	f003 f890 	bl	80063b8 <strtof>
 8003298:	eef0 7a40 	vmov.f32	s15, s0
 800329c:	687b      	ldr	r3, [r7, #4]
 800329e:	edc3 7a00 	vstr	s15, [r3]
 80032a2:	697b      	ldr	r3, [r7, #20]
 80032a4:	68fa      	ldr	r2, [r7, #12]
 80032a6:	429a      	cmp	r2, r3
 80032a8:	d101      	bne.n	80032ae <parseThreeFloats+0x56>
 80032aa:	2300      	movs	r3, #0
 80032ac:	e013      	b.n	80032d6 <parseThreeFloats+0x7e>
 80032ae:	697b      	ldr	r3, [r7, #20]
 80032b0:	60fb      	str	r3, [r7, #12]
    *c = strtof(str, &end); if (end == str) return false;
 80032b2:	f107 0314 	add.w	r3, r7, #20
 80032b6:	4619      	mov	r1, r3
 80032b8:	68f8      	ldr	r0, [r7, #12]
 80032ba:	f003 f87d 	bl	80063b8 <strtof>
 80032be:	eef0 7a40 	vmov.f32	s15, s0
 80032c2:	683b      	ldr	r3, [r7, #0]
 80032c4:	edc3 7a00 	vstr	s15, [r3]
 80032c8:	697b      	ldr	r3, [r7, #20]
 80032ca:	68fa      	ldr	r2, [r7, #12]
 80032cc:	429a      	cmp	r2, r3
 80032ce:	d101      	bne.n	80032d4 <parseThreeFloats+0x7c>
 80032d0:	2300      	movs	r3, #0
 80032d2:	e000      	b.n	80032d6 <parseThreeFloats+0x7e>
    return true;
 80032d4:	2301      	movs	r3, #1
}
 80032d6:	4618      	mov	r0, r3
 80032d8:	3718      	adds	r7, #24
 80032da:	46bd      	mov	sp, r7
 80032dc:	bd80      	pop	{r7, pc}

080032de <parseFourFloats>:

static bool parseFourFloats(const char *str, float *a, float *b, float *c, float *d) {
 80032de:	b580      	push	{r7, lr}
 80032e0:	b086      	sub	sp, #24
 80032e2:	af00      	add	r7, sp, #0
 80032e4:	60f8      	str	r0, [r7, #12]
 80032e6:	60b9      	str	r1, [r7, #8]
 80032e8:	607a      	str	r2, [r7, #4]
 80032ea:	603b      	str	r3, [r7, #0]
    char *end;
    *a = strtof(str, &end); if (end == str) return false; str = end;
 80032ec:	f107 0314 	add.w	r3, r7, #20
 80032f0:	4619      	mov	r1, r3
 80032f2:	68f8      	ldr	r0, [r7, #12]
 80032f4:	f003 f860 	bl	80063b8 <strtof>
 80032f8:	eef0 7a40 	vmov.f32	s15, s0
 80032fc:	68bb      	ldr	r3, [r7, #8]
 80032fe:	edc3 7a00 	vstr	s15, [r3]
 8003302:	697b      	ldr	r3, [r7, #20]
 8003304:	68fa      	ldr	r2, [r7, #12]
 8003306:	429a      	cmp	r2, r3
 8003308:	d101      	bne.n	800330e <parseFourFloats+0x30>
 800330a:	2300      	movs	r3, #0
 800330c:	e039      	b.n	8003382 <parseFourFloats+0xa4>
 800330e:	697b      	ldr	r3, [r7, #20]
 8003310:	60fb      	str	r3, [r7, #12]
    *b = strtof(str, &end); if (end == str) return false; str = end;
 8003312:	f107 0314 	add.w	r3, r7, #20
 8003316:	4619      	mov	r1, r3
 8003318:	68f8      	ldr	r0, [r7, #12]
 800331a:	f003 f84d 	bl	80063b8 <strtof>
 800331e:	eef0 7a40 	vmov.f32	s15, s0
 8003322:	687b      	ldr	r3, [r7, #4]
 8003324:	edc3 7a00 	vstr	s15, [r3]
 8003328:	697b      	ldr	r3, [r7, #20]
 800332a:	68fa      	ldr	r2, [r7, #12]
 800332c:	429a      	cmp	r2, r3
 800332e:	d101      	bne.n	8003334 <parseFourFloats+0x56>
 8003330:	2300      	movs	r3, #0
 8003332:	e026      	b.n	8003382 <parseFourFloats+0xa4>
 8003334:	697b      	ldr	r3, [r7, #20]
 8003336:	60fb      	str	r3, [r7, #12]
    *c = strtof(str, &end); if (end == str) return false; str = end;
 8003338:	f107 0314 	add.w	r3, r7, #20
 800333c:	4619      	mov	r1, r3
 800333e:	68f8      	ldr	r0, [r7, #12]
 8003340:	f003 f83a 	bl	80063b8 <strtof>
 8003344:	eef0 7a40 	vmov.f32	s15, s0
 8003348:	683b      	ldr	r3, [r7, #0]
 800334a:	edc3 7a00 	vstr	s15, [r3]
 800334e:	697b      	ldr	r3, [r7, #20]
 8003350:	68fa      	ldr	r2, [r7, #12]
 8003352:	429a      	cmp	r2, r3
 8003354:	d101      	bne.n	800335a <parseFourFloats+0x7c>
 8003356:	2300      	movs	r3, #0
 8003358:	e013      	b.n	8003382 <parseFourFloats+0xa4>
 800335a:	697b      	ldr	r3, [r7, #20]
 800335c:	60fb      	str	r3, [r7, #12]
    *d = strtof(str, &end); if (end == str) return false;
 800335e:	f107 0314 	add.w	r3, r7, #20
 8003362:	4619      	mov	r1, r3
 8003364:	68f8      	ldr	r0, [r7, #12]
 8003366:	f003 f827 	bl	80063b8 <strtof>
 800336a:	eef0 7a40 	vmov.f32	s15, s0
 800336e:	6a3b      	ldr	r3, [r7, #32]
 8003370:	edc3 7a00 	vstr	s15, [r3]
 8003374:	697b      	ldr	r3, [r7, #20]
 8003376:	68fa      	ldr	r2, [r7, #12]
 8003378:	429a      	cmp	r2, r3
 800337a:	d101      	bne.n	8003380 <parseFourFloats+0xa2>
 800337c:	2300      	movs	r3, #0
 800337e:	e000      	b.n	8003382 <parseFourFloats+0xa4>
    return true;
 8003380:	2301      	movs	r3, #1
}
 8003382:	4618      	mov	r0, r3
 8003384:	3718      	adds	r7, #24
 8003386:	46bd      	mov	sp, r7
 8003388:	bd80      	pop	{r7, pc}

0800338a <parseTwoFloats>:

static bool parseTwoFloats(const char *str, float *a, float *b) {
 800338a:	b580      	push	{r7, lr}
 800338c:	b086      	sub	sp, #24
 800338e:	af00      	add	r7, sp, #0
 8003390:	60f8      	str	r0, [r7, #12]
 8003392:	60b9      	str	r1, [r7, #8]
 8003394:	607a      	str	r2, [r7, #4]
    char *end;
    *a = strtof(str, &end); if (end == str) return false; str = end;
 8003396:	f107 0314 	add.w	r3, r7, #20
 800339a:	4619      	mov	r1, r3
 800339c:	68f8      	ldr	r0, [r7, #12]
 800339e:	f003 f80b 	bl	80063b8 <strtof>
 80033a2:	eef0 7a40 	vmov.f32	s15, s0
 80033a6:	68bb      	ldr	r3, [r7, #8]
 80033a8:	edc3 7a00 	vstr	s15, [r3]
 80033ac:	697b      	ldr	r3, [r7, #20]
 80033ae:	68fa      	ldr	r2, [r7, #12]
 80033b0:	429a      	cmp	r2, r3
 80033b2:	d101      	bne.n	80033b8 <parseTwoFloats+0x2e>
 80033b4:	2300      	movs	r3, #0
 80033b6:	e013      	b.n	80033e0 <parseTwoFloats+0x56>
 80033b8:	697b      	ldr	r3, [r7, #20]
 80033ba:	60fb      	str	r3, [r7, #12]
    *b = strtof(str, &end); if (end == str) return false;
 80033bc:	f107 0314 	add.w	r3, r7, #20
 80033c0:	4619      	mov	r1, r3
 80033c2:	68f8      	ldr	r0, [r7, #12]
 80033c4:	f002 fff8 	bl	80063b8 <strtof>
 80033c8:	eef0 7a40 	vmov.f32	s15, s0
 80033cc:	687b      	ldr	r3, [r7, #4]
 80033ce:	edc3 7a00 	vstr	s15, [r3]
 80033d2:	697b      	ldr	r3, [r7, #20]
 80033d4:	68fa      	ldr	r2, [r7, #12]
 80033d6:	429a      	cmp	r2, r3
 80033d8:	d101      	bne.n	80033de <parseTwoFloats+0x54>
 80033da:	2300      	movs	r3, #0
 80033dc:	e000      	b.n	80033e0 <parseTwoFloats+0x56>
    return true;
 80033de:	2301      	movs	r3, #1
}
 80033e0:	4618      	mov	r0, r3
 80033e2:	3718      	adds	r7, #24
 80033e4:	46bd      	mov	sp, r7
 80033e6:	bd80      	pop	{r7, pc}

080033e8 <parseOneFloat>:

static bool parseOneFloat(const char *str, float *a) {
 80033e8:	b580      	push	{r7, lr}
 80033ea:	b084      	sub	sp, #16
 80033ec:	af00      	add	r7, sp, #0
 80033ee:	6078      	str	r0, [r7, #4]
 80033f0:	6039      	str	r1, [r7, #0]
    char *end;
    *a = strtof(str, &end);
 80033f2:	f107 030c 	add.w	r3, r7, #12
 80033f6:	4619      	mov	r1, r3
 80033f8:	6878      	ldr	r0, [r7, #4]
 80033fa:	f002 ffdd 	bl	80063b8 <strtof>
 80033fe:	eef0 7a40 	vmov.f32	s15, s0
 8003402:	683b      	ldr	r3, [r7, #0]
 8003404:	edc3 7a00 	vstr	s15, [r3]
    return end != str;
 8003408:	68fb      	ldr	r3, [r7, #12]
 800340a:	687a      	ldr	r2, [r7, #4]
 800340c:	429a      	cmp	r2, r3
 800340e:	bf14      	ite	ne
 8003410:	2301      	movne	r3, #1
 8003412:	2300      	moveq	r3, #0
 8003414:	b2db      	uxtb	r3, r3
}
 8003416:	4618      	mov	r0, r3
 8003418:	3710      	adds	r7, #16
 800341a:	46bd      	mov	sp, r7
 800341c:	bd80      	pop	{r7, pc}
	...

08003420 <processCommand>:

void processCommand(const char* cmd) {
 8003420:	b5f0      	push	{r4, r5, r6, r7, lr}
 8003422:	b0a5      	sub	sp, #148	@ 0x94
 8003424:	af02      	add	r7, sp, #8
 8003426:	6078      	str	r0, [r7, #4]
    if (cmd[0] == 'V' && cmd[1] == ' ') {
 8003428:	687b      	ldr	r3, [r7, #4]
 800342a:	781b      	ldrb	r3, [r3, #0]
 800342c:	2b56      	cmp	r3, #86	@ 0x56
 800342e:	d16c      	bne.n	800350a <processCommand+0xea>
 8003430:	687b      	ldr	r3, [r7, #4]
 8003432:	3301      	adds	r3, #1
 8003434:	781b      	ldrb	r3, [r3, #0]
 8003436:	2b20      	cmp	r3, #32
 8003438:	d167      	bne.n	800350a <processCommand+0xea>
        float vx = 0, vy = 0, omega = 0;
 800343a:	f04f 0300 	mov.w	r3, #0
 800343e:	677b      	str	r3, [r7, #116]	@ 0x74
 8003440:	f04f 0300 	mov.w	r3, #0
 8003444:	673b      	str	r3, [r7, #112]	@ 0x70
 8003446:	f04f 0300 	mov.w	r3, #0
 800344a:	66fb      	str	r3, [r7, #108]	@ 0x6c
        if (parseThreeFloats(cmd + 2, &vx, &vy, &omega)) {
 800344c:	687b      	ldr	r3, [r7, #4]
 800344e:	1c98      	adds	r0, r3, #2
 8003450:	f107 036c 	add.w	r3, r7, #108	@ 0x6c
 8003454:	f107 0270 	add.w	r2, r7, #112	@ 0x70
 8003458:	f107 0174 	add.w	r1, r7, #116	@ 0x74
 800345c:	f7ff fefc 	bl	8003258 <parseThreeFloats>
 8003460:	4603      	mov	r3, r0
 8003462:	2b00      	cmp	r3, #0
 8003464:	f000 82c1 	beq.w	80039ea <processCommand+0x5ca>
            vxCmd = fminf(fmaxf(vx, -1.0f), 1.0f);
 8003468:	edd7 7a1d 	vldr	s15, [r7, #116]	@ 0x74
 800346c:	eeff 0a00 	vmov.f32	s1, #240	@ 0xbf800000 -1.0
 8003470:	eeb0 0a67 	vmov.f32	s0, s15
 8003474:	f001 f8c4 	bl	8004600 <fmaxf>
 8003478:	eef0 7a40 	vmov.f32	s15, s0
 800347c:	eef7 0a00 	vmov.f32	s1, #112	@ 0x3f800000  1.0
 8003480:	eeb0 0a67 	vmov.f32	s0, s15
 8003484:	f001 f8e4 	bl	8004650 <fminf>
 8003488:	eef0 7a40 	vmov.f32	s15, s0
 800348c:	4bc8      	ldr	r3, [pc, #800]	@ (80037b0 <processCommand+0x390>)
 800348e:	edc3 7a00 	vstr	s15, [r3]
            vyCmd = fminf(fmaxf(vy, -1.0f), 1.0f);
 8003492:	edd7 7a1c 	vldr	s15, [r7, #112]	@ 0x70
 8003496:	eeff 0a00 	vmov.f32	s1, #240	@ 0xbf800000 -1.0
 800349a:	eeb0 0a67 	vmov.f32	s0, s15
 800349e:	f001 f8af 	bl	8004600 <fmaxf>
 80034a2:	eef0 7a40 	vmov.f32	s15, s0
 80034a6:	eef7 0a00 	vmov.f32	s1, #112	@ 0x3f800000  1.0
 80034aa:	eeb0 0a67 	vmov.f32	s0, s15
 80034ae:	f001 f8cf 	bl	8004650 <fminf>
 80034b2:	eef0 7a40 	vmov.f32	s15, s0
 80034b6:	4bbf      	ldr	r3, [pc, #764]	@ (80037b4 <processCommand+0x394>)
 80034b8:	edc3 7a00 	vstr	s15, [r3]
            wzCmd = fminf(fmaxf(omega, -3.14f), 3.14f);
 80034bc:	edd7 7a1b 	vldr	s15, [r7, #108]	@ 0x6c
 80034c0:	eddf 0abd 	vldr	s1, [pc, #756]	@ 80037b8 <processCommand+0x398>
 80034c4:	eeb0 0a67 	vmov.f32	s0, s15
 80034c8:	f001 f89a 	bl	8004600 <fmaxf>
 80034cc:	eef0 7a40 	vmov.f32	s15, s0
 80034d0:	eddf 0aba 	vldr	s1, [pc, #744]	@ 80037bc <processCommand+0x39c>
 80034d4:	eeb0 0a67 	vmov.f32	s0, s15
 80034d8:	f001 f8ba 	bl	8004650 <fminf>
 80034dc:	eef0 7a40 	vmov.f32	s15, s0
 80034e0:	4bb7      	ldr	r3, [pc, #732]	@ (80037c0 <processCommand+0x3a0>)
 80034e2:	edc3 7a00 	vstr	s15, [r3]
            vxTarget = vxCmd; vyTarget = vyCmd; wzTarget = wzCmd;
 80034e6:	4bb2      	ldr	r3, [pc, #712]	@ (80037b0 <processCommand+0x390>)
 80034e8:	681b      	ldr	r3, [r3, #0]
 80034ea:	4ab6      	ldr	r2, [pc, #728]	@ (80037c4 <processCommand+0x3a4>)
 80034ec:	6013      	str	r3, [r2, #0]
 80034ee:	4bb1      	ldr	r3, [pc, #708]	@ (80037b4 <processCommand+0x394>)
 80034f0:	681b      	ldr	r3, [r3, #0]
 80034f2:	4ab5      	ldr	r2, [pc, #724]	@ (80037c8 <processCommand+0x3a8>)
 80034f4:	6013      	str	r3, [r2, #0]
 80034f6:	4bb2      	ldr	r3, [pc, #712]	@ (80037c0 <processCommand+0x3a0>)
 80034f8:	681b      	ldr	r3, [r3, #0]
 80034fa:	4ab4      	ldr	r2, [pc, #720]	@ (80037cc <processCommand+0x3ac>)
 80034fc:	6013      	str	r3, [r2, #0]
            lastCmdTime = millis();
 80034fe:	f7fe fcbb 	bl	8001e78 <millis>
 8003502:	4603      	mov	r3, r0
 8003504:	4ab2      	ldr	r2, [pc, #712]	@ (80037d0 <processCommand+0x3b0>)
 8003506:	6013      	str	r3, [r2, #0]
    if (cmd[0] == 'V' && cmd[1] == ' ') {
 8003508:	e26f      	b.n	80039ea <processCommand+0x5ca>
        }
    }
    else if (cmd[0] == 'S') {
 800350a:	687b      	ldr	r3, [r7, #4]
 800350c:	781b      	ldrb	r3, [r3, #0]
 800350e:	2b53      	cmp	r3, #83	@ 0x53
 8003510:	d107      	bne.n	8003522 <processCommand+0x102>
        hardStopAll();
 8003512:	f7ff f973 	bl	80027fc <hardStopAll>
        lastCmdTime = millis();
 8003516:	f7fe fcaf 	bl	8001e78 <millis>
 800351a:	4603      	mov	r3, r0
 800351c:	4aac      	ldr	r2, [pc, #688]	@ (80037d0 <processCommand+0x3b0>)
 800351e:	6013      	str	r3, [r2, #0]
        long mode = strtol(cmd + 9, NULL, 10);
        externalHeadingControl = (mode != 0);
        headingLocked = false;
        headingIntegral = 0.0f;
    }
}
 8003520:	e266      	b.n	80039f0 <processCommand+0x5d0>
    else if (cmd[0] == 'R') {
 8003522:	687b      	ldr	r3, [r7, #4]
 8003524:	781b      	ldrb	r3, [r3, #0]
 8003526:	2b52      	cmp	r3, #82	@ 0x52
 8003528:	d10c      	bne.n	8003544 <processCommand+0x124>
        resetOdometry();
 800352a:	f7ff fa01 	bl	8002930 <resetOdometry>
        hardStopAll();
 800352e:	f7ff f965 	bl	80027fc <hardStopAll>
        lastCmdTime = millis();
 8003532:	f7fe fca1 	bl	8001e78 <millis>
 8003536:	4603      	mov	r3, r0
 8003538:	4aa5      	ldr	r2, [pc, #660]	@ (80037d0 <processCommand+0x3b0>)
 800353a:	6013      	str	r3, [r2, #0]
        serial_print("ODOM_RESET\r\n");
 800353c:	48a5      	ldr	r0, [pc, #660]	@ (80037d4 <processCommand+0x3b4>)
 800353e:	f7fe fd4f 	bl	8001fe0 <serial_print>
}
 8003542:	e255      	b.n	80039f0 <processCommand+0x5d0>
    else if (cmd[0] == 'P' && cmd[1] == ' ') {
 8003544:	687b      	ldr	r3, [r7, #4]
 8003546:	781b      	ldrb	r3, [r3, #0]
 8003548:	2b50      	cmp	r3, #80	@ 0x50
 800354a:	f040 80cd 	bne.w	80036e8 <processCommand+0x2c8>
 800354e:	687b      	ldr	r3, [r7, #4]
 8003550:	3301      	adds	r3, #1
 8003552:	781b      	ldrb	r3, [r3, #0]
 8003554:	2b20      	cmp	r3, #32
 8003556:	f040 80c7 	bne.w	80036e8 <processCommand+0x2c8>
        float p0=0, p1=0, p2=0, p3=0;
 800355a:	f04f 0300 	mov.w	r3, #0
 800355e:	66bb      	str	r3, [r7, #104]	@ 0x68
 8003560:	f04f 0300 	mov.w	r3, #0
 8003564:	667b      	str	r3, [r7, #100]	@ 0x64
 8003566:	f04f 0300 	mov.w	r3, #0
 800356a:	663b      	str	r3, [r7, #96]	@ 0x60
 800356c:	f04f 0300 	mov.w	r3, #0
 8003570:	65fb      	str	r3, [r7, #92]	@ 0x5c
        if (parseFourFloats(cmd + 2, &p0, &p1, &p2, &p3)) {
 8003572:	687b      	ldr	r3, [r7, #4]
 8003574:	1c98      	adds	r0, r3, #2
 8003576:	f107 0460 	add.w	r4, r7, #96	@ 0x60
 800357a:	f107 0264 	add.w	r2, r7, #100	@ 0x64
 800357e:	f107 0168 	add.w	r1, r7, #104	@ 0x68
 8003582:	f107 035c 	add.w	r3, r7, #92	@ 0x5c
 8003586:	9300      	str	r3, [sp, #0]
 8003588:	4623      	mov	r3, r4
 800358a:	f7ff fea8 	bl	80032de <parseFourFloats>
 800358e:	4603      	mov	r3, r0
 8003590:	2b00      	cmp	r3, #0
 8003592:	f000 822c 	beq.w	80039ee <processCommand+0x5ce>
            calibrationPwm[0] = fminf(fmaxf(p0, -255.0f), 255.0f);
 8003596:	edd7 7a1a 	vldr	s15, [r7, #104]	@ 0x68
 800359a:	eddf 0a8f 	vldr	s1, [pc, #572]	@ 80037d8 <processCommand+0x3b8>
 800359e:	eeb0 0a67 	vmov.f32	s0, s15
 80035a2:	f001 f82d 	bl	8004600 <fmaxf>
 80035a6:	eef0 7a40 	vmov.f32	s15, s0
 80035aa:	eddf 0a8c 	vldr	s1, [pc, #560]	@ 80037dc <processCommand+0x3bc>
 80035ae:	eeb0 0a67 	vmov.f32	s0, s15
 80035b2:	f001 f84d 	bl	8004650 <fminf>
 80035b6:	eef0 7a40 	vmov.f32	s15, s0
 80035ba:	4b89      	ldr	r3, [pc, #548]	@ (80037e0 <processCommand+0x3c0>)
 80035bc:	edc3 7a00 	vstr	s15, [r3]
            calibrationPwm[1] = fminf(fmaxf(p1, -255.0f), 255.0f);
 80035c0:	edd7 7a19 	vldr	s15, [r7, #100]	@ 0x64
 80035c4:	eddf 0a84 	vldr	s1, [pc, #528]	@ 80037d8 <processCommand+0x3b8>
 80035c8:	eeb0 0a67 	vmov.f32	s0, s15
 80035cc:	f001 f818 	bl	8004600 <fmaxf>
 80035d0:	eef0 7a40 	vmov.f32	s15, s0
 80035d4:	eddf 0a81 	vldr	s1, [pc, #516]	@ 80037dc <processCommand+0x3bc>
 80035d8:	eeb0 0a67 	vmov.f32	s0, s15
 80035dc:	f001 f838 	bl	8004650 <fminf>
 80035e0:	eef0 7a40 	vmov.f32	s15, s0
 80035e4:	4b7e      	ldr	r3, [pc, #504]	@ (80037e0 <processCommand+0x3c0>)
 80035e6:	edc3 7a01 	vstr	s15, [r3, #4]
            calibrationPwm[2] = fminf(fmaxf(p2, -255.0f), 255.0f);
 80035ea:	edd7 7a18 	vldr	s15, [r7, #96]	@ 0x60
 80035ee:	eddf 0a7a 	vldr	s1, [pc, #488]	@ 80037d8 <processCommand+0x3b8>
 80035f2:	eeb0 0a67 	vmov.f32	s0, s15
 80035f6:	f001 f803 	bl	8004600 <fmaxf>
 80035fa:	eef0 7a40 	vmov.f32	s15, s0
 80035fe:	eddf 0a77 	vldr	s1, [pc, #476]	@ 80037dc <processCommand+0x3bc>
 8003602:	eeb0 0a67 	vmov.f32	s0, s15
 8003606:	f001 f823 	bl	8004650 <fminf>
 800360a:	eef0 7a40 	vmov.f32	s15, s0
 800360e:	4b74      	ldr	r3, [pc, #464]	@ (80037e0 <processCommand+0x3c0>)
 8003610:	edc3 7a02 	vstr	s15, [r3, #8]
            calibrationPwm[3] = fminf(fmaxf(p3, -255.0f), 255.0f);
 8003614:	edd7 7a17 	vldr	s15, [r7, #92]	@ 0x5c
 8003618:	eddf 0a6f 	vldr	s1, [pc, #444]	@ 80037d8 <processCommand+0x3b8>
 800361c:	eeb0 0a67 	vmov.f32	s0, s15
 8003620:	f000 ffee 	bl	8004600 <fmaxf>
 8003624:	eef0 7a40 	vmov.f32	s15, s0
 8003628:	eddf 0a6c 	vldr	s1, [pc, #432]	@ 80037dc <processCommand+0x3bc>
 800362c:	eeb0 0a67 	vmov.f32	s0, s15
 8003630:	f001 f80e 	bl	8004650 <fminf>
 8003634:	eef0 7a40 	vmov.f32	s15, s0
 8003638:	4b69      	ldr	r3, [pc, #420]	@ (80037e0 <processCommand+0x3c0>)
 800363a:	edc3 7a03 	vstr	s15, [r3, #12]
            if (p0 == 0 && p1 == 0 && p2 == 0 && p3 == 0) {
 800363e:	edd7 7a1a 	vldr	s15, [r7, #104]	@ 0x68
 8003642:	eef5 7a40 	vcmp.f32	s15, #0.0
 8003646:	eef1 fa10 	vmrs	APSR_nzcv, fpscr
 800364a:	d12f      	bne.n	80036ac <processCommand+0x28c>
 800364c:	edd7 7a19 	vldr	s15, [r7, #100]	@ 0x64
 8003650:	eef5 7a40 	vcmp.f32	s15, #0.0
 8003654:	eef1 fa10 	vmrs	APSR_nzcv, fpscr
 8003658:	d128      	bne.n	80036ac <processCommand+0x28c>
 800365a:	edd7 7a18 	vldr	s15, [r7, #96]	@ 0x60
 800365e:	eef5 7a40 	vcmp.f32	s15, #0.0
 8003662:	eef1 fa10 	vmrs	APSR_nzcv, fpscr
 8003666:	d121      	bne.n	80036ac <processCommand+0x28c>
 8003668:	edd7 7a17 	vldr	s15, [r7, #92]	@ 0x5c
 800366c:	eef5 7a40 	vcmp.f32	s15, #0.0
 8003670:	eef1 fa10 	vmrs	APSR_nzcv, fpscr
 8003674:	d11a      	bne.n	80036ac <processCommand+0x28c>
                calibrationMode = false;
 8003676:	4b5b      	ldr	r3, [pc, #364]	@ (80037e4 <processCommand+0x3c4>)
 8003678:	2200      	movs	r2, #0
 800367a:	701a      	strb	r2, [r3, #0]
                hardStopAll();
 800367c:	f7ff f8be 	bl	80027fc <hardStopAll>
                for (int i = 0; i < 4; i++) calibrationPwm[i] = 0;
 8003680:	2300      	movs	r3, #0
 8003682:	f8c7 3084 	str.w	r3, [r7, #132]	@ 0x84
 8003686:	e00c      	b.n	80036a2 <processCommand+0x282>
 8003688:	4a55      	ldr	r2, [pc, #340]	@ (80037e0 <processCommand+0x3c0>)
 800368a:	f8d7 3084 	ldr.w	r3, [r7, #132]	@ 0x84
 800368e:	009b      	lsls	r3, r3, #2
 8003690:	4413      	add	r3, r2
 8003692:	f04f 0200 	mov.w	r2, #0
 8003696:	601a      	str	r2, [r3, #0]
 8003698:	f8d7 3084 	ldr.w	r3, [r7, #132]	@ 0x84
 800369c:	3301      	adds	r3, #1
 800369e:	f8c7 3084 	str.w	r3, [r7, #132]	@ 0x84
 80036a2:	f8d7 3084 	ldr.w	r3, [r7, #132]	@ 0x84
 80036a6:	2b03      	cmp	r3, #3
 80036a8:	ddee      	ble.n	8003688 <processCommand+0x268>
 80036aa:	e017      	b.n	80036dc <processCommand+0x2bc>
                calibrationMode = true;
 80036ac:	4b4d      	ldr	r3, [pc, #308]	@ (80037e4 <processCommand+0x3c4>)
 80036ae:	2201      	movs	r2, #1
 80036b0:	701a      	strb	r2, [r3, #0]
                for (int i = 0; i < 4; i++) wheelIntegralPwm[i] = 0.0f;
 80036b2:	2300      	movs	r3, #0
 80036b4:	f8c7 3080 	str.w	r3, [r7, #128]	@ 0x80
 80036b8:	e00c      	b.n	80036d4 <processCommand+0x2b4>
 80036ba:	4a4b      	ldr	r2, [pc, #300]	@ (80037e8 <processCommand+0x3c8>)
 80036bc:	f8d7 3080 	ldr.w	r3, [r7, #128]	@ 0x80
 80036c0:	009b      	lsls	r3, r3, #2
 80036c2:	4413      	add	r3, r2
 80036c4:	f04f 0200 	mov.w	r2, #0
 80036c8:	601a      	str	r2, [r3, #0]
 80036ca:	f8d7 3080 	ldr.w	r3, [r7, #128]	@ 0x80
 80036ce:	3301      	adds	r3, #1
 80036d0:	f8c7 3080 	str.w	r3, [r7, #128]	@ 0x80
 80036d4:	f8d7 3080 	ldr.w	r3, [r7, #128]	@ 0x80
 80036d8:	2b03      	cmp	r3, #3
 80036da:	ddee      	ble.n	80036ba <processCommand+0x29a>
            lastCmdTime = millis();
 80036dc:	f7fe fbcc 	bl	8001e78 <millis>
 80036e0:	4603      	mov	r3, r0
 80036e2:	4a3b      	ldr	r2, [pc, #236]	@ (80037d0 <processCommand+0x3b0>)
 80036e4:	6013      	str	r3, [r2, #0]
    else if (cmd[0] == 'P' && cmd[1] == ' ') {
 80036e6:	e182      	b.n	80039ee <processCommand+0x5ce>
    else if (cmd[0] == 'Q') {
 80036e8:	687b      	ldr	r3, [r7, #4]
 80036ea:	781b      	ldrb	r3, [r3, #0]
 80036ec:	2b51      	cmp	r3, #81	@ 0x51
 80036ee:	d13b      	bne.n	8003768 <processCommand+0x348>
        sprintf(print_buffer, "QR %s %s %s %s\r\n", 
 80036f0:	4b3e      	ldr	r3, [pc, #248]	@ (80037ec <processCommand+0x3cc>)
 80036f2:	edd3 7a00 	vldr	s15, [r3]
 80036f6:	f107 034c 	add.w	r3, r7, #76	@ 0x4c
 80036fa:	4619      	mov	r1, r3
 80036fc:	2002      	movs	r0, #2
 80036fe:	eeb0 0a67 	vmov.f32	s0, s15
 8003702:	f7fe fbcb 	bl	8001e9c <f2s>
 8003706:	4605      	mov	r5, r0
 8003708:	4b38      	ldr	r3, [pc, #224]	@ (80037ec <processCommand+0x3cc>)
 800370a:	edd3 7a01 	vldr	s15, [r3, #4]
 800370e:	f107 033c 	add.w	r3, r7, #60	@ 0x3c
 8003712:	4619      	mov	r1, r3
 8003714:	2002      	movs	r0, #2
 8003716:	eeb0 0a67 	vmov.f32	s0, s15
 800371a:	f7fe fbbf 	bl	8001e9c <f2s>
 800371e:	4606      	mov	r6, r0
 8003720:	4b32      	ldr	r3, [pc, #200]	@ (80037ec <processCommand+0x3cc>)
 8003722:	edd3 7a02 	vldr	s15, [r3, #8]
 8003726:	f107 032c 	add.w	r3, r7, #44	@ 0x2c
 800372a:	4619      	mov	r1, r3
 800372c:	2002      	movs	r0, #2
 800372e:	eeb0 0a67 	vmov.f32	s0, s15
 8003732:	f7fe fbb3 	bl	8001e9c <f2s>
 8003736:	4604      	mov	r4, r0
 8003738:	4b2c      	ldr	r3, [pc, #176]	@ (80037ec <processCommand+0x3cc>)
 800373a:	edd3 7a03 	vldr	s15, [r3, #12]
 800373e:	f107 031c 	add.w	r3, r7, #28
 8003742:	4619      	mov	r1, r3
 8003744:	2002      	movs	r0, #2
 8003746:	eeb0 0a67 	vmov.f32	s0, s15
 800374a:	f7fe fba7 	bl	8001e9c <f2s>
 800374e:	4603      	mov	r3, r0
 8003750:	9301      	str	r3, [sp, #4]
 8003752:	9400      	str	r4, [sp, #0]
 8003754:	4633      	mov	r3, r6
 8003756:	462a      	mov	r2, r5
 8003758:	4925      	ldr	r1, [pc, #148]	@ (80037f0 <processCommand+0x3d0>)
 800375a:	4826      	ldr	r0, [pc, #152]	@ (80037f4 <processCommand+0x3d4>)
 800375c:	f002 ffd8 	bl	8006710 <siprintf>
        serial_print(print_buffer);
 8003760:	4824      	ldr	r0, [pc, #144]	@ (80037f4 <processCommand+0x3d4>)
 8003762:	f7fe fc3d 	bl	8001fe0 <serial_print>
}
 8003766:	e143      	b.n	80039f0 <processCommand+0x5d0>
    else if (strncmp(cmd, "KV ", 3) == 0) {
 8003768:	2203      	movs	r2, #3
 800376a:	4923      	ldr	r1, [pc, #140]	@ (80037f8 <processCommand+0x3d8>)
 800376c:	6878      	ldr	r0, [r7, #4]
 800376e:	f003 f856 	bl	800681e <strncmp>
 8003772:	4603      	mov	r3, r0
 8003774:	2b00      	cmp	r3, #0
 8003776:	d150      	bne.n	800381a <processCommand+0x3fa>
        float new_kv=0, new_ks=0;
 8003778:	f04f 0300 	mov.w	r3, #0
 800377c:	61bb      	str	r3, [r7, #24]
 800377e:	f04f 0300 	mov.w	r3, #0
 8003782:	617b      	str	r3, [r7, #20]
        if (parseTwoFloats(cmd + 3, &new_kv, &new_ks) && new_kv > 0 && new_ks >= 0) {
 8003784:	687b      	ldr	r3, [r7, #4]
 8003786:	3303      	adds	r3, #3
 8003788:	f107 0214 	add.w	r2, r7, #20
 800378c:	f107 0118 	add.w	r1, r7, #24
 8003790:	4618      	mov	r0, r3
 8003792:	f7ff fdfa 	bl	800338a <parseTwoFloats>
 8003796:	4603      	mov	r3, r0
 8003798:	2b00      	cmp	r3, #0
 800379a:	f000 8129 	beq.w	80039f0 <processCommand+0x5d0>
 800379e:	edd7 7a06 	vldr	s15, [r7, #24]
 80037a2:	eef5 7ac0 	vcmpe.f32	s15, #0.0
 80037a6:	eef1 fa10 	vmrs	APSR_nzcv, fpscr
 80037aa:	dc27      	bgt.n	80037fc <processCommand+0x3dc>
}
 80037ac:	e120      	b.n	80039f0 <processCommand+0x5d0>
 80037ae:	bf00      	nop
 80037b0:	20000330 	.word	0x20000330
 80037b4:	20000334 	.word	0x20000334
 80037b8:	c048f5c3 	.word	0xc048f5c3
 80037bc:	4048f5c3 	.word	0x4048f5c3
 80037c0:	20000338 	.word	0x20000338
 80037c4:	20000324 	.word	0x20000324
 80037c8:	20000328 	.word	0x20000328
 80037cc:	2000032c 	.word	0x2000032c
 80037d0:	2000037c 	.word	0x2000037c
 80037d4:	08008930 	.word	0x08008930
 80037d8:	c37f0000 	.word	0xc37f0000
 80037dc:	437f0000 	.word	0x437f0000
 80037e0:	20000384 	.word	0x20000384
 80037e4:	20000380 	.word	0x20000380
 80037e8:	200002f4 	.word	0x200002f4
 80037ec:	200002e4 	.word	0x200002e4
 80037f0:	08008940 	.word	0x08008940
 80037f4:	200003d8 	.word	0x200003d8
 80037f8:	08008954 	.word	0x08008954
        if (parseTwoFloats(cmd + 3, &new_kv, &new_ks) && new_kv > 0 && new_ks >= 0) {
 80037fc:	edd7 7a05 	vldr	s15, [r7, #20]
 8003800:	eef5 7ac0 	vcmpe.f32	s15, #0.0
 8003804:	eef1 fa10 	vmrs	APSR_nzcv, fpscr
 8003808:	da00      	bge.n	800380c <processCommand+0x3ec>
}
 800380a:	e0f1      	b.n	80039f0 <processCommand+0x5d0>
            WHEEL_KV_PWM_PER_RPM = new_kv;
 800380c:	69bb      	ldr	r3, [r7, #24]
 800380e:	4a7a      	ldr	r2, [pc, #488]	@ (80039f8 <processCommand+0x5d8>)
 8003810:	6013      	str	r3, [r2, #0]
            WHEEL_KS_PWM = new_ks;
 8003812:	697b      	ldr	r3, [r7, #20]
 8003814:	4a79      	ldr	r2, [pc, #484]	@ (80039fc <processCommand+0x5dc>)
 8003816:	6013      	str	r3, [r2, #0]
}
 8003818:	e0ea      	b.n	80039f0 <processCommand+0x5d0>
    else if (strncmp(cmd, "RPMMAX ", 7) == 0) {
 800381a:	2207      	movs	r2, #7
 800381c:	4978      	ldr	r1, [pc, #480]	@ (8003a00 <processCommand+0x5e0>)
 800381e:	6878      	ldr	r0, [r7, #4]
 8003820:	f002 fffd 	bl	800681e <strncmp>
 8003824:	4603      	mov	r3, r0
 8003826:	2b00      	cmp	r3, #0
 8003828:	d126      	bne.n	8003878 <processCommand+0x458>
        float new_rpm_max=0;
 800382a:	f04f 0300 	mov.w	r3, #0
 800382e:	613b      	str	r3, [r7, #16]
        if (parseOneFloat(cmd + 7, &new_rpm_max) && new_rpm_max > 10.0f && new_rpm_max < 5000.0f) {
 8003830:	687b      	ldr	r3, [r7, #4]
 8003832:	3307      	adds	r3, #7
 8003834:	f107 0210 	add.w	r2, r7, #16
 8003838:	4611      	mov	r1, r2
 800383a:	4618      	mov	r0, r3
 800383c:	f7ff fdd4 	bl	80033e8 <parseOneFloat>
 8003840:	4603      	mov	r3, r0
 8003842:	2b00      	cmp	r3, #0
 8003844:	f000 80d4 	beq.w	80039f0 <processCommand+0x5d0>
 8003848:	edd7 7a04 	vldr	s15, [r7, #16]
 800384c:	eeb2 7a04 	vmov.f32	s14, #36	@ 0x41200000  10.0
 8003850:	eef4 7ac7 	vcmpe.f32	s15, s14
 8003854:	eef1 fa10 	vmrs	APSR_nzcv, fpscr
 8003858:	dc00      	bgt.n	800385c <processCommand+0x43c>
}
 800385a:	e0c9      	b.n	80039f0 <processCommand+0x5d0>
        if (parseOneFloat(cmd + 7, &new_rpm_max) && new_rpm_max > 10.0f && new_rpm_max < 5000.0f) {
 800385c:	edd7 7a04 	vldr	s15, [r7, #16]
 8003860:	ed9f 7a68 	vldr	s14, [pc, #416]	@ 8003a04 <processCommand+0x5e4>
 8003864:	eef4 7ac7 	vcmpe.f32	s15, s14
 8003868:	eef1 fa10 	vmrs	APSR_nzcv, fpscr
 800386c:	d400      	bmi.n	8003870 <processCommand+0x450>
}
 800386e:	e0bf      	b.n	80039f0 <processCommand+0x5d0>
            RPM_MAX = new_rpm_max;
 8003870:	693b      	ldr	r3, [r7, #16]
 8003872:	4a65      	ldr	r2, [pc, #404]	@ (8003a08 <processCommand+0x5e8>)
 8003874:	6013      	str	r3, [r2, #0]
}
 8003876:	e0bb      	b.n	80039f0 <processCommand+0x5d0>
    else if (strncmp(cmd, "RADIUS ", 7) == 0) {
 8003878:	2207      	movs	r2, #7
 800387a:	4964      	ldr	r1, [pc, #400]	@ (8003a0c <processCommand+0x5ec>)
 800387c:	6878      	ldr	r0, [r7, #4]
 800387e:	f002 ffce 	bl	800681e <strncmp>
 8003882:	4603      	mov	r3, r0
 8003884:	2b00      	cmp	r3, #0
 8003886:	d126      	bne.n	80038d6 <processCommand+0x4b6>
        float new_r=0;
 8003888:	f04f 0300 	mov.w	r3, #0
 800388c:	60fb      	str	r3, [r7, #12]
        if (parseOneFloat(cmd + 7, &new_r) && new_r > 0.01f && new_r < 1.0f) {
 800388e:	687b      	ldr	r3, [r7, #4]
 8003890:	3307      	adds	r3, #7
 8003892:	f107 020c 	add.w	r2, r7, #12
 8003896:	4611      	mov	r1, r2
 8003898:	4618      	mov	r0, r3
 800389a:	f7ff fda5 	bl	80033e8 <parseOneFloat>
 800389e:	4603      	mov	r3, r0
 80038a0:	2b00      	cmp	r3, #0
 80038a2:	f000 80a5 	beq.w	80039f0 <processCommand+0x5d0>
 80038a6:	edd7 7a03 	vldr	s15, [r7, #12]
 80038aa:	ed9f 7a59 	vldr	s14, [pc, #356]	@ 8003a10 <processCommand+0x5f0>
 80038ae:	eef4 7ac7 	vcmpe.f32	s15, s14
 80038b2:	eef1 fa10 	vmrs	APSR_nzcv, fpscr
 80038b6:	dc00      	bgt.n	80038ba <processCommand+0x49a>
}
 80038b8:	e09a      	b.n	80039f0 <processCommand+0x5d0>
        if (parseOneFloat(cmd + 7, &new_r) && new_r > 0.01f && new_r < 1.0f) {
 80038ba:	edd7 7a03 	vldr	s15, [r7, #12]
 80038be:	eeb7 7a00 	vmov.f32	s14, #112	@ 0x3f800000  1.0
 80038c2:	eef4 7ac7 	vcmpe.f32	s15, s14
 80038c6:	eef1 fa10 	vmrs	APSR_nzcv, fpscr
 80038ca:	d400      	bmi.n	80038ce <processCommand+0x4ae>
}
 80038cc:	e090      	b.n	80039f0 <processCommand+0x5d0>
            ROTATION_RADIUS_M = new_r;
 80038ce:	68fb      	ldr	r3, [r7, #12]
 80038d0:	4a50      	ldr	r2, [pc, #320]	@ (8003a14 <processCommand+0x5f4>)
 80038d2:	6013      	str	r3, [r2, #0]
}
 80038d4:	e08c      	b.n	80039f0 <processCommand+0x5d0>
    else if (strncmp(cmd, "WHEEL ", 6) == 0) {
 80038d6:	2206      	movs	r2, #6
 80038d8:	494f      	ldr	r1, [pc, #316]	@ (8003a18 <processCommand+0x5f8>)
 80038da:	6878      	ldr	r0, [r7, #4]
 80038dc:	f002 ff9f 	bl	800681e <strncmp>
 80038e0:	4603      	mov	r3, r0
 80038e2:	2b00      	cmp	r3, #0
 80038e4:	d12e      	bne.n	8003944 <processCommand+0x524>
        float new_d=0;
 80038e6:	f04f 0300 	mov.w	r3, #0
 80038ea:	60bb      	str	r3, [r7, #8]
        if (parseOneFloat(cmd + 6, &new_d) && new_d > 0.01f && new_d < 0.5f) {
 80038ec:	687b      	ldr	r3, [r7, #4]
 80038ee:	3306      	adds	r3, #6
 80038f0:	f107 0208 	add.w	r2, r7, #8
 80038f4:	4611      	mov	r1, r2
 80038f6:	4618      	mov	r0, r3
 80038f8:	f7ff fd76 	bl	80033e8 <parseOneFloat>
 80038fc:	4603      	mov	r3, r0
 80038fe:	2b00      	cmp	r3, #0
 8003900:	d076      	beq.n	80039f0 <processCommand+0x5d0>
 8003902:	edd7 7a02 	vldr	s15, [r7, #8]
 8003906:	ed9f 7a42 	vldr	s14, [pc, #264]	@ 8003a10 <processCommand+0x5f0>
 800390a:	eef4 7ac7 	vcmpe.f32	s15, s14
 800390e:	eef1 fa10 	vmrs	APSR_nzcv, fpscr
 8003912:	dc00      	bgt.n	8003916 <processCommand+0x4f6>
}
 8003914:	e06c      	b.n	80039f0 <processCommand+0x5d0>
        if (parseOneFloat(cmd + 6, &new_d) && new_d > 0.01f && new_d < 0.5f) {
 8003916:	edd7 7a02 	vldr	s15, [r7, #8]
 800391a:	eeb6 7a00 	vmov.f32	s14, #96	@ 0x3f000000  0.5
 800391e:	eef4 7ac7 	vcmpe.f32	s15, s14
 8003922:	eef1 fa10 	vmrs	APSR_nzcv, fpscr
 8003926:	d400      	bmi.n	800392a <processCommand+0x50a>
}
 8003928:	e062      	b.n	80039f0 <processCommand+0x5d0>
            WHEEL_DIAMETER_M = new_d;
 800392a:	68bb      	ldr	r3, [r7, #8]
 800392c:	4a3b      	ldr	r2, [pc, #236]	@ (8003a1c <processCommand+0x5fc>)
 800392e:	6013      	str	r3, [r2, #0]
            WHEEL_CIRCUMFERENCE = PI * new_d;
 8003930:	edd7 7a02 	vldr	s15, [r7, #8]
 8003934:	ed9f 7a3a 	vldr	s14, [pc, #232]	@ 8003a20 <processCommand+0x600>
 8003938:	ee67 7a87 	vmul.f32	s15, s15, s14
 800393c:	4b39      	ldr	r3, [pc, #228]	@ (8003a24 <processCommand+0x604>)
 800393e:	edc3 7a00 	vstr	s15, [r3]
}
 8003942:	e055      	b.n	80039f0 <processCommand+0x5d0>
    else if (strncmp(cmd, "IMU_OFFSET ", 11) == 0) {
 8003944:	220b      	movs	r2, #11
 8003946:	4938      	ldr	r1, [pc, #224]	@ (8003a28 <processCommand+0x608>)
 8003948:	6878      	ldr	r0, [r7, #4]
 800394a:	f002 ff68 	bl	800681e <strncmp>
 800394e:	4603      	mov	r3, r0
 8003950:	2b00      	cmp	r3, #0
 8003952:	d12a      	bne.n	80039aa <processCommand+0x58a>
        float target = strtof(cmd + 11, NULL);
 8003954:	687b      	ldr	r3, [r7, #4]
 8003956:	330b      	adds	r3, #11
 8003958:	2100      	movs	r1, #0
 800395a:	4618      	mov	r0, r3
 800395c:	f002 fd2c 	bl	80063b8 <strtof>
 8003960:	ed87 0a1e 	vstr	s0, [r7, #120]	@ 0x78
        if (imu_has_yaw) {
 8003964:	4b31      	ldr	r3, [pc, #196]	@ (8003a2c <processCommand+0x60c>)
 8003966:	781b      	ldrb	r3, [r3, #0]
 8003968:	2b00      	cmp	r3, #0
 800396a:	d041      	beq.n	80039f0 <processCommand+0x5d0>
            imu_yaw_offset_rad = imu_yaw_raw_rad - target;
 800396c:	4b30      	ldr	r3, [pc, #192]	@ (8003a30 <processCommand+0x610>)
 800396e:	ed93 7a00 	vldr	s14, [r3]
 8003972:	edd7 7a1e 	vldr	s15, [r7, #120]	@ 0x78
 8003976:	ee77 7a67 	vsub.f32	s15, s14, s15
 800397a:	4b2e      	ldr	r3, [pc, #184]	@ (8003a34 <processCommand+0x614>)
 800397c:	edc3 7a00 	vstr	s15, [r3]
            imu_yaw_rad = wrapAngle(imu_yaw_raw_rad - imu_yaw_offset_rad);
 8003980:	4b2b      	ldr	r3, [pc, #172]	@ (8003a30 <processCommand+0x610>)
 8003982:	ed93 7a00 	vldr	s14, [r3]
 8003986:	4b2b      	ldr	r3, [pc, #172]	@ (8003a34 <processCommand+0x614>)
 8003988:	edd3 7a00 	vldr	s15, [r3]
 800398c:	ee77 7a67 	vsub.f32	s15, s14, s15
 8003990:	eeb0 0a67 	vmov.f32	s0, s15
 8003994:	f7fe fb62 	bl	800205c <wrapAngle>
 8003998:	eef0 7a40 	vmov.f32	s15, s0
 800399c:	4b26      	ldr	r3, [pc, #152]	@ (8003a38 <processCommand+0x618>)
 800399e:	edc3 7a00 	vstr	s15, [r3]
            headingLocked = false;
 80039a2:	4b26      	ldr	r3, [pc, #152]	@ (8003a3c <processCommand+0x61c>)
 80039a4:	2200      	movs	r2, #0
 80039a6:	701a      	strb	r2, [r3, #0]
}
 80039a8:	e022      	b.n	80039f0 <processCommand+0x5d0>
    else if (strncmp(cmd, "HEADCTRL ", 9) == 0) {
 80039aa:	2209      	movs	r2, #9
 80039ac:	4924      	ldr	r1, [pc, #144]	@ (8003a40 <processCommand+0x620>)
 80039ae:	6878      	ldr	r0, [r7, #4]
 80039b0:	f002 ff35 	bl	800681e <strncmp>
 80039b4:	4603      	mov	r3, r0
 80039b6:	2b00      	cmp	r3, #0
 80039b8:	d11a      	bne.n	80039f0 <processCommand+0x5d0>
        long mode = strtol(cmd + 9, NULL, 10);
 80039ba:	687b      	ldr	r3, [r7, #4]
 80039bc:	3309      	adds	r3, #9
 80039be:	220a      	movs	r2, #10
 80039c0:	2100      	movs	r1, #0
 80039c2:	4618      	mov	r0, r3
 80039c4:	f002 fdd6 	bl	8006574 <strtol>
 80039c8:	67f8      	str	r0, [r7, #124]	@ 0x7c
        externalHeadingControl = (mode != 0);
 80039ca:	6ffb      	ldr	r3, [r7, #124]	@ 0x7c
 80039cc:	2b00      	cmp	r3, #0
 80039ce:	bf14      	ite	ne
 80039d0:	2301      	movne	r3, #1
 80039d2:	2300      	moveq	r3, #0
 80039d4:	b2da      	uxtb	r2, r3
 80039d6:	4b1b      	ldr	r3, [pc, #108]	@ (8003a44 <processCommand+0x624>)
 80039d8:	701a      	strb	r2, [r3, #0]
        headingLocked = false;
 80039da:	4b18      	ldr	r3, [pc, #96]	@ (8003a3c <processCommand+0x61c>)
 80039dc:	2200      	movs	r2, #0
 80039de:	701a      	strb	r2, [r3, #0]
        headingIntegral = 0.0f;
 80039e0:	4b19      	ldr	r3, [pc, #100]	@ (8003a48 <processCommand+0x628>)
 80039e2:	f04f 0200 	mov.w	r2, #0
 80039e6:	601a      	str	r2, [r3, #0]
}
 80039e8:	e002      	b.n	80039f0 <processCommand+0x5d0>
    if (cmd[0] == 'V' && cmd[1] == ' ') {
 80039ea:	bf00      	nop
 80039ec:	e000      	b.n	80039f0 <processCommand+0x5d0>
    else if (cmd[0] == 'P' && cmd[1] == ' ') {
 80039ee:	bf00      	nop
}
 80039f0:	bf00      	nop
 80039f2:	378c      	adds	r7, #140	@ 0x8c
 80039f4:	46bd      	mov	sp, r7
 80039f6:	bdf0      	pop	{r4, r5, r6, r7, pc}
 80039f8:	20000024 	.word	0x20000024
 80039fc:	20000028 	.word	0x20000028
 8003a00:	08008958 	.word	0x08008958
 8003a04:	459c4000 	.word	0x459c4000
 8003a08:	20000020 	.word	0x20000020
 8003a0c:	08008960 	.word	0x08008960
 8003a10:	3c23d70a 	.word	0x3c23d70a
 8003a14:	2000001c 	.word	0x2000001c
 8003a18:	08008968 	.word	0x08008968
 8003a1c:	20000014 	.word	0x20000014
 8003a20:	40490fdb 	.word	0x40490fdb
 8003a24:	20000018 	.word	0x20000018
 8003a28:	08008970 	.word	0x08008970
 8003a2c:	2000033d 	.word	0x2000033d
 8003a30:	20000340 	.word	0x20000340
 8003a34:	20000344 	.word	0x20000344
 8003a38:	20000348 	.word	0x20000348
 8003a3c:	2000036c 	.word	0x2000036c
 8003a40:	0800897c 	.word	0x0800897c
 8003a44:	20000378 	.word	0x20000378
 8003a48:	20000374 	.word	0x20000374

08003a4c <main>:

// ==================== MAIN ====================
int main(void) {
 8003a4c:	e92d 43f0 	stmdb	sp!, {r4, r5, r6, r7, r8, r9, lr}
 8003a50:	b0bd      	sub	sp, #244	@ 0xf4
 8003a52:	af06      	add	r7, sp, #24
    *(volatile uint32_t *)0xE000ED88U |= (0xFU << 20U); // Enable FPU
 8003a54:	4b8c      	ldr	r3, [pc, #560]	@ (8003c88 <main+0x23c>)
 8003a56:	681b      	ldr	r3, [r3, #0]
 8003a58:	4a8b      	ldr	r2, [pc, #556]	@ (8003c88 <main+0x23c>)
 8003a5a:	f443 0370 	orr.w	r3, r3, #15728640	@ 0xf00000
 8003a5e:	6013      	str	r3, [r2, #0]
    
    hardware_init();
 8003a60:	f7fe fbc8 	bl	80021f4 <hardware_init>
    bno_hw_init();
 8003a64:	f7fd f95a 	bl	8000d1c <bno_hw_init>
    __asm volatile("cpsie i");
 8003a68:	b662      	cpsie	i

    memset(&imu, 0, sizeof(imu));
 8003a6a:	22d4      	movs	r2, #212	@ 0xd4
 8003a6c:	2100      	movs	r1, #0
 8003a6e:	4887      	ldr	r0, [pc, #540]	@ (8003c8c <main+0x240>)
 8003a70:	f002 fecd 	bl	800680e <memset>
    memset(&est, 0, sizeof(est));
 8003a74:	2230      	movs	r2, #48	@ 0x30
 8003a76:	2100      	movs	r1, #0
 8003a78:	4885      	ldr	r0, [pc, #532]	@ (8003c90 <main+0x244>)
 8003a7a:	f002 fec8 	bl	800680e <memset>

    BNO08x_EstimatorConfig est_cfg = {
 8003a7e:	4a85      	ldr	r2, [pc, #532]	@ (8003c94 <main+0x248>)
 8003a80:	f107 038c 	add.w	r3, r7, #140	@ 0x8c
 8003a84:	ca07      	ldmia	r2, {r0, r1, r2}
 8003a86:	e883 0007 	stmia.w	r3, {r0, r1, r2}
        .yaw_sign = 1.0f,
        .gyro_tau_s = 0.025f,
        .correction_gain = 0.10f,
    };
    bno_estimator_config(&est_cfg);
 8003a8a:	f107 038c 	add.w	r3, r7, #140	@ 0x8c
 8003a8e:	4618      	mov	r0, r3
 8003a90:	f7fe f834 	bl	8001afc <bno_estimator_config>

    imu_connected = (bno_init() != 0U);
 8003a94:	f7fd ff16 	bl	80018c4 <bno_init>
 8003a98:	4603      	mov	r3, r0
 8003a9a:	2b00      	cmp	r3, #0
 8003a9c:	bf14      	ite	ne
 8003a9e:	2301      	movne	r3, #1
 8003aa0:	2300      	moveq	r3, #0
 8003aa2:	b2da      	uxtb	r2, r3
 8003aa4:	4b7c      	ldr	r3, [pc, #496]	@ (8003c98 <main+0x24c>)
 8003aa6:	701a      	strb	r2, [r3, #0]
    if (imu_connected) {
 8003aa8:	4b7b      	ldr	r3, [pc, #492]	@ (8003c98 <main+0x24c>)
 8003aaa:	781b      	ldrb	r3, [r3, #0]
 8003aac:	2b00      	cmp	r3, #0
 8003aae:	d010      	beq.n	8003ad2 <main+0x86>
        bno_enable(BNO_RPT_GAMEROT, 10000U);
 8003ab0:	f242 7110 	movw	r1, #10000	@ 0x2710
 8003ab4:	2008      	movs	r0, #8
 8003ab6:	f7fd ff45 	bl	8001944 <bno_enable>
        bno_enable(BNO_RPT_GYRO, 10000U);
 8003aba:	f242 7110 	movw	r1, #10000	@ 0x2710
 8003abe:	2002      	movs	r0, #2
 8003ac0:	f7fd ff40 	bl	8001944 <bno_enable>
        bno_zero_yaw(&est);
 8003ac4:	4872      	ldr	r0, [pc, #456]	@ (8003c90 <main+0x244>)
 8003ac6:	f7fe f861 	bl	8001b8c <bno_zero_yaw>
        serial_print("[IMU] San sang!\r\n");
 8003aca:	4874      	ldr	r0, [pc, #464]	@ (8003c9c <main+0x250>)
 8003acc:	f7fe fa88 	bl	8001fe0 <serial_print>
 8003ad0:	e002      	b.n	8003ad8 <main+0x8c>
    } else {
        serial_print("[IMU] Khong the ket noi BNO08x. Su dung Odometry thuan tuy.\r\n");
 8003ad2:	4873      	ldr	r0, [pc, #460]	@ (8003ca0 <main+0x254>)
 8003ad4:	f7fe fa84 	bl	8001fe0 <serial_print>
    }

    hardStopAll();
 8003ad8:	f7fe fe90 	bl	80027fc <hardStopAll>
    resetOdometry();
 8003adc:	f7fe ff28 	bl	8002930 <resetOdometry>
    lastCmdTime = millis();
 8003ae0:	f7fe f9ca 	bl	8001e78 <millis>
 8003ae4:	4603      	mov	r3, r0
 8003ae6:	4a6f      	ldr	r2, [pc, #444]	@ (8003ca4 <main+0x258>)
 8003ae8:	6013      	str	r3, [r2, #0]
    serial_print("MECANUM_READY\r\n");
 8003aea:	486f      	ldr	r0, [pc, #444]	@ (8003ca8 <main+0x25c>)
 8003aec:	f7fe fa78 	bl	8001fe0 <serial_print>

    uint32_t last_measure_us = micros();
 8003af0:	f7fe f9b6 	bl	8001e60 <micros>
 8003af4:	f8c7 00d4 	str.w	r0, [r7, #212]	@ 0xd4
    uint32_t last_imu_poll_ms = millis();
 8003af8:	f7fe f9be 	bl	8001e78 <millis>
 8003afc:	f8c7 00d0 	str.w	r0, [r7, #208]	@ 0xd0

    while (1) {
        // --- Đọc Serial ---
        uint8_t c;
        if (serial_receive(&c)) {
 8003b00:	f107 038b 	add.w	r3, r7, #139	@ 0x8b
 8003b04:	4618      	mov	r0, r3
 8003b06:	f7fe fa8d 	bl	8002024 <serial_receive>
 8003b0a:	4603      	mov	r3, r0
 8003b0c:	2b00      	cmp	r3, #0
 8003b0e:	d02b      	beq.n	8003b68 <main+0x11c>
            if (c == '\n' || c == '\r') {
 8003b10:	f897 308b 	ldrb.w	r3, [r7, #139]	@ 0x8b
 8003b14:	2b0a      	cmp	r3, #10
 8003b16:	d003      	beq.n	8003b20 <main+0xd4>
 8003b18:	f897 308b 	ldrb.w	r3, [r7, #139]	@ 0x8b
 8003b1c:	2b0d      	cmp	r3, #13
 8003b1e:	d110      	bne.n	8003b42 <main+0xf6>
                if (serialIdx > 0) {
 8003b20:	4b62      	ldr	r3, [pc, #392]	@ (8003cac <main+0x260>)
 8003b22:	781b      	ldrb	r3, [r3, #0]
 8003b24:	2b00      	cmp	r3, #0
 8003b26:	d01f      	beq.n	8003b68 <main+0x11c>
                    serialBuf[serialIdx] = '\0';
 8003b28:	4b60      	ldr	r3, [pc, #384]	@ (8003cac <main+0x260>)
 8003b2a:	781b      	ldrb	r3, [r3, #0]
 8003b2c:	461a      	mov	r2, r3
 8003b2e:	4b60      	ldr	r3, [pc, #384]	@ (8003cb0 <main+0x264>)
 8003b30:	2100      	movs	r1, #0
 8003b32:	5499      	strb	r1, [r3, r2]
                    processCommand(serialBuf);
 8003b34:	485e      	ldr	r0, [pc, #376]	@ (8003cb0 <main+0x264>)
 8003b36:	f7ff fc73 	bl	8003420 <processCommand>
                    serialIdx = 0;
 8003b3a:	4b5c      	ldr	r3, [pc, #368]	@ (8003cac <main+0x260>)
 8003b3c:	2200      	movs	r2, #0
 8003b3e:	701a      	strb	r2, [r3, #0]
                if (serialIdx > 0) {
 8003b40:	e012      	b.n	8003b68 <main+0x11c>
                }
            } else {
                if (serialIdx < sizeof(serialBuf) - 1) {
 8003b42:	4b5a      	ldr	r3, [pc, #360]	@ (8003cac <main+0x260>)
 8003b44:	781b      	ldrb	r3, [r3, #0]
 8003b46:	2b3e      	cmp	r3, #62	@ 0x3e
 8003b48:	d80b      	bhi.n	8003b62 <main+0x116>
                    serialBuf[serialIdx++] = (char)c;
 8003b4a:	4b58      	ldr	r3, [pc, #352]	@ (8003cac <main+0x260>)
 8003b4c:	781b      	ldrb	r3, [r3, #0]
 8003b4e:	1c5a      	adds	r2, r3, #1
 8003b50:	b2d1      	uxtb	r1, r2
 8003b52:	4a56      	ldr	r2, [pc, #344]	@ (8003cac <main+0x260>)
 8003b54:	7011      	strb	r1, [r2, #0]
 8003b56:	461a      	mov	r2, r3
 8003b58:	f897 108b 	ldrb.w	r1, [r7, #139]	@ 0x8b
 8003b5c:	4b54      	ldr	r3, [pc, #336]	@ (8003cb0 <main+0x264>)
 8003b5e:	5499      	strb	r1, [r3, r2]
 8003b60:	e002      	b.n	8003b68 <main+0x11c>
                } else {
                    serialIdx = 0;
 8003b62:	4b52      	ldr	r3, [pc, #328]	@ (8003cac <main+0x260>)
 8003b64:	2200      	movs	r2, #0
 8003b66:	701a      	strb	r2, [r3, #0]
                }
            }
        }

        // --- Đọc BNO08x (Polling) ---
        if (imu_connected && (uint32_t)(millis() - last_imu_poll_ms) >= 5U) {
 8003b68:	4b4b      	ldr	r3, [pc, #300]	@ (8003c98 <main+0x24c>)
 8003b6a:	781b      	ldrb	r3, [r3, #0]
 8003b6c:	2b00      	cmp	r3, #0
 8003b6e:	d00e      	beq.n	8003b8e <main+0x142>
 8003b70:	f7fe f982 	bl	8001e78 <millis>
 8003b74:	4602      	mov	r2, r0
 8003b76:	f8d7 30d0 	ldr.w	r3, [r7, #208]	@ 0xd0
 8003b7a:	1ad3      	subs	r3, r2, r3
 8003b7c:	2b04      	cmp	r3, #4
 8003b7e:	d906      	bls.n	8003b8e <main+0x142>
            last_imu_poll_ms = millis();
 8003b80:	f7fe f97a 	bl	8001e78 <millis>
 8003b84:	f8c7 00d0 	str.w	r0, [r7, #208]	@ 0xd0
            bno_update(&imu);
 8003b88:	4840      	ldr	r0, [pc, #256]	@ (8003c8c <main+0x240>)
 8003b8a:	f7fd ff2d 	bl	80019e8 <bno_update>
        }

        // --- Vòng PID 100Hz (10ms) ---
        uint32_t now_us = micros();
 8003b8e:	f7fe f967 	bl	8001e60 <micros>
 8003b92:	f8c7 00ac 	str.w	r0, [r7, #172]	@ 0xac
        uint32_t elapsed_us = now_us - last_measure_us;
 8003b96:	f8d7 20ac 	ldr.w	r2, [r7, #172]	@ 0xac
 8003b9a:	f8d7 30d4 	ldr.w	r3, [r7, #212]	@ 0xd4
 8003b9e:	1ad3      	subs	r3, r2, r3
 8003ba0:	f8c7 30a8 	str.w	r3, [r7, #168]	@ 0xa8
        if (elapsed_us >= (CTRL_DT_MS * 1000U)) {
 8003ba4:	230a      	movs	r3, #10
 8003ba6:	f44f 727a 	mov.w	r2, #1000	@ 0x3e8
 8003baa:	fb02 f303 	mul.w	r3, r2, r3
 8003bae:	f8d7 20a8 	ldr.w	r2, [r7, #168]	@ 0xa8
 8003bb2:	429a      	cmp	r2, r3
 8003bb4:	d3a4      	bcc.n	8003b00 <main+0xb4>
            float dt = (float)elapsed_us * 1.0e-6f;
 8003bb6:	f8d7 30a8 	ldr.w	r3, [r7, #168]	@ 0xa8
 8003bba:	ee07 3a90 	vmov	s15, r3
 8003bbe:	eef8 7a67 	vcvt.f32.u32	s15, s15
 8003bc2:	ed9f 7a3c 	vldr	s14, [pc, #240]	@ 8003cb4 <main+0x268>
 8003bc6:	ee67 7a87 	vmul.f32	s15, s15, s14
 8003bca:	edc7 7a33 	vstr	s15, [r7, #204]	@ 0xcc
            if (dt <= 0.0f || dt > 0.1f) dt = (float)(CTRL_DT_MS * 1000U) * 1.0e-6f;
 8003bce:	edd7 7a33 	vldr	s15, [r7, #204]	@ 0xcc
 8003bd2:	eef5 7ac0 	vcmpe.f32	s15, #0.0
 8003bd6:	eef1 fa10 	vmrs	APSR_nzcv, fpscr
 8003bda:	d908      	bls.n	8003bee <main+0x1a2>
 8003bdc:	edd7 7a33 	vldr	s15, [r7, #204]	@ 0xcc
 8003be0:	ed9f 7a35 	vldr	s14, [pc, #212]	@ 8003cb8 <main+0x26c>
 8003be4:	eef4 7ac7 	vcmpe.f32	s15, s14
 8003be8:	eef1 fa10 	vmrs	APSR_nzcv, fpscr
 8003bec:	dd0e      	ble.n	8003c0c <main+0x1c0>
 8003bee:	230a      	movs	r3, #10
 8003bf0:	f44f 727a 	mov.w	r2, #1000	@ 0x3e8
 8003bf4:	fb02 f303 	mul.w	r3, r2, r3
 8003bf8:	ee07 3a90 	vmov	s15, r3
 8003bfc:	eef8 7a67 	vcvt.f32.u32	s15, s15
 8003c00:	ed9f 7a2c 	vldr	s14, [pc, #176]	@ 8003cb4 <main+0x268>
 8003c04:	ee67 7a87 	vmul.f32	s15, s15, s14
 8003c08:	edc7 7a33 	vstr	s15, [r7, #204]	@ 0xcc
            last_measure_us = now_us;
 8003c0c:	f8d7 30ac 	ldr.w	r3, [r7, #172]	@ 0xac
 8003c10:	f8c7 30d4 	str.w	r3, [r7, #212]	@ 0xd4

            // 1. Đo lường encoder
            long encNow[4];
            __asm volatile("cpsid i");
 8003c14:	b672      	cpsid	i
            for (int i = 0; i < 4; i++) encNow[i] = enc_count[i];
 8003c16:	2300      	movs	r3, #0
 8003c18:	f8c7 30c8 	str.w	r3, [r7, #200]	@ 0xc8
 8003c1c:	e012      	b.n	8003c44 <main+0x1f8>
 8003c1e:	4a27      	ldr	r2, [pc, #156]	@ (8003cbc <main+0x270>)
 8003c20:	f8d7 30c8 	ldr.w	r3, [r7, #200]	@ 0xc8
 8003c24:	f852 2023 	ldr.w	r2, [r2, r3, lsl #2]
 8003c28:	f8d7 30c8 	ldr.w	r3, [r7, #200]	@ 0xc8
 8003c2c:	009b      	lsls	r3, r3, #2
 8003c2e:	33d0      	adds	r3, #208	@ 0xd0
 8003c30:	f107 0108 	add.w	r1, r7, #8
 8003c34:	440b      	add	r3, r1
 8003c36:	f843 2c60 	str.w	r2, [r3, #-96]
 8003c3a:	f8d7 30c8 	ldr.w	r3, [r7, #200]	@ 0xc8
 8003c3e:	3301      	adds	r3, #1
 8003c40:	f8c7 30c8 	str.w	r3, [r7, #200]	@ 0xc8
 8003c44:	f8d7 30c8 	ldr.w	r3, [r7, #200]	@ 0xc8
 8003c48:	2b03      	cmp	r3, #3
 8003c4a:	dde8      	ble.n	8003c1e <main+0x1d2>
            __asm volatile("cpsie i");
 8003c4c:	b662      	cpsie	i

            float ticks_to_rpm = 60.0f / (TICKS_PER_REV * dt);
 8003c4e:	ed9f 7a1c 	vldr	s14, [pc, #112]	@ 8003cc0 <main+0x274>
 8003c52:	edd7 7a33 	vldr	s15, [r7, #204]	@ 0xcc
 8003c56:	ee27 7a27 	vmul.f32	s14, s14, s15
 8003c5a:	eddf 6a1a 	vldr	s13, [pc, #104]	@ 8003cc4 <main+0x278>
 8003c5e:	eec6 7a87 	vdiv.f32	s15, s13, s14
 8003c62:	edc7 7a29 	vstr	s15, [r7, #164]	@ 0xa4
            float alpha = dt / (TAU_WHEEL_MEAS + dt);
 8003c66:	ed9f 7a18 	vldr	s14, [pc, #96]	@ 8003cc8 <main+0x27c>
 8003c6a:	edd7 7a33 	vldr	s15, [r7, #204]	@ 0xcc
 8003c6e:	ee37 7a27 	vadd.f32	s14, s14, s15
 8003c72:	edd7 6a33 	vldr	s13, [r7, #204]	@ 0xcc
 8003c76:	eec6 7a87 	vdiv.f32	s15, s13, s14
 8003c7a:	edc7 7a28 	vstr	s15, [r7, #160]	@ 0xa0
            for (int i = 0; i < 4; i++) {
 8003c7e:	2300      	movs	r3, #0
 8003c80:	f8c7 30c4 	str.w	r3, [r7, #196]	@ 0xc4
 8003c84:	e087      	b.n	8003d96 <main+0x34a>
 8003c86:	bf00      	nop
 8003c88:	e000ed88 	.word	0xe000ed88
 8003c8c:	20000458 	.word	0x20000458
 8003c90:	2000052c 	.word	0x2000052c
 8003c94:	08008a20 	.word	0x08008a20
 8003c98:	2000033c 	.word	0x2000033c
 8003c9c:	08008988 	.word	0x08008988
 8003ca0:	0800899c 	.word	0x0800899c
 8003ca4:	2000037c 	.word	0x2000037c
 8003ca8:	080089dc 	.word	0x080089dc
 8003cac:	200003d4 	.word	0x200003d4
 8003cb0:	20000394 	.word	0x20000394
 8003cb4:	358637bd 	.word	0x358637bd
 8003cb8:	3dcccccd 	.word	0x3dcccccd
 8003cbc:	200002a4 	.word	0x200002a4
 8003cc0:	43fa0000 	.word	0x43fa0000
 8003cc4:	42700000 	.word	0x42700000
 8003cc8:	3d23d70a 	.word	0x3d23d70a
                long delta = encNow[i] - prev_enc_count[i];
 8003ccc:	f8d7 30c4 	ldr.w	r3, [r7, #196]	@ 0xc4
 8003cd0:	009b      	lsls	r3, r3, #2
 8003cd2:	33d0      	adds	r3, #208	@ 0xd0
 8003cd4:	f107 0208 	add.w	r2, r7, #8
 8003cd8:	4413      	add	r3, r2
 8003cda:	f853 2c60 	ldr.w	r2, [r3, #-96]
 8003cde:	49cb      	ldr	r1, [pc, #812]	@ (800400c <main+0x5c0>)
 8003ce0:	f8d7 30c4 	ldr.w	r3, [r7, #196]	@ 0xc4
 8003ce4:	f851 3023 	ldr.w	r3, [r1, r3, lsl #2]
 8003ce8:	1ad3      	subs	r3, r2, r3
 8003cea:	f8c7 30c0 	str.w	r3, [r7, #192]	@ 0xc0
                if (labs(delta) > 10000) delta = 0;
 8003cee:	f8d7 30c0 	ldr.w	r3, [r7, #192]	@ 0xc0
 8003cf2:	2b00      	cmp	r3, #0
 8003cf4:	bfb8      	it	lt
 8003cf6:	425b      	neglt	r3, r3
 8003cf8:	f242 7210 	movw	r2, #10000	@ 0x2710
 8003cfc:	4293      	cmp	r3, r2
 8003cfe:	dd02      	ble.n	8003d06 <main+0x2ba>
 8003d00:	2300      	movs	r3, #0
 8003d02:	f8c7 30c0 	str.w	r3, [r7, #192]	@ 0xc0
                actualRPM[i] = delta * ticks_to_rpm;
 8003d06:	f8d7 30c0 	ldr.w	r3, [r7, #192]	@ 0xc0
 8003d0a:	ee07 3a90 	vmov	s15, r3
 8003d0e:	eeb8 7ae7 	vcvt.f32.s32	s14, s15
 8003d12:	edd7 7a29 	vldr	s15, [r7, #164]	@ 0xa4
 8003d16:	ee67 7a27 	vmul.f32	s15, s14, s15
 8003d1a:	4abd      	ldr	r2, [pc, #756]	@ (8004010 <main+0x5c4>)
 8003d1c:	f8d7 30c4 	ldr.w	r3, [r7, #196]	@ 0xc4
 8003d20:	009b      	lsls	r3, r3, #2
 8003d22:	4413      	add	r3, r2
 8003d24:	edc3 7a00 	vstr	s15, [r3]
                actualRPMFilt[i] += alpha * (actualRPM[i] - actualRPMFilt[i]);
 8003d28:	4aba      	ldr	r2, [pc, #744]	@ (8004014 <main+0x5c8>)
 8003d2a:	f8d7 30c4 	ldr.w	r3, [r7, #196]	@ 0xc4
 8003d2e:	009b      	lsls	r3, r3, #2
 8003d30:	4413      	add	r3, r2
 8003d32:	ed93 7a00 	vldr	s14, [r3]
 8003d36:	4ab6      	ldr	r2, [pc, #728]	@ (8004010 <main+0x5c4>)
 8003d38:	f8d7 30c4 	ldr.w	r3, [r7, #196]	@ 0xc4
 8003d3c:	009b      	lsls	r3, r3, #2
 8003d3e:	4413      	add	r3, r2
 8003d40:	edd3 6a00 	vldr	s13, [r3]
 8003d44:	4ab3      	ldr	r2, [pc, #716]	@ (8004014 <main+0x5c8>)
 8003d46:	f8d7 30c4 	ldr.w	r3, [r7, #196]	@ 0xc4
 8003d4a:	009b      	lsls	r3, r3, #2
 8003d4c:	4413      	add	r3, r2
 8003d4e:	edd3 7a00 	vldr	s15, [r3]
 8003d52:	ee76 6ae7 	vsub.f32	s13, s13, s15
 8003d56:	edd7 7a28 	vldr	s15, [r7, #160]	@ 0xa0
 8003d5a:	ee66 7aa7 	vmul.f32	s15, s13, s15
 8003d5e:	ee77 7a27 	vadd.f32	s15, s14, s15
 8003d62:	4aac      	ldr	r2, [pc, #688]	@ (8004014 <main+0x5c8>)
 8003d64:	f8d7 30c4 	ldr.w	r3, [r7, #196]	@ 0xc4
 8003d68:	009b      	lsls	r3, r3, #2
 8003d6a:	4413      	add	r3, r2
 8003d6c:	edc3 7a00 	vstr	s15, [r3]
                prev_enc_count[i] = encNow[i];
 8003d70:	f8d7 30c4 	ldr.w	r3, [r7, #196]	@ 0xc4
 8003d74:	009b      	lsls	r3, r3, #2
 8003d76:	33d0      	adds	r3, #208	@ 0xd0
 8003d78:	f107 0208 	add.w	r2, r7, #8
 8003d7c:	4413      	add	r3, r2
 8003d7e:	f853 2c60 	ldr.w	r2, [r3, #-96]
 8003d82:	49a2      	ldr	r1, [pc, #648]	@ (800400c <main+0x5c0>)
 8003d84:	f8d7 30c4 	ldr.w	r3, [r7, #196]	@ 0xc4
 8003d88:	f841 2023 	str.w	r2, [r1, r3, lsl #2]
            for (int i = 0; i < 4; i++) {
 8003d8c:	f8d7 30c4 	ldr.w	r3, [r7, #196]	@ 0xc4
 8003d90:	3301      	adds	r3, #1
 8003d92:	f8c7 30c4 	str.w	r3, [r7, #196]	@ 0xc4
 8003d96:	f8d7 30c4 	ldr.w	r3, [r7, #196]	@ 0xc4
 8003d9a:	2b03      	cmp	r3, #3
 8003d9c:	dd96      	ble.n	8003ccc <main+0x280>
            }

            // 2. Cập nhật IMU State
            if (imu_connected) {
 8003d9e:	4b9e      	ldr	r3, [pc, #632]	@ (8004018 <main+0x5cc>)
 8003da0:	781b      	ldrb	r3, [r3, #0]
 8003da2:	2b00      	cmp	r3, #0
 8003da4:	d032      	beq.n	8003e0c <main+0x3c0>
                bno_estimator_update(&imu, dt, &est);
 8003da6:	499d      	ldr	r1, [pc, #628]	@ (800401c <main+0x5d0>)
 8003da8:	ed97 0a33 	vldr	s0, [r7, #204]	@ 0xcc
 8003dac:	489c      	ldr	r0, [pc, #624]	@ (8004020 <main+0x5d4>)
 8003dae:	f7fd ff11 	bl	8001bd4 <bno_estimator_update>
                imu_has_yaw = true;
 8003db2:	4b9c      	ldr	r3, [pc, #624]	@ (8004024 <main+0x5d8>)
 8003db4:	2201      	movs	r2, #1
 8003db6:	701a      	strb	r2, [r3, #0]
                imu_has_gyro = true;
 8003db8:	4b9b      	ldr	r3, [pc, #620]	@ (8004028 <main+0x5dc>)
 8003dba:	2201      	movs	r2, #1
 8003dbc:	701a      	strb	r2, [r3, #0]
                imu_yaw_raw_rad = est.yaw_raw_rad;
 8003dbe:	4b97      	ldr	r3, [pc, #604]	@ (800401c <main+0x5d0>)
 8003dc0:	681b      	ldr	r3, [r3, #0]
 8003dc2:	4a9a      	ldr	r2, [pc, #616]	@ (800402c <main+0x5e0>)
 8003dc4:	6013      	str	r3, [r2, #0]
                
                if (imu_pending_offset) {
 8003dc6:	4b9a      	ldr	r3, [pc, #616]	@ (8004030 <main+0x5e4>)
 8003dc8:	781b      	ldrb	r3, [r3, #0]
 8003dca:	2b00      	cmp	r3, #0
 8003dcc:	d009      	beq.n	8003de2 <main+0x396>
                    imu_yaw_offset_rad = imu_yaw_raw_rad;
 8003dce:	4b97      	ldr	r3, [pc, #604]	@ (800402c <main+0x5e0>)
 8003dd0:	681b      	ldr	r3, [r3, #0]
 8003dd2:	4a98      	ldr	r2, [pc, #608]	@ (8004034 <main+0x5e8>)
 8003dd4:	6013      	str	r3, [r2, #0]
                    imu_pending_offset = false;
 8003dd6:	4b96      	ldr	r3, [pc, #600]	@ (8004030 <main+0x5e4>)
 8003dd8:	2200      	movs	r2, #0
 8003dda:	701a      	strb	r2, [r3, #0]
                    serial_print("[IMU] Chup offset yaw\r\n");
 8003ddc:	4896      	ldr	r0, [pc, #600]	@ (8004038 <main+0x5ec>)
 8003dde:	f7fe f8ff 	bl	8001fe0 <serial_print>
                }
                
                imu_yaw_rad = wrapAngle(imu_yaw_raw_rad - imu_yaw_offset_rad);
 8003de2:	4b92      	ldr	r3, [pc, #584]	@ (800402c <main+0x5e0>)
 8003de4:	ed93 7a00 	vldr	s14, [r3]
 8003de8:	4b92      	ldr	r3, [pc, #584]	@ (8004034 <main+0x5e8>)
 8003dea:	edd3 7a00 	vldr	s15, [r3]
 8003dee:	ee77 7a67 	vsub.f32	s15, s14, s15
 8003df2:	eeb0 0a67 	vmov.f32	s0, s15
 8003df6:	f7fe f931 	bl	800205c <wrapAngle>
 8003dfa:	eef0 7a40 	vmov.f32	s15, s0
 8003dfe:	4b8f      	ldr	r3, [pc, #572]	@ (800403c <main+0x5f0>)
 8003e00:	edc3 7a00 	vstr	s15, [r3]
                imu_wz_rad_s = est.gyro_z_filt_rad_s;
 8003e04:	4b85      	ldr	r3, [pc, #532]	@ (800401c <main+0x5d0>)
 8003e06:	6a1b      	ldr	r3, [r3, #32]
 8003e08:	4a8d      	ldr	r2, [pc, #564]	@ (8004040 <main+0x5f4>)
 8003e0a:	6013      	str	r3, [r2, #0]
            }

            // 3. Tính toán Odometry & Timeout
            updateOdometry(dt);
 8003e0c:	ed97 0a33 	vldr	s0, [r7, #204]	@ 0xcc
 8003e10:	f7ff f808 	bl	8002e24 <updateOdometry>

            if (millis() - lastCmdTime > CMD_TIMEOUT_MS) {
 8003e14:	f7fe f830 	bl	8001e78 <millis>
 8003e18:	4602      	mov	r2, r0
 8003e1a:	4b8a      	ldr	r3, [pc, #552]	@ (8004044 <main+0x5f8>)
 8003e1c:	681b      	ldr	r3, [r3, #0]
 8003e1e:	1ad3      	subs	r3, r2, r3
 8003e20:	f44f 72fa 	mov.w	r2, #500	@ 0x1f4
 8003e24:	4293      	cmp	r3, r2
 8003e26:	d90b      	bls.n	8003e40 <main+0x3f4>
                vxTarget = 0.0f; vyTarget = 0.0f; wzTarget = 0.0f;
 8003e28:	4b87      	ldr	r3, [pc, #540]	@ (8004048 <main+0x5fc>)
 8003e2a:	f04f 0200 	mov.w	r2, #0
 8003e2e:	601a      	str	r2, [r3, #0]
 8003e30:	4b86      	ldr	r3, [pc, #536]	@ (800404c <main+0x600>)
 8003e32:	f04f 0200 	mov.w	r2, #0
 8003e36:	601a      	str	r2, [r3, #0]
 8003e38:	4b85      	ldr	r3, [pc, #532]	@ (8004050 <main+0x604>)
 8003e3a:	f04f 0200 	mov.w	r2, #0
 8003e3e:	601a      	str	r2, [r3, #0]
            }

            vxCmd = slewToward(vxCmd, vxTarget, CMD_SLEW_VX_MPS_S * dt);
 8003e40:	4b84      	ldr	r3, [pc, #528]	@ (8004054 <main+0x608>)
 8003e42:	ed93 7a00 	vldr	s14, [r3]
 8003e46:	4b80      	ldr	r3, [pc, #512]	@ (8004048 <main+0x5fc>)
 8003e48:	edd3 6a00 	vldr	s13, [r3]
 8003e4c:	ed9f 6a82 	vldr	s12, [pc, #520]	@ 8004058 <main+0x60c>
 8003e50:	edd7 7a33 	vldr	s15, [r7, #204]	@ 0xcc
 8003e54:	ee66 7a27 	vmul.f32	s15, s12, s15
 8003e58:	eeb0 1a67 	vmov.f32	s2, s15
 8003e5c:	eef0 0a66 	vmov.f32	s1, s13
 8003e60:	eeb0 0a47 	vmov.f32	s0, s14
 8003e64:	f7fe f986 	bl	8002174 <slewToward>
 8003e68:	eef0 7a40 	vmov.f32	s15, s0
 8003e6c:	4b79      	ldr	r3, [pc, #484]	@ (8004054 <main+0x608>)
 8003e6e:	edc3 7a00 	vstr	s15, [r3]
            vyCmd = slewToward(vyCmd, vyTarget, CMD_SLEW_VY_MPS_S * dt);
 8003e72:	4b7a      	ldr	r3, [pc, #488]	@ (800405c <main+0x610>)
 8003e74:	ed93 7a00 	vldr	s14, [r3]
 8003e78:	4b74      	ldr	r3, [pc, #464]	@ (800404c <main+0x600>)
 8003e7a:	edd3 6a00 	vldr	s13, [r3]
 8003e7e:	eeb7 6a00 	vmov.f32	s12, #112	@ 0x3f800000  1.0
 8003e82:	edd7 7a33 	vldr	s15, [r7, #204]	@ 0xcc
 8003e86:	ee66 7a27 	vmul.f32	s15, s12, s15
 8003e8a:	eeb0 1a67 	vmov.f32	s2, s15
 8003e8e:	eef0 0a66 	vmov.f32	s1, s13
 8003e92:	eeb0 0a47 	vmov.f32	s0, s14
 8003e96:	f7fe f96d 	bl	8002174 <slewToward>
 8003e9a:	eef0 7a40 	vmov.f32	s15, s0
 8003e9e:	4b6f      	ldr	r3, [pc, #444]	@ (800405c <main+0x610>)
 8003ea0:	edc3 7a00 	vstr	s15, [r3]
            wzCmd = slewToward(wzCmd, wzTarget, CMD_SLEW_WZ_RAD_S2 * dt);
 8003ea4:	4b6e      	ldr	r3, [pc, #440]	@ (8004060 <main+0x614>)
 8003ea6:	ed93 7a00 	vldr	s14, [r3]
 8003eaa:	4b69      	ldr	r3, [pc, #420]	@ (8004050 <main+0x604>)
 8003eac:	edd3 6a00 	vldr	s13, [r3]
 8003eb0:	eeb0 6a08 	vmov.f32	s12, #8	@ 0x40400000  3.0
 8003eb4:	edd7 7a33 	vldr	s15, [r7, #204]	@ 0xcc
 8003eb8:	ee66 7a27 	vmul.f32	s15, s12, s15
 8003ebc:	eeb0 1a67 	vmov.f32	s2, s15
 8003ec0:	eef0 0a66 	vmov.f32	s1, s13
 8003ec4:	eeb0 0a47 	vmov.f32	s0, s14
 8003ec8:	f7fe f954 	bl	8002174 <slewToward>
 8003ecc:	eef0 7a40 	vmov.f32	s15, s0
 8003ed0:	4b63      	ldr	r3, [pc, #396]	@ (8004060 <main+0x614>)
 8003ed2:	edc3 7a00 	vstr	s15, [r3]

            // 4. IK và PID
            float wzApplied = applyHeadingControl(vxCmd, vyCmd, wzCmd, dt);
 8003ed6:	4b5f      	ldr	r3, [pc, #380]	@ (8004054 <main+0x608>)
 8003ed8:	edd3 7a00 	vldr	s15, [r3]
 8003edc:	4b5f      	ldr	r3, [pc, #380]	@ (800405c <main+0x610>)
 8003ede:	ed93 7a00 	vldr	s14, [r3]
 8003ee2:	4b5f      	ldr	r3, [pc, #380]	@ (8004060 <main+0x614>)
 8003ee4:	edd3 6a00 	vldr	s13, [r3]
 8003ee8:	edd7 1a33 	vldr	s3, [r7, #204]	@ 0xcc
 8003eec:	eeb0 1a66 	vmov.f32	s2, s13
 8003ef0:	eef0 0a47 	vmov.f32	s1, s14
 8003ef4:	eeb0 0a67 	vmov.f32	s0, s15
 8003ef8:	f7ff f894 	bl	8003024 <applyHeadingControl>
 8003efc:	ed87 0a27 	vstr	s0, [r7, #156]	@ 0x9c
            mecanumIK(vxCmd, vyCmd, wzApplied);
 8003f00:	4b54      	ldr	r3, [pc, #336]	@ (8004054 <main+0x608>)
 8003f02:	edd3 7a00 	vldr	s15, [r3]
 8003f06:	4b55      	ldr	r3, [pc, #340]	@ (800405c <main+0x610>)
 8003f08:	ed93 7a00 	vldr	s14, [r3]
 8003f0c:	ed97 1a27 	vldr	s2, [r7, #156]	@ 0x9c
 8003f10:	eef0 0a47 	vmov.f32	s1, s14
 8003f14:	eeb0 0a67 	vmov.f32	s0, s15
 8003f18:	f7fe fd50 	bl	80029bc <mecanumIK>

            for (int i = 0; i < 4; i++) {
 8003f1c:	2300      	movs	r3, #0
 8003f1e:	f8c7 30bc 	str.w	r3, [r7, #188]	@ 0xbc
 8003f22:	e02f      	b.n	8003f84 <main+0x538>
                pwmOutput[i] = updateWheelController(targetRPM[i], actualRPMFilt[i], &wheelIntegralPwm[i], &filtRef[i], dt);
 8003f24:	4a4f      	ldr	r2, [pc, #316]	@ (8004064 <main+0x618>)
 8003f26:	f8d7 30bc 	ldr.w	r3, [r7, #188]	@ 0xbc
 8003f2a:	009b      	lsls	r3, r3, #2
 8003f2c:	4413      	add	r3, r2
 8003f2e:	edd3 7a00 	vldr	s15, [r3]
 8003f32:	4a38      	ldr	r2, [pc, #224]	@ (8004014 <main+0x5c8>)
 8003f34:	f8d7 30bc 	ldr.w	r3, [r7, #188]	@ 0xbc
 8003f38:	009b      	lsls	r3, r3, #2
 8003f3a:	4413      	add	r3, r2
 8003f3c:	ed93 7a00 	vldr	s14, [r3]
 8003f40:	f8d7 30bc 	ldr.w	r3, [r7, #188]	@ 0xbc
 8003f44:	009b      	lsls	r3, r3, #2
 8003f46:	4a48      	ldr	r2, [pc, #288]	@ (8004068 <main+0x61c>)
 8003f48:	441a      	add	r2, r3
 8003f4a:	f8d7 30bc 	ldr.w	r3, [r7, #188]	@ 0xbc
 8003f4e:	009b      	lsls	r3, r3, #2
 8003f50:	4946      	ldr	r1, [pc, #280]	@ (800406c <main+0x620>)
 8003f52:	440b      	add	r3, r1
 8003f54:	ed97 1a33 	vldr	s2, [r7, #204]	@ 0xcc
 8003f58:	4619      	mov	r1, r3
 8003f5a:	4610      	mov	r0, r2
 8003f5c:	eef0 0a47 	vmov.f32	s1, s14
 8003f60:	eeb0 0a67 	vmov.f32	s0, s15
 8003f64:	f7fe fe08 	bl	8002b78 <updateWheelController>
 8003f68:	eef0 7a40 	vmov.f32	s15, s0
 8003f6c:	4a40      	ldr	r2, [pc, #256]	@ (8004070 <main+0x624>)
 8003f6e:	f8d7 30bc 	ldr.w	r3, [r7, #188]	@ 0xbc
 8003f72:	009b      	lsls	r3, r3, #2
 8003f74:	4413      	add	r3, r2
 8003f76:	edc3 7a00 	vstr	s15, [r3]
            for (int i = 0; i < 4; i++) {
 8003f7a:	f8d7 30bc 	ldr.w	r3, [r7, #188]	@ 0xbc
 8003f7e:	3301      	adds	r3, #1
 8003f80:	f8c7 30bc 	str.w	r3, [r7, #188]	@ 0xbc
 8003f84:	f8d7 30bc 	ldr.w	r3, [r7, #188]	@ 0xbc
 8003f88:	2b03      	cmp	r3, #3
 8003f8a:	ddcb      	ble.n	8003f24 <main+0x4d8>
            }

            bool nearStopCmd = (fabsf(targetRPM[0]) + fabsf(targetRPM[1]) + fabsf(targetRPM[2]) + fabsf(targetRPM[3])) < 20.0f;
 8003f8c:	4b35      	ldr	r3, [pc, #212]	@ (8004064 <main+0x618>)
 8003f8e:	edd3 7a00 	vldr	s15, [r3]
 8003f92:	eeb0 7ae7 	vabs.f32	s14, s15
 8003f96:	4b33      	ldr	r3, [pc, #204]	@ (8004064 <main+0x618>)
 8003f98:	edd3 7a01 	vldr	s15, [r3, #4]
 8003f9c:	eef0 7ae7 	vabs.f32	s15, s15
 8003fa0:	ee37 7a27 	vadd.f32	s14, s14, s15
 8003fa4:	4b2f      	ldr	r3, [pc, #188]	@ (8004064 <main+0x618>)
 8003fa6:	edd3 7a02 	vldr	s15, [r3, #8]
 8003faa:	eef0 7ae7 	vabs.f32	s15, s15
 8003fae:	ee37 7a27 	vadd.f32	s14, s14, s15
 8003fb2:	4b2c      	ldr	r3, [pc, #176]	@ (8004064 <main+0x618>)
 8003fb4:	edd3 7a03 	vldr	s15, [r3, #12]
 8003fb8:	eef0 7ae7 	vabs.f32	s15, s15
 8003fbc:	ee77 7a27 	vadd.f32	s15, s14, s15
 8003fc0:	eeb3 7a04 	vmov.f32	s14, #52	@ 0x41a00000  20.0
 8003fc4:	eef4 7ac7 	vcmpe.f32	s15, s14
 8003fc8:	eef1 fa10 	vmrs	APSR_nzcv, fpscr
 8003fcc:	bf4c      	ite	mi
 8003fce:	2301      	movmi	r3, #1
 8003fd0:	2300      	movpl	r3, #0
 8003fd2:	f887 309b 	strb.w	r3, [r7, #155]	@ 0x9b
            bool nearStopMeas = true;
 8003fd6:	2301      	movs	r3, #1
 8003fd8:	f887 30bb 	strb.w	r3, [r7, #187]	@ 0xbb
            for (int i = 0; i < 4; ++i) {
 8003fdc:	2300      	movs	r3, #0
 8003fde:	f8c7 30b4 	str.w	r3, [r7, #180]	@ 0xb4
 8003fe2:	e04c      	b.n	800407e <main+0x632>
                if (fabsf(actualRPMFilt[i]) > WHEEL_MEAS_ZERO_RPM) {
 8003fe4:	4a0b      	ldr	r2, [pc, #44]	@ (8004014 <main+0x5c8>)
 8003fe6:	f8d7 30b4 	ldr.w	r3, [r7, #180]	@ 0xb4
 8003fea:	009b      	lsls	r3, r3, #2
 8003fec:	4413      	add	r3, r2
 8003fee:	edd3 7a00 	vldr	s15, [r3]
 8003ff2:	eef0 7ae7 	vabs.f32	s15, s15
 8003ff6:	eeb2 7a04 	vmov.f32	s14, #36	@ 0x41200000  10.0
 8003ffa:	eef4 7ac7 	vcmpe.f32	s15, s14
 8003ffe:	eef1 fa10 	vmrs	APSR_nzcv, fpscr
 8004002:	dd37      	ble.n	8004074 <main+0x628>
                    nearStopMeas = false;
 8004004:	2300      	movs	r3, #0
 8004006:	f887 30bb 	strb.w	r3, [r7, #187]	@ 0xbb
                    break;
 800400a:	e03c      	b.n	8004086 <main+0x63a>
 800400c:	200002b4 	.word	0x200002b4
 8004010:	200002d4 	.word	0x200002d4
 8004014:	200002e4 	.word	0x200002e4
 8004018:	2000033c 	.word	0x2000033c
 800401c:	2000052c 	.word	0x2000052c
 8004020:	20000458 	.word	0x20000458
 8004024:	2000033d 	.word	0x2000033d
 8004028:	2000033e 	.word	0x2000033e
 800402c:	20000340 	.word	0x20000340
 8004030:	2000002c 	.word	0x2000002c
 8004034:	20000344 	.word	0x20000344
 8004038:	080089ec 	.word	0x080089ec
 800403c:	20000348 	.word	0x20000348
 8004040:	2000034c 	.word	0x2000034c
 8004044:	2000037c 	.word	0x2000037c
 8004048:	20000324 	.word	0x20000324
 800404c:	20000328 	.word	0x20000328
 8004050:	2000032c 	.word	0x2000032c
 8004054:	20000330 	.word	0x20000330
 8004058:	3f99999a 	.word	0x3f99999a
 800405c:	20000334 	.word	0x20000334
 8004060:	20000338 	.word	0x20000338
 8004064:	200002c4 	.word	0x200002c4
 8004068:	200002f4 	.word	0x200002f4
 800406c:	20000304 	.word	0x20000304
 8004070:	20000314 	.word	0x20000314
            for (int i = 0; i < 4; ++i) {
 8004074:	f8d7 30b4 	ldr.w	r3, [r7, #180]	@ 0xb4
 8004078:	3301      	adds	r3, #1
 800407a:	f8c7 30b4 	str.w	r3, [r7, #180]	@ 0xb4
 800407e:	f8d7 30b4 	ldr.w	r3, [r7, #180]	@ 0xb4
 8004082:	2b03      	cmp	r3, #3
 8004084:	ddae      	ble.n	8003fe4 <main+0x598>
                }
            }

            if (calibrationMode) {
 8004086:	4b6c      	ldr	r3, [pc, #432]	@ (8004238 <main+0x7ec>)
 8004088:	781b      	ldrb	r3, [r3, #0]
 800408a:	2b00      	cmp	r3, #0
 800408c:	d016      	beq.n	80040bc <main+0x670>
                applyMotorPwm(calibrationPwm[0], calibrationPwm[1], calibrationPwm[2], calibrationPwm[3]);
 800408e:	4b6b      	ldr	r3, [pc, #428]	@ (800423c <main+0x7f0>)
 8004090:	edd3 7a00 	vldr	s15, [r3]
 8004094:	4b69      	ldr	r3, [pc, #420]	@ (800423c <main+0x7f0>)
 8004096:	ed93 7a01 	vldr	s14, [r3, #4]
 800409a:	4b68      	ldr	r3, [pc, #416]	@ (800423c <main+0x7f0>)
 800409c:	edd3 6a02 	vldr	s13, [r3, #8]
 80040a0:	4b66      	ldr	r3, [pc, #408]	@ (800423c <main+0x7f0>)
 80040a2:	ed93 6a03 	vldr	s12, [r3, #12]
 80040a6:	eef0 1a46 	vmov.f32	s3, s12
 80040aa:	eeb0 1a66 	vmov.f32	s2, s13
 80040ae:	eef0 0a47 	vmov.f32	s1, s14
 80040b2:	eeb0 0a67 	vmov.f32	s0, s15
 80040b6:	f7fe fb51 	bl	800275c <applyMotorPwm>
 80040ba:	e03d      	b.n	8004138 <main+0x6ec>
            } else if (nearStopCmd && nearStopMeas) {
 80040bc:	f897 309b 	ldrb.w	r3, [r7, #155]	@ 0x9b
 80040c0:	2b00      	cmp	r3, #0
 80040c2:	d023      	beq.n	800410c <main+0x6c0>
 80040c4:	f897 30bb 	ldrb.w	r3, [r7, #187]	@ 0xbb
 80040c8:	2b00      	cmp	r3, #0
 80040ca:	d01f      	beq.n	800410c <main+0x6c0>
                applyMotorPwm(0.0f, 0.0f, 0.0f, 0.0f);
 80040cc:	eddf 1a5c 	vldr	s3, [pc, #368]	@ 8004240 <main+0x7f4>
 80040d0:	ed9f 1a5b 	vldr	s2, [pc, #364]	@ 8004240 <main+0x7f4>
 80040d4:	eddf 0a5a 	vldr	s1, [pc, #360]	@ 8004240 <main+0x7f4>
 80040d8:	ed9f 0a59 	vldr	s0, [pc, #356]	@ 8004240 <main+0x7f4>
 80040dc:	f7fe fb3e 	bl	800275c <applyMotorPwm>
                for (int i = 0; i < 4; ++i) wheelIntegralPwm[i] = 0.0f;
 80040e0:	2300      	movs	r3, #0
 80040e2:	f8c7 30b0 	str.w	r3, [r7, #176]	@ 0xb0
 80040e6:	e00c      	b.n	8004102 <main+0x6b6>
 80040e8:	4a56      	ldr	r2, [pc, #344]	@ (8004244 <main+0x7f8>)
 80040ea:	f8d7 30b0 	ldr.w	r3, [r7, #176]	@ 0xb0
 80040ee:	009b      	lsls	r3, r3, #2
 80040f0:	4413      	add	r3, r2
 80040f2:	f04f 0200 	mov.w	r2, #0
 80040f6:	601a      	str	r2, [r3, #0]
 80040f8:	f8d7 30b0 	ldr.w	r3, [r7, #176]	@ 0xb0
 80040fc:	3301      	adds	r3, #1
 80040fe:	f8c7 30b0 	str.w	r3, [r7, #176]	@ 0xb0
 8004102:	f8d7 30b0 	ldr.w	r3, [r7, #176]	@ 0xb0
 8004106:	2b03      	cmp	r3, #3
 8004108:	ddee      	ble.n	80040e8 <main+0x69c>
 800410a:	e015      	b.n	8004138 <main+0x6ec>
            } else {
                applyMotorPwm(pwmOutput[0], pwmOutput[1], pwmOutput[2], pwmOutput[3]);
 800410c:	4b4e      	ldr	r3, [pc, #312]	@ (8004248 <main+0x7fc>)
 800410e:	edd3 7a00 	vldr	s15, [r3]
 8004112:	4b4d      	ldr	r3, [pc, #308]	@ (8004248 <main+0x7fc>)
 8004114:	ed93 7a01 	vldr	s14, [r3, #4]
 8004118:	4b4b      	ldr	r3, [pc, #300]	@ (8004248 <main+0x7fc>)
 800411a:	edd3 6a02 	vldr	s13, [r3, #8]
 800411e:	4b4a      	ldr	r3, [pc, #296]	@ (8004248 <main+0x7fc>)
 8004120:	ed93 6a03 	vldr	s12, [r3, #12]
 8004124:	eef0 1a46 	vmov.f32	s3, s12
 8004128:	eeb0 1a66 	vmov.f32	s2, s13
 800412c:	eef0 0a47 	vmov.f32	s1, s14
 8004130:	eeb0 0a67 	vmov.f32	s0, s15
 8004134:	f7fe fb12 	bl	800275c <applyMotorPwm>
            }

            // 5. Gửi Telemetry (Feedback)
            static uint8_t fbCount = 0;
            if (++fbCount >= 10) {
 8004138:	4b44      	ldr	r3, [pc, #272]	@ (800424c <main+0x800>)
 800413a:	781b      	ldrb	r3, [r3, #0]
 800413c:	3301      	adds	r3, #1
 800413e:	b2da      	uxtb	r2, r3
 8004140:	4b42      	ldr	r3, [pc, #264]	@ (800424c <main+0x800>)
 8004142:	701a      	strb	r2, [r3, #0]
 8004144:	4b41      	ldr	r3, [pc, #260]	@ (800424c <main+0x800>)
 8004146:	781b      	ldrb	r3, [r3, #0]
 8004148:	2b09      	cmp	r3, #9
 800414a:	f67f acd9 	bls.w	8003b00 <main+0xb4>
                fbCount = 0;
 800414e:	4b3f      	ldr	r3, [pc, #252]	@ (800424c <main+0x800>)
 8004150:	2200      	movs	r2, #0
 8004152:	701a      	strb	r2, [r3, #0]
                char s_vx[16], s_vy[16], s_wz[16], s_x[16], s_y[16], s_th[16], s_wz_enc[16];
                sprintf(print_buffer, "T %s %s %s %s %s %s %d %s\r\n",
 8004154:	4b3e      	ldr	r3, [pc, #248]	@ (8004250 <main+0x804>)
 8004156:	edd3 7a00 	vldr	s15, [r3]
 800415a:	f107 0368 	add.w	r3, r7, #104	@ 0x68
 800415e:	4619      	mov	r1, r3
 8004160:	2003      	movs	r0, #3
 8004162:	eeb0 0a67 	vmov.f32	s0, s15
 8004166:	f7fd fe99 	bl	8001e9c <f2s>
 800416a:	4680      	mov	r8, r0
 800416c:	4b39      	ldr	r3, [pc, #228]	@ (8004254 <main+0x808>)
 800416e:	edd3 7a00 	vldr	s15, [r3]
 8004172:	f107 0358 	add.w	r3, r7, #88	@ 0x58
 8004176:	4619      	mov	r1, r3
 8004178:	2003      	movs	r0, #3
 800417a:	eeb0 0a67 	vmov.f32	s0, s15
 800417e:	f7fd fe8d 	bl	8001e9c <f2s>
 8004182:	4681      	mov	r9, r0
 8004184:	4b34      	ldr	r3, [pc, #208]	@ (8004258 <main+0x80c>)
 8004186:	edd3 7a00 	vldr	s15, [r3]
 800418a:	f107 0348 	add.w	r3, r7, #72	@ 0x48
 800418e:	4619      	mov	r1, r3
 8004190:	2003      	movs	r0, #3
 8004192:	eeb0 0a67 	vmov.f32	s0, s15
 8004196:	f7fd fe81 	bl	8001e9c <f2s>
 800419a:	4604      	mov	r4, r0
 800419c:	4b2f      	ldr	r3, [pc, #188]	@ (800425c <main+0x810>)
 800419e:	edd3 7a00 	vldr	s15, [r3]
 80041a2:	f107 0338 	add.w	r3, r7, #56	@ 0x38
 80041a6:	4619      	mov	r1, r3
 80041a8:	2003      	movs	r0, #3
 80041aa:	eeb0 0a67 	vmov.f32	s0, s15
 80041ae:	f7fd fe75 	bl	8001e9c <f2s>
 80041b2:	4605      	mov	r5, r0
 80041b4:	4b2a      	ldr	r3, [pc, #168]	@ (8004260 <main+0x814>)
 80041b6:	edd3 7a00 	vldr	s15, [r3]
 80041ba:	f107 0328 	add.w	r3, r7, #40	@ 0x28
 80041be:	4619      	mov	r1, r3
 80041c0:	2003      	movs	r0, #3
 80041c2:	eeb0 0a67 	vmov.f32	s0, s15
 80041c6:	f7fd fe69 	bl	8001e9c <f2s>
 80041ca:	4606      	mov	r6, r0
                    f2s(robot_vx_mps, 3, s_vx),
                    f2s(robot_vy_mps, 3, s_vy),
                    f2s(robot_wz_rad_s, 3, s_wz),
                    f2s(odom_x_m, 3, s_x),
                    f2s(odom_y_m, 3, s_y),
                    f2s(odom_theta_rad * 180.0f / PI, 2, s_th),
 80041cc:	4b25      	ldr	r3, [pc, #148]	@ (8004264 <main+0x818>)
 80041ce:	edd3 7a00 	vldr	s15, [r3]
 80041d2:	ed9f 7a25 	vldr	s14, [pc, #148]	@ 8004268 <main+0x81c>
 80041d6:	ee67 7a87 	vmul.f32	s15, s15, s14
                sprintf(print_buffer, "T %s %s %s %s %s %s %d %s\r\n",
 80041da:	eddf 6a24 	vldr	s13, [pc, #144]	@ 800426c <main+0x820>
 80041de:	ee87 7aa6 	vdiv.f32	s14, s15, s13
 80041e2:	f107 0318 	add.w	r3, r7, #24
 80041e6:	4619      	mov	r1, r3
 80041e8:	2002      	movs	r0, #2
 80041ea:	eeb0 0a47 	vmov.f32	s0, s14
 80041ee:	f7fd fe55 	bl	8001e9c <f2s>
 80041f2:	6078      	str	r0, [r7, #4]
 80041f4:	4b1e      	ldr	r3, [pc, #120]	@ (8004270 <main+0x824>)
 80041f6:	781b      	ldrb	r3, [r3, #0]
 80041f8:	603b      	str	r3, [r7, #0]
 80041fa:	4b1e      	ldr	r3, [pc, #120]	@ (8004274 <main+0x828>)
 80041fc:	edd3 7a00 	vldr	s15, [r3]
 8004200:	f107 0308 	add.w	r3, r7, #8
 8004204:	4619      	mov	r1, r3
 8004206:	2004      	movs	r0, #4
 8004208:	eeb0 0a67 	vmov.f32	s0, s15
 800420c:	f7fd fe46 	bl	8001e9c <f2s>
 8004210:	4603      	mov	r3, r0
 8004212:	9305      	str	r3, [sp, #20]
 8004214:	683b      	ldr	r3, [r7, #0]
 8004216:	9304      	str	r3, [sp, #16]
 8004218:	687b      	ldr	r3, [r7, #4]
 800421a:	9303      	str	r3, [sp, #12]
 800421c:	9602      	str	r6, [sp, #8]
 800421e:	9501      	str	r5, [sp, #4]
 8004220:	9400      	str	r4, [sp, #0]
 8004222:	464b      	mov	r3, r9
 8004224:	4642      	mov	r2, r8
 8004226:	4914      	ldr	r1, [pc, #80]	@ (8004278 <main+0x82c>)
 8004228:	4814      	ldr	r0, [pc, #80]	@ (800427c <main+0x830>)
 800422a:	f002 fa71 	bl	8006710 <siprintf>
                    imu_connected ? 1 : 0,
                    f2s(robot_wz_enc_rad_s, 4, s_wz_enc));
                serial_print(print_buffer);
 800422e:	4813      	ldr	r0, [pc, #76]	@ (800427c <main+0x830>)
 8004230:	f7fd fed6 	bl	8001fe0 <serial_print>
    while (1) {
 8004234:	e464      	b.n	8003b00 <main+0xb4>
 8004236:	bf00      	nop
 8004238:	20000380 	.word	0x20000380
 800423c:	20000384 	.word	0x20000384
 8004240:	00000000 	.word	0x00000000
 8004244:	200002f4 	.word	0x200002f4
 8004248:	20000314 	.word	0x20000314
 800424c:	2000055c 	.word	0x2000055c
 8004250:	2000035c 	.word	0x2000035c
 8004254:	20000360 	.word	0x20000360
 8004258:	20000364 	.word	0x20000364
 800425c:	20000350 	.word	0x20000350
 8004260:	20000354 	.word	0x20000354
 8004264:	20000358 	.word	0x20000358
 8004268:	43340000 	.word	0x43340000
 800426c:	40490fdb 	.word	0x40490fdb
 8004270:	2000033c 	.word	0x2000033c
 8004274:	20000368 	.word	0x20000368
 8004278:	08008a04 	.word	0x08008a04
 800427c:	200003d8 	.word	0x200003d8

08004280 <_getpid>:
void initialise_monitor_handles()
{
}

int _getpid(void)
{
 8004280:	b480      	push	{r7}
 8004282:	af00      	add	r7, sp, #0
  return 1;
 8004284:	2301      	movs	r3, #1
}
 8004286:	4618      	mov	r0, r3
 8004288:	46bd      	mov	sp, r7
 800428a:	f85d 7b04 	ldr.w	r7, [sp], #4
 800428e:	4770      	bx	lr

08004290 <_kill>:

int _kill(int pid, int sig)
{
 8004290:	b580      	push	{r7, lr}
 8004292:	b082      	sub	sp, #8
 8004294:	af00      	add	r7, sp, #0
 8004296:	6078      	str	r0, [r7, #4]
 8004298:	6039      	str	r1, [r7, #0]
  (void)pid;
  (void)sig;
  errno = EINVAL;
 800429a:	f002 fb19 	bl	80068d0 <__errno>
 800429e:	4603      	mov	r3, r0
 80042a0:	2216      	movs	r2, #22
 80042a2:	601a      	str	r2, [r3, #0]
  return -1;
 80042a4:	f04f 33ff 	mov.w	r3, #4294967295
}
 80042a8:	4618      	mov	r0, r3
 80042aa:	3708      	adds	r7, #8
 80042ac:	46bd      	mov	sp, r7
 80042ae:	bd80      	pop	{r7, pc}

080042b0 <_exit>:

void _exit (int status)
{
 80042b0:	b580      	push	{r7, lr}
 80042b2:	b082      	sub	sp, #8
 80042b4:	af00      	add	r7, sp, #0
 80042b6:	6078      	str	r0, [r7, #4]
  _kill(status, -1);
 80042b8:	f04f 31ff 	mov.w	r1, #4294967295
 80042bc:	6878      	ldr	r0, [r7, #4]
 80042be:	f7ff ffe7 	bl	8004290 <_kill>
  while (1) {}    /* Make sure we hang here */
 80042c2:	bf00      	nop
 80042c4:	e7fd      	b.n	80042c2 <_exit+0x12>

080042c6 <_read>:
}

__attribute__((weak)) int _read(int file, char *ptr, int len)
{
 80042c6:	b580      	push	{r7, lr}
 80042c8:	b086      	sub	sp, #24
 80042ca:	af00      	add	r7, sp, #0
 80042cc:	60f8      	str	r0, [r7, #12]
 80042ce:	60b9      	str	r1, [r7, #8]
 80042d0:	607a      	str	r2, [r7, #4]
  (void)file;
  int DataIdx;

  for (DataIdx = 0; DataIdx < len; DataIdx++)
 80042d2:	2300      	movs	r3, #0
 80042d4:	617b      	str	r3, [r7, #20]
 80042d6:	e00a      	b.n	80042ee <_read+0x28>
  {
    *ptr++ = __io_getchar();
 80042d8:	f3af 8000 	nop.w
 80042dc:	4601      	mov	r1, r0
 80042de:	68bb      	ldr	r3, [r7, #8]
 80042e0:	1c5a      	adds	r2, r3, #1
 80042e2:	60ba      	str	r2, [r7, #8]
 80042e4:	b2ca      	uxtb	r2, r1
 80042e6:	701a      	strb	r2, [r3, #0]
  for (DataIdx = 0; DataIdx < len; DataIdx++)
 80042e8:	697b      	ldr	r3, [r7, #20]
 80042ea:	3301      	adds	r3, #1
 80042ec:	617b      	str	r3, [r7, #20]
 80042ee:	697a      	ldr	r2, [r7, #20]
 80042f0:	687b      	ldr	r3, [r7, #4]
 80042f2:	429a      	cmp	r2, r3
 80042f4:	dbf0      	blt.n	80042d8 <_read+0x12>
  }

  return len;
 80042f6:	687b      	ldr	r3, [r7, #4]
}
 80042f8:	4618      	mov	r0, r3
 80042fa:	3718      	adds	r7, #24
 80042fc:	46bd      	mov	sp, r7
 80042fe:	bd80      	pop	{r7, pc}

08004300 <_write>:

__attribute__((weak)) int _write(int file, char *ptr, int len)
{
 8004300:	b580      	push	{r7, lr}
 8004302:	b086      	sub	sp, #24
 8004304:	af00      	add	r7, sp, #0
 8004306:	60f8      	str	r0, [r7, #12]
 8004308:	60b9      	str	r1, [r7, #8]
 800430a:	607a      	str	r2, [r7, #4]
  (void)file;
  int DataIdx;

  for (DataIdx = 0; DataIdx < len; DataIdx++)
 800430c:	2300      	movs	r3, #0
 800430e:	617b      	str	r3, [r7, #20]
 8004310:	e009      	b.n	8004326 <_write+0x26>
  {
    __io_putchar(*ptr++);
 8004312:	68bb      	ldr	r3, [r7, #8]
 8004314:	1c5a      	adds	r2, r3, #1
 8004316:	60ba      	str	r2, [r7, #8]
 8004318:	781b      	ldrb	r3, [r3, #0]
 800431a:	4618      	mov	r0, r3
 800431c:	f3af 8000 	nop.w
  for (DataIdx = 0; DataIdx < len; DataIdx++)
 8004320:	697b      	ldr	r3, [r7, #20]
 8004322:	3301      	adds	r3, #1
 8004324:	617b      	str	r3, [r7, #20]
 8004326:	697a      	ldr	r2, [r7, #20]
 8004328:	687b      	ldr	r3, [r7, #4]
 800432a:	429a      	cmp	r2, r3
 800432c:	dbf1      	blt.n	8004312 <_write+0x12>
  }
  return len;
 800432e:	687b      	ldr	r3, [r7, #4]
}
 8004330:	4618      	mov	r0, r3
 8004332:	3718      	adds	r7, #24
 8004334:	46bd      	mov	sp, r7
 8004336:	bd80      	pop	{r7, pc}

08004338 <_close>:

int _close(int file)
{
 8004338:	b480      	push	{r7}
 800433a:	b083      	sub	sp, #12
 800433c:	af00      	add	r7, sp, #0
 800433e:	6078      	str	r0, [r7, #4]
  (void)file;
  return -1;
 8004340:	f04f 33ff 	mov.w	r3, #4294967295
}
 8004344:	4618      	mov	r0, r3
 8004346:	370c      	adds	r7, #12
 8004348:	46bd      	mov	sp, r7
 800434a:	f85d 7b04 	ldr.w	r7, [sp], #4
 800434e:	4770      	bx	lr

08004350 <_fstat>:


int _fstat(int file, struct stat *st)
{
 8004350:	b480      	push	{r7}
 8004352:	b083      	sub	sp, #12
 8004354:	af00      	add	r7, sp, #0
 8004356:	6078      	str	r0, [r7, #4]
 8004358:	6039      	str	r1, [r7, #0]
  (void)file;
  st->st_mode = S_IFCHR;
 800435a:	683b      	ldr	r3, [r7, #0]
 800435c:	f44f 5200 	mov.w	r2, #8192	@ 0x2000
 8004360:	605a      	str	r2, [r3, #4]
  return 0;
 8004362:	2300      	movs	r3, #0
}
 8004364:	4618      	mov	r0, r3
 8004366:	370c      	adds	r7, #12
 8004368:	46bd      	mov	sp, r7
 800436a:	f85d 7b04 	ldr.w	r7, [sp], #4
 800436e:	4770      	bx	lr

08004370 <_isatty>:

int _isatty(int file)
{
 8004370:	b480      	push	{r7}
 8004372:	b083      	sub	sp, #12
 8004374:	af00      	add	r7, sp, #0
 8004376:	6078      	str	r0, [r7, #4]
  (void)file;
  return 1;
 8004378:	2301      	movs	r3, #1
}
 800437a:	4618      	mov	r0, r3
 800437c:	370c      	adds	r7, #12
 800437e:	46bd      	mov	sp, r7
 8004380:	f85d 7b04 	ldr.w	r7, [sp], #4
 8004384:	4770      	bx	lr

08004386 <_lseek>:

int _lseek(int file, int ptr, int dir)
{
 8004386:	b480      	push	{r7}
 8004388:	b085      	sub	sp, #20
 800438a:	af00      	add	r7, sp, #0
 800438c:	60f8      	str	r0, [r7, #12]
 800438e:	60b9      	str	r1, [r7, #8]
 8004390:	607a      	str	r2, [r7, #4]
  (void)file;
  (void)ptr;
  (void)dir;
  return 0;
 8004392:	2300      	movs	r3, #0
}
 8004394:	4618      	mov	r0, r3
 8004396:	3714      	adds	r7, #20
 8004398:	46bd      	mov	sp, r7
 800439a:	f85d 7b04 	ldr.w	r7, [sp], #4
 800439e:	4770      	bx	lr

080043a0 <_sbrk>:
 *
 * @param incr Memory size
 * @return Pointer to allocated memory
 */
void *_sbrk(ptrdiff_t incr)
{
 80043a0:	b580      	push	{r7, lr}
 80043a2:	b086      	sub	sp, #24
 80043a4:	af00      	add	r7, sp, #0
 80043a6:	6078      	str	r0, [r7, #4]
  extern uint8_t _end; /* Symbol defined in the linker script */
  extern uint8_t _estack; /* Symbol defined in the linker script */
  extern uint32_t _Min_Stack_Size; /* Symbol defined in the linker script */
  const uint32_t stack_limit = (uint32_t)&_estack - (uint32_t)&_Min_Stack_Size;
 80043a8:	4a14      	ldr	r2, [pc, #80]	@ (80043fc <_sbrk+0x5c>)
 80043aa:	4b15      	ldr	r3, [pc, #84]	@ (8004400 <_sbrk+0x60>)
 80043ac:	1ad3      	subs	r3, r2, r3
 80043ae:	617b      	str	r3, [r7, #20]
  const uint8_t *max_heap = (uint8_t *)stack_limit;
 80043b0:	697b      	ldr	r3, [r7, #20]
 80043b2:	613b      	str	r3, [r7, #16]
  uint8_t *prev_heap_end;

  /* Initialize heap end at first call */
  if (NULL == __sbrk_heap_end)
 80043b4:	4b13      	ldr	r3, [pc, #76]	@ (8004404 <_sbrk+0x64>)
 80043b6:	681b      	ldr	r3, [r3, #0]
 80043b8:	2b00      	cmp	r3, #0
 80043ba:	d102      	bne.n	80043c2 <_sbrk+0x22>
  {
    __sbrk_heap_end = &_end;
 80043bc:	4b11      	ldr	r3, [pc, #68]	@ (8004404 <_sbrk+0x64>)
 80043be:	4a12      	ldr	r2, [pc, #72]	@ (8004408 <_sbrk+0x68>)
 80043c0:	601a      	str	r2, [r3, #0]
  }

  /* Protect heap from growing into the reserved MSP stack */
  if (__sbrk_heap_end + incr > max_heap)
 80043c2:	4b10      	ldr	r3, [pc, #64]	@ (8004404 <_sbrk+0x64>)
 80043c4:	681a      	ldr	r2, [r3, #0]
 80043c6:	687b      	ldr	r3, [r7, #4]
 80043c8:	4413      	add	r3, r2
 80043ca:	693a      	ldr	r2, [r7, #16]
 80043cc:	429a      	cmp	r2, r3
 80043ce:	d207      	bcs.n	80043e0 <_sbrk+0x40>
  {
    errno = ENOMEM;
 80043d0:	f002 fa7e 	bl	80068d0 <__errno>
 80043d4:	4603      	mov	r3, r0
 80043d6:	220c      	movs	r2, #12
 80043d8:	601a      	str	r2, [r3, #0]
    return (void *)-1;
 80043da:	f04f 33ff 	mov.w	r3, #4294967295
 80043de:	e009      	b.n	80043f4 <_sbrk+0x54>
  }

  prev_heap_end = __sbrk_heap_end;
 80043e0:	4b08      	ldr	r3, [pc, #32]	@ (8004404 <_sbrk+0x64>)
 80043e2:	681b      	ldr	r3, [r3, #0]
 80043e4:	60fb      	str	r3, [r7, #12]
  __sbrk_heap_end += incr;
 80043e6:	4b07      	ldr	r3, [pc, #28]	@ (8004404 <_sbrk+0x64>)
 80043e8:	681a      	ldr	r2, [r3, #0]
 80043ea:	687b      	ldr	r3, [r7, #4]
 80043ec:	4413      	add	r3, r2
 80043ee:	4a05      	ldr	r2, [pc, #20]	@ (8004404 <_sbrk+0x64>)
 80043f0:	6013      	str	r3, [r2, #0]

  return (void *)prev_heap_end;
 80043f2:	68fb      	ldr	r3, [r7, #12]
}
 80043f4:	4618      	mov	r0, r3
 80043f6:	3718      	adds	r7, #24
 80043f8:	46bd      	mov	sp, r7
 80043fa:	bd80      	pop	{r7, pc}
 80043fc:	20020000 	.word	0x20020000
 8004400:	00000400 	.word	0x00000400
 8004404:	20000560 	.word	0x20000560
 8004408:	200006b0 	.word	0x200006b0

0800440c <Reset_Handler>:

  .section .text.Reset_Handler
  .weak Reset_Handler
  .type Reset_Handler, %function
Reset_Handler:
  ldr   r0, =_estack
 800440c:	480d      	ldr	r0, [pc, #52]	@ (8004444 <LoopForever+0x2>)
  mov   sp, r0          /* set stack pointer */
 800440e:	4685      	mov	sp, r0
/* Call the clock system initialization function.*/
  bl  SystemInit
 8004410:	f3af 8000 	nop.w

/* Copy the data segment initializers from flash to SRAM */
  ldr r0, =_sdata
 8004414:	480c      	ldr	r0, [pc, #48]	@ (8004448 <LoopForever+0x6>)
  ldr r1, =_edata
 8004416:	490d      	ldr	r1, [pc, #52]	@ (800444c <LoopForever+0xa>)
  ldr r2, =_sidata
 8004418:	4a0d      	ldr	r2, [pc, #52]	@ (8004450 <LoopForever+0xe>)
  movs r3, #0
 800441a:	2300      	movs	r3, #0
  b LoopCopyDataInit
 800441c:	e002      	b.n	8004424 <LoopCopyDataInit>

0800441e <CopyDataInit>:

CopyDataInit:
  ldr r4, [r2, r3]
 800441e:	58d4      	ldr	r4, [r2, r3]
  str r4, [r0, r3]
 8004420:	50c4      	str	r4, [r0, r3]
  adds r3, r3, #4
 8004422:	3304      	adds	r3, #4

08004424 <LoopCopyDataInit>:

LoopCopyDataInit:
  adds r4, r0, r3
 8004424:	18c4      	adds	r4, r0, r3
  cmp r4, r1
 8004426:	428c      	cmp	r4, r1
  bcc CopyDataInit
 8004428:	d3f9      	bcc.n	800441e <CopyDataInit>

/* Zero fill the bss segment. */
  ldr r2, =_sbss
 800442a:	4a0a      	ldr	r2, [pc, #40]	@ (8004454 <LoopForever+0x12>)
  ldr r4, =_ebss
 800442c:	4c0a      	ldr	r4, [pc, #40]	@ (8004458 <LoopForever+0x16>)
  movs r3, #0
 800442e:	2300      	movs	r3, #0
  b LoopFillZerobss
 8004430:	e001      	b.n	8004436 <LoopFillZerobss>

08004432 <FillZerobss>:

FillZerobss:
  str  r3, [r2]
 8004432:	6013      	str	r3, [r2, #0]
  adds r2, r2, #4
 8004434:	3204      	adds	r2, #4

08004436 <LoopFillZerobss>:

LoopFillZerobss:
  cmp r2, r4
 8004436:	42a2      	cmp	r2, r4
  bcc FillZerobss
 8004438:	d3fb      	bcc.n	8004432 <FillZerobss>


/* Call static constructors */
  bl __libc_init_array
 800443a:	f002 fa4f 	bl	80068dc <__libc_init_array>
/* Call the application's entry point.*/

  bl main
 800443e:	f7ff fb05 	bl	8003a4c <main>

08004442 <LoopForever>:

LoopForever:
  b LoopForever
 8004442:	e7fe      	b.n	8004442 <LoopForever>
  ldr   r0, =_estack
 8004444:	20020000 	.word	0x20020000
  ldr r0, =_sdata
 8004448:	20000000 	.word	0x20000000
  ldr r1, =_edata
 800444c:	200001f8 	.word	0x200001f8
  ldr r2, =_sidata
 8004450:	08009200 	.word	0x08009200
  ldr r2, =_sbss
 8004454:	200001f8 	.word	0x200001f8
  ldr r4, =_ebss
 8004458:	200006b0 	.word	0x200006b0

0800445c <ADC_IRQHandler>:
 * @retval : None
*/
  .section .text.Default_Handler,"ax",%progbits
Default_Handler:
Infinite_Loop:
  b Infinite_Loop
 800445c:	e7fe      	b.n	800445c <ADC_IRQHandler>
	...

08004460 <asinf>:
 8004460:	b508      	push	{r3, lr}
 8004462:	ed2d 8b02 	vpush	{d8}
 8004466:	eeb0 8a40 	vmov.f32	s16, s0
 800446a:	f000 fa03 	bl	8004874 <__ieee754_asinf>
 800446e:	eeb4 8a48 	vcmp.f32	s16, s16
 8004472:	eef1 fa10 	vmrs	APSR_nzcv, fpscr
 8004476:	eef0 8a40 	vmov.f32	s17, s0
 800447a:	d60a      	bvs.n	8004492 <asinf+0x32>
 800447c:	eeb0 0a48 	vmov.f32	s0, s16
 8004480:	f000 f876 	bl	8004570 <fabsf>
 8004484:	eef7 7a00 	vmov.f32	s15, #112	@ 0x3f800000  1.0
 8004488:	eeb4 0ae7 	vcmpe.f32	s0, s15
 800448c:	eef1 fa10 	vmrs	APSR_nzcv, fpscr
 8004490:	dc04      	bgt.n	800449c <asinf+0x3c>
 8004492:	eeb0 0a68 	vmov.f32	s0, s17
 8004496:	ecbd 8b02 	vpop	{d8}
 800449a:	bd08      	pop	{r3, pc}
 800449c:	f002 fa18 	bl	80068d0 <__errno>
 80044a0:	ecbd 8b02 	vpop	{d8}
 80044a4:	4603      	mov	r3, r0
 80044a6:	2221      	movs	r2, #33	@ 0x21
 80044a8:	601a      	str	r2, [r3, #0]
 80044aa:	4802      	ldr	r0, [pc, #8]	@ (80044b4 <asinf+0x54>)
 80044ac:	e8bd 4008 	ldmia.w	sp!, {r3, lr}
 80044b0:	f000 b8a0 	b.w	80045f4 <nanf>
 80044b4:	08008a2c 	.word	0x08008a2c

080044b8 <atan2f>:
 80044b8:	f000 bad6 	b.w	8004a68 <__ieee754_atan2f>

080044bc <sqrtf>:
 80044bc:	b508      	push	{r3, lr}
 80044be:	ed2d 8b02 	vpush	{d8}
 80044c2:	eeb0 8a40 	vmov.f32	s16, s0
 80044c6:	f000 f907 	bl	80046d8 <__ieee754_sqrtf>
 80044ca:	eeb4 8a48 	vcmp.f32	s16, s16
 80044ce:	eef1 fa10 	vmrs	APSR_nzcv, fpscr
 80044d2:	d606      	bvs.n	80044e2 <sqrtf+0x26>
 80044d4:	eddf 8a09 	vldr	s17, [pc, #36]	@ 80044fc <sqrtf+0x40>
 80044d8:	eeb4 8ae8 	vcmpe.f32	s16, s17
 80044dc:	eef1 fa10 	vmrs	APSR_nzcv, fpscr
 80044e0:	d402      	bmi.n	80044e8 <sqrtf+0x2c>
 80044e2:	ecbd 8b02 	vpop	{d8}
 80044e6:	bd08      	pop	{r3, pc}
 80044e8:	f002 f9f2 	bl	80068d0 <__errno>
 80044ec:	ee88 0aa8 	vdiv.f32	s0, s17, s17
 80044f0:	ecbd 8b02 	vpop	{d8}
 80044f4:	2321      	movs	r3, #33	@ 0x21
 80044f6:	6003      	str	r3, [r0, #0]
 80044f8:	bd08      	pop	{r3, pc}
 80044fa:	bf00      	nop
 80044fc:	00000000 	.word	0x00000000

08004500 <cosf>:
 8004500:	ee10 3a10 	vmov	r3, s0
 8004504:	4918      	ldr	r1, [pc, #96]	@ (8004568 <cosf+0x68>)
 8004506:	f023 4200 	bic.w	r2, r3, #2147483648	@ 0x80000000
 800450a:	428a      	cmp	r2, r1
 800450c:	d919      	bls.n	8004542 <cosf+0x42>
 800450e:	f1b2 4fff 	cmp.w	r2, #2139095040	@ 0x7f800000
 8004512:	d302      	bcc.n	800451a <cosf+0x1a>
 8004514:	ee30 0a40 	vsub.f32	s0, s0, s0
 8004518:	4770      	bx	lr
 800451a:	b500      	push	{lr}
 800451c:	b083      	sub	sp, #12
 800451e:	4668      	mov	r0, sp
 8004520:	f000 fb48 	bl	8004bb4 <__ieee754_rem_pio2f>
 8004524:	f000 0003 	and.w	r0, r0, #3
 8004528:	2801      	cmp	r0, #1
 800452a:	ed9d 0a00 	vldr	s0, [sp]
 800452e:	eddd 0a01 	vldr	s1, [sp, #4]
 8004532:	d00f      	beq.n	8004554 <cosf+0x54>
 8004534:	2802      	cmp	r0, #2
 8004536:	d008      	beq.n	800454a <cosf+0x4a>
 8004538:	b988      	cbnz	r0, 800455e <cosf+0x5e>
 800453a:	f000 f8d1 	bl	80046e0 <__kernel_cosf>
 800453e:	b003      	add	sp, #12
 8004540:	bd00      	pop	{pc}
 8004542:	eddf 0a0a 	vldr	s1, [pc, #40]	@ 800456c <cosf+0x6c>
 8004546:	f000 b8cb 	b.w	80046e0 <__kernel_cosf>
 800454a:	f000 f8c9 	bl	80046e0 <__kernel_cosf>
 800454e:	eeb1 0a40 	vneg.f32	s0, s0
 8004552:	e7f4      	b.n	800453e <cosf+0x3e>
 8004554:	f000 f946 	bl	80047e4 <__kernel_sinf>
 8004558:	eeb1 0a40 	vneg.f32	s0, s0
 800455c:	e7ef      	b.n	800453e <cosf+0x3e>
 800455e:	2001      	movs	r0, #1
 8004560:	f000 f940 	bl	80047e4 <__kernel_sinf>
 8004564:	e7eb      	b.n	800453e <cosf+0x3e>
 8004566:	bf00      	nop
 8004568:	3f490fd8 	.word	0x3f490fd8
 800456c:	00000000 	.word	0x00000000

08004570 <fabsf>:
 8004570:	ee10 3a10 	vmov	r3, s0
 8004574:	f023 4300 	bic.w	r3, r3, #2147483648	@ 0x80000000
 8004578:	ee00 3a10 	vmov	s0, r3
 800457c:	4770      	bx	lr
 800457e:	bf00      	nop

08004580 <sinf>:
 8004580:	ee10 3a10 	vmov	r3, s0
 8004584:	4919      	ldr	r1, [pc, #100]	@ (80045ec <sinf+0x6c>)
 8004586:	f023 4200 	bic.w	r2, r3, #2147483648	@ 0x80000000
 800458a:	428a      	cmp	r2, r1
 800458c:	d91a      	bls.n	80045c4 <sinf+0x44>
 800458e:	f1b2 4fff 	cmp.w	r2, #2139095040	@ 0x7f800000
 8004592:	d302      	bcc.n	800459a <sinf+0x1a>
 8004594:	ee30 0a40 	vsub.f32	s0, s0, s0
 8004598:	4770      	bx	lr
 800459a:	b500      	push	{lr}
 800459c:	b083      	sub	sp, #12
 800459e:	4668      	mov	r0, sp
 80045a0:	f000 fb08 	bl	8004bb4 <__ieee754_rem_pio2f>
 80045a4:	f000 0003 	and.w	r0, r0, #3
 80045a8:	2801      	cmp	r0, #1
 80045aa:	ed9d 0a00 	vldr	s0, [sp]
 80045ae:	eddd 0a01 	vldr	s1, [sp, #4]
 80045b2:	d012      	beq.n	80045da <sinf+0x5a>
 80045b4:	2802      	cmp	r0, #2
 80045b6:	d00a      	beq.n	80045ce <sinf+0x4e>
 80045b8:	b990      	cbnz	r0, 80045e0 <sinf+0x60>
 80045ba:	2001      	movs	r0, #1
 80045bc:	f000 f912 	bl	80047e4 <__kernel_sinf>
 80045c0:	b003      	add	sp, #12
 80045c2:	bd00      	pop	{pc}
 80045c4:	eddf 0a0a 	vldr	s1, [pc, #40]	@ 80045f0 <sinf+0x70>
 80045c8:	2000      	movs	r0, #0
 80045ca:	f000 b90b 	b.w	80047e4 <__kernel_sinf>
 80045ce:	2001      	movs	r0, #1
 80045d0:	f000 f908 	bl	80047e4 <__kernel_sinf>
 80045d4:	eeb1 0a40 	vneg.f32	s0, s0
 80045d8:	e7f2      	b.n	80045c0 <sinf+0x40>
 80045da:	f000 f881 	bl	80046e0 <__kernel_cosf>
 80045de:	e7ef      	b.n	80045c0 <sinf+0x40>
 80045e0:	f000 f87e 	bl	80046e0 <__kernel_cosf>
 80045e4:	eeb1 0a40 	vneg.f32	s0, s0
 80045e8:	e7ea      	b.n	80045c0 <sinf+0x40>
 80045ea:	bf00      	nop
 80045ec:	3f490fd8 	.word	0x3f490fd8
 80045f0:	00000000 	.word	0x00000000

080045f4 <nanf>:
 80045f4:	ed9f 0a01 	vldr	s0, [pc, #4]	@ 80045fc <nanf+0x8>
 80045f8:	4770      	bx	lr
 80045fa:	bf00      	nop
 80045fc:	7fc00000 	.word	0x7fc00000

08004600 <fmaxf>:
 8004600:	b508      	push	{r3, lr}
 8004602:	ed2d 8b02 	vpush	{d8}
 8004606:	eef0 8a40 	vmov.f32	s17, s0
 800460a:	eeb0 8a60 	vmov.f32	s16, s1
 800460e:	f000 f847 	bl	80046a0 <__fpclassifyf>
 8004612:	b920      	cbnz	r0, 800461e <fmaxf+0x1e>
 8004614:	eeb0 0a48 	vmov.f32	s0, s16
 8004618:	ecbd 8b02 	vpop	{d8}
 800461c:	bd08      	pop	{r3, pc}
 800461e:	eeb0 0a48 	vmov.f32	s0, s16
 8004622:	f000 f83d 	bl	80046a0 <__fpclassifyf>
 8004626:	b158      	cbz	r0, 8004640 <fmaxf+0x40>
 8004628:	eef4 8ac8 	vcmpe.f32	s17, s16
 800462c:	eef1 fa10 	vmrs	APSR_nzcv, fpscr
 8004630:	bfc8      	it	gt
 8004632:	eeb0 8a68 	vmovgt.f32	s16, s17
 8004636:	eeb0 0a48 	vmov.f32	s0, s16
 800463a:	ecbd 8b02 	vpop	{d8}
 800463e:	bd08      	pop	{r3, pc}
 8004640:	eeb0 8a68 	vmov.f32	s16, s17
 8004644:	eeb0 0a48 	vmov.f32	s0, s16
 8004648:	ecbd 8b02 	vpop	{d8}
 800464c:	bd08      	pop	{r3, pc}
 800464e:	bf00      	nop

08004650 <fminf>:
 8004650:	b508      	push	{r3, lr}
 8004652:	ed2d 8b02 	vpush	{d8}
 8004656:	eef0 8a40 	vmov.f32	s17, s0
 800465a:	eeb0 8a60 	vmov.f32	s16, s1
 800465e:	f000 f81f 	bl	80046a0 <__fpclassifyf>
 8004662:	b920      	cbnz	r0, 800466e <fminf+0x1e>
 8004664:	eeb0 0a48 	vmov.f32	s0, s16
 8004668:	ecbd 8b02 	vpop	{d8}
 800466c:	bd08      	pop	{r3, pc}
 800466e:	eeb0 0a48 	vmov.f32	s0, s16
 8004672:	f000 f815 	bl	80046a0 <__fpclassifyf>
 8004676:	b158      	cbz	r0, 8004690 <fminf+0x40>
 8004678:	eeb4 8ae8 	vcmpe.f32	s16, s17
 800467c:	eef1 fa10 	vmrs	APSR_nzcv, fpscr
 8004680:	bfc8      	it	gt
 8004682:	eeb0 8a68 	vmovgt.f32	s16, s17
 8004686:	eeb0 0a48 	vmov.f32	s0, s16
 800468a:	ecbd 8b02 	vpop	{d8}
 800468e:	bd08      	pop	{r3, pc}
 8004690:	eeb0 8a68 	vmov.f32	s16, s17
 8004694:	eeb0 0a48 	vmov.f32	s0, s16
 8004698:	ecbd 8b02 	vpop	{d8}
 800469c:	bd08      	pop	{r3, pc}
 800469e:	bf00      	nop

080046a0 <__fpclassifyf>:
 80046a0:	ee10 3a10 	vmov	r3, s0
 80046a4:	f033 4000 	bics.w	r0, r3, #2147483648	@ 0x80000000
 80046a8:	d00e      	beq.n	80046c8 <__fpclassifyf+0x28>
 80046aa:	f5a0 0300 	sub.w	r3, r0, #8388608	@ 0x800000
 80046ae:	f1b3 4ffe 	cmp.w	r3, #2130706432	@ 0x7f000000
 80046b2:	d30d      	bcc.n	80046d0 <__fpclassifyf+0x30>
 80046b4:	4b07      	ldr	r3, [pc, #28]	@ (80046d4 <__fpclassifyf+0x34>)
 80046b6:	1e42      	subs	r2, r0, #1
 80046b8:	429a      	cmp	r2, r3
 80046ba:	d907      	bls.n	80046cc <__fpclassifyf+0x2c>
 80046bc:	f1a0 40ff 	sub.w	r0, r0, #2139095040	@ 0x7f800000
 80046c0:	fab0 f080 	clz	r0, r0
 80046c4:	0940      	lsrs	r0, r0, #5
 80046c6:	4770      	bx	lr
 80046c8:	2002      	movs	r0, #2
 80046ca:	4770      	bx	lr
 80046cc:	2003      	movs	r0, #3
 80046ce:	4770      	bx	lr
 80046d0:	2004      	movs	r0, #4
 80046d2:	4770      	bx	lr
 80046d4:	007ffffe 	.word	0x007ffffe

080046d8 <__ieee754_sqrtf>:
 80046d8:	eeb1 0ac0 	vsqrt.f32	s0, s0
 80046dc:	4770      	bx	lr
 80046de:	bf00      	nop

080046e0 <__kernel_cosf>:
 80046e0:	ee10 3a10 	vmov	r3, s0
 80046e4:	f023 4300 	bic.w	r3, r3, #2147483648	@ 0x80000000
 80046e8:	f1b3 5f48 	cmp.w	r3, #838860800	@ 0x32000000
 80046ec:	d22c      	bcs.n	8004748 <__kernel_cosf+0x68>
 80046ee:	eefd 7ac0 	vcvt.s32.f32	s15, s0
 80046f2:	ee17 3a90 	vmov	r3, s15
 80046f6:	2b00      	cmp	r3, #0
 80046f8:	d060      	beq.n	80047bc <__kernel_cosf+0xdc>
 80046fa:	ee60 7a00 	vmul.f32	s15, s0, s0
 80046fe:	ed9f 7a31 	vldr	s14, [pc, #196]	@ 80047c4 <__kernel_cosf+0xe4>
 8004702:	ed9f 5a31 	vldr	s10, [pc, #196]	@ 80047c8 <__kernel_cosf+0xe8>
 8004706:	eddf 5a31 	vldr	s11, [pc, #196]	@ 80047cc <__kernel_cosf+0xec>
 800470a:	ed9f 6a31 	vldr	s12, [pc, #196]	@ 80047d0 <__kernel_cosf+0xf0>
 800470e:	eddf 6a31 	vldr	s13, [pc, #196]	@ 80047d4 <__kernel_cosf+0xf4>
 8004712:	eea7 5a87 	vfma.f32	s10, s15, s14
 8004716:	ed9f 7a30 	vldr	s14, [pc, #192]	@ 80047d8 <__kernel_cosf+0xf8>
 800471a:	eee7 5a85 	vfma.f32	s11, s15, s10
 800471e:	eea7 6aa5 	vfma.f32	s12, s15, s11
 8004722:	eea7 7a86 	vfma.f32	s14, s15, s12
 8004726:	eee7 6a87 	vfma.f32	s13, s15, s14
 800472a:	ee67 6aa6 	vmul.f32	s13, s15, s13
 800472e:	ee60 0ac0 	vnmul.f32	s1, s1, s0
 8004732:	eeb6 7a00 	vmov.f32	s14, #96	@ 0x3f000000  0.5
 8004736:	eee7 0aa6 	vfma.f32	s1, s15, s13
 800473a:	eeb7 0a00 	vmov.f32	s0, #112	@ 0x3f800000  1.0
 800473e:	eed7 0a87 	vfnms.f32	s1, s15, s14
 8004742:	ee30 0a60 	vsub.f32	s0, s0, s1
 8004746:	4770      	bx	lr
 8004748:	ee60 7a00 	vmul.f32	s15, s0, s0
 800474c:	ed9f 7a1d 	vldr	s14, [pc, #116]	@ 80047c4 <__kernel_cosf+0xe4>
 8004750:	ed9f 5a1d 	vldr	s10, [pc, #116]	@ 80047c8 <__kernel_cosf+0xe8>
 8004754:	eddf 5a1d 	vldr	s11, [pc, #116]	@ 80047cc <__kernel_cosf+0xec>
 8004758:	ed9f 6a1d 	vldr	s12, [pc, #116]	@ 80047d0 <__kernel_cosf+0xf0>
 800475c:	eddf 6a1d 	vldr	s13, [pc, #116]	@ 80047d4 <__kernel_cosf+0xf4>
 8004760:	4a1e      	ldr	r2, [pc, #120]	@ (80047dc <__kernel_cosf+0xfc>)
 8004762:	eea7 5a87 	vfma.f32	s10, s15, s14
 8004766:	4293      	cmp	r3, r2
 8004768:	ed9f 7a1b 	vldr	s14, [pc, #108]	@ 80047d8 <__kernel_cosf+0xf8>
 800476c:	eee5 5a27 	vfma.f32	s11, s10, s15
 8004770:	eea5 6aa7 	vfma.f32	s12, s11, s15
 8004774:	eea6 7a27 	vfma.f32	s14, s12, s15
 8004778:	eee7 6a27 	vfma.f32	s13, s14, s15
 800477c:	ee66 6aa7 	vmul.f32	s13, s13, s15
 8004780:	d9d5      	bls.n	800472e <__kernel_cosf+0x4e>
 8004782:	4a17      	ldr	r2, [pc, #92]	@ (80047e0 <__kernel_cosf+0x100>)
 8004784:	4293      	cmp	r3, r2
 8004786:	d814      	bhi.n	80047b2 <__kernel_cosf+0xd2>
 8004788:	f103 437f 	add.w	r3, r3, #4278190080	@ 0xff000000
 800478c:	ee07 3a10 	vmov	s14, r3
 8004790:	eeb7 6a00 	vmov.f32	s12, #112	@ 0x3f800000  1.0
 8004794:	ee36 6a47 	vsub.f32	s12, s12, s14
 8004798:	ee60 0ac0 	vnmul.f32	s1, s1, s0
 800479c:	eef6 5a00 	vmov.f32	s11, #96	@ 0x3f000000  0.5
 80047a0:	ee97 7aa5 	vfnms.f32	s14, s15, s11
 80047a4:	eee7 0aa6 	vfma.f32	s1, s15, s13
 80047a8:	ee37 7a60 	vsub.f32	s14, s14, s1
 80047ac:	ee36 0a47 	vsub.f32	s0, s12, s14
 80047b0:	4770      	bx	lr
 80047b2:	eeb6 6a07 	vmov.f32	s12, #103	@ 0x3f380000  0.7187500
 80047b6:	eeb5 7a02 	vmov.f32	s14, #82	@ 0x3e900000  0.2812500
 80047ba:	e7ed      	b.n	8004798 <__kernel_cosf+0xb8>
 80047bc:	eeb7 0a00 	vmov.f32	s0, #112	@ 0x3f800000  1.0
 80047c0:	4770      	bx	lr
 80047c2:	bf00      	nop
 80047c4:	ad47d74e 	.word	0xad47d74e
 80047c8:	310f74f6 	.word	0x310f74f6
 80047cc:	b493f27c 	.word	0xb493f27c
 80047d0:	37d00d01 	.word	0x37d00d01
 80047d4:	3d2aaaab 	.word	0x3d2aaaab
 80047d8:	bab60b61 	.word	0xbab60b61
 80047dc:	3e999999 	.word	0x3e999999
 80047e0:	3f480000 	.word	0x3f480000

080047e4 <__kernel_sinf>:
 80047e4:	ee10 3a10 	vmov	r3, s0
 80047e8:	f023 4300 	bic.w	r3, r3, #2147483648	@ 0x80000000
 80047ec:	f1b3 5f48 	cmp.w	r3, #838860800	@ 0x32000000
 80047f0:	d204      	bcs.n	80047fc <__kernel_sinf+0x18>
 80047f2:	eefd 7ac0 	vcvt.s32.f32	s15, s0
 80047f6:	ee17 3a90 	vmov	r3, s15
 80047fa:	b35b      	cbz	r3, 8004854 <__kernel_sinf+0x70>
 80047fc:	ee60 7a00 	vmul.f32	s15, s0, s0
 8004800:	ed9f 7a15 	vldr	s14, [pc, #84]	@ 8004858 <__kernel_sinf+0x74>
 8004804:	eddf 5a15 	vldr	s11, [pc, #84]	@ 800485c <__kernel_sinf+0x78>
 8004808:	ed9f 6a15 	vldr	s12, [pc, #84]	@ 8004860 <__kernel_sinf+0x7c>
 800480c:	eddf 6a15 	vldr	s13, [pc, #84]	@ 8004864 <__kernel_sinf+0x80>
 8004810:	eee7 5a87 	vfma.f32	s11, s15, s14
 8004814:	ed9f 7a14 	vldr	s14, [pc, #80]	@ 8004868 <__kernel_sinf+0x84>
 8004818:	eea5 6aa7 	vfma.f32	s12, s11, s15
 800481c:	ee20 5a27 	vmul.f32	s10, s0, s15
 8004820:	eee6 6a27 	vfma.f32	s13, s12, s15
 8004824:	eea6 7aa7 	vfma.f32	s14, s13, s15
 8004828:	b930      	cbnz	r0, 8004838 <__kernel_sinf+0x54>
 800482a:	eddf 6a10 	vldr	s13, [pc, #64]	@ 800486c <__kernel_sinf+0x88>
 800482e:	eee7 6a87 	vfma.f32	s13, s15, s14
 8004832:	eea6 0a85 	vfma.f32	s0, s13, s10
 8004836:	4770      	bx	lr
 8004838:	ee27 7a45 	vnmul.f32	s14, s14, s10
 800483c:	eef6 6a00 	vmov.f32	s13, #96	@ 0x3f000000  0.5
 8004840:	eea0 7aa6 	vfma.f32	s14, s1, s13
 8004844:	eddf 6a0a 	vldr	s13, [pc, #40]	@ 8004870 <__kernel_sinf+0x8c>
 8004848:	eed7 0a27 	vfnms.f32	s1, s14, s15
 800484c:	eee5 0a26 	vfma.f32	s1, s10, s13
 8004850:	ee30 0a60 	vsub.f32	s0, s0, s1
 8004854:	4770      	bx	lr
 8004856:	bf00      	nop
 8004858:	2f2ec9d3 	.word	0x2f2ec9d3
 800485c:	b2d72f34 	.word	0xb2d72f34
 8004860:	3638ef1b 	.word	0x3638ef1b
 8004864:	b9500d01 	.word	0xb9500d01
 8004868:	3c088889 	.word	0x3c088889
 800486c:	be2aaaab 	.word	0xbe2aaaab
 8004870:	3e2aaaab 	.word	0x3e2aaaab

08004874 <__ieee754_asinf>:
 8004874:	b538      	push	{r3, r4, r5, lr}
 8004876:	ee10 5a10 	vmov	r5, s0
 800487a:	f025 4400 	bic.w	r4, r5, #2147483648	@ 0x80000000
 800487e:	f1b4 5f7e 	cmp.w	r4, #1065353216	@ 0x3f800000
 8004882:	ed2d 8b04 	vpush	{d8-d9}
 8004886:	eef0 7a40 	vmov.f32	s15, s0
 800488a:	d07f      	beq.n	800498c <__ieee754_asinf+0x118>
 800488c:	d877      	bhi.n	800497e <__ieee754_asinf+0x10a>
 800488e:	f1b4 5f7c 	cmp.w	r4, #1056964608	@ 0x3f000000
 8004892:	d20e      	bcs.n	80048b2 <__ieee754_asinf+0x3e>
 8004894:	f1b4 5f48 	cmp.w	r4, #838860800	@ 0x32000000
 8004898:	f080 8090 	bcs.w	80049bc <__ieee754_asinf+0x148>
 800489c:	ed9f 7a62 	vldr	s14, [pc, #392]	@ 8004a28 <__ieee754_asinf+0x1b4>
 80048a0:	ee30 7a07 	vadd.f32	s14, s0, s14
 80048a4:	eef7 6a00 	vmov.f32	s13, #112	@ 0x3f800000  1.0
 80048a8:	eeb4 7ae6 	vcmpe.f32	s14, s13
 80048ac:	eef1 fa10 	vmrs	APSR_nzcv, fpscr
 80048b0:	dc62      	bgt.n	8004978 <__ieee754_asinf+0x104>
 80048b2:	eeb0 0a67 	vmov.f32	s0, s15
 80048b6:	f7ff fe5b 	bl	8004570 <fabsf>
 80048ba:	eef7 7a00 	vmov.f32	s15, #112	@ 0x3f800000  1.0
 80048be:	ee37 8ac0 	vsub.f32	s16, s15, s0
 80048c2:	eeb6 7a00 	vmov.f32	s14, #96	@ 0x3f000000  0.5
 80048c6:	ee28 8a07 	vmul.f32	s16, s16, s14
 80048ca:	eddf 6a58 	vldr	s13, [pc, #352]	@ 8004a2c <__ieee754_asinf+0x1b8>
 80048ce:	ed9f 7a58 	vldr	s14, [pc, #352]	@ 8004a30 <__ieee754_asinf+0x1bc>
 80048d2:	ed9f 6a58 	vldr	s12, [pc, #352]	@ 8004a34 <__ieee754_asinf+0x1c0>
 80048d6:	ed9f 5a58 	vldr	s10, [pc, #352]	@ 8004a38 <__ieee754_asinf+0x1c4>
 80048da:	eddf 5a58 	vldr	s11, [pc, #352]	@ 8004a3c <__ieee754_asinf+0x1c8>
 80048de:	eddf 8a58 	vldr	s17, [pc, #352]	@ 8004a40 <__ieee754_asinf+0x1cc>
 80048e2:	eee8 6a07 	vfma.f32	s13, s16, s14
 80048e6:	ed9f 7a57 	vldr	s14, [pc, #348]	@ 8004a44 <__ieee754_asinf+0x1d0>
 80048ea:	eea8 7a06 	vfma.f32	s14, s16, s12
 80048ee:	eea6 5a88 	vfma.f32	s10, s13, s16
 80048f2:	ed9f 6a55 	vldr	s12, [pc, #340]	@ 8004a48 <__ieee754_asinf+0x1d4>
 80048f6:	eddf 6a55 	vldr	s13, [pc, #340]	@ 8004a4c <__ieee754_asinf+0x1d8>
 80048fa:	eea7 6a08 	vfma.f32	s12, s14, s16
 80048fe:	eee5 5a08 	vfma.f32	s11, s10, s16
 8004902:	ed9f 7a53 	vldr	s14, [pc, #332]	@ 8004a50 <__ieee754_asinf+0x1dc>
 8004906:	eea6 7a08 	vfma.f32	s14, s12, s16
 800490a:	eee5 6a88 	vfma.f32	s13, s11, s16
 800490e:	eee7 7a08 	vfma.f32	s15, s14, s16
 8004912:	eee6 8a88 	vfma.f32	s17, s13, s16
 8004916:	eeb0 0a48 	vmov.f32	s0, s16
 800491a:	eeb0 9a67 	vmov.f32	s18, s15
 800491e:	f7ff fedb 	bl	80046d8 <__ieee754_sqrtf>
 8004922:	4b4c      	ldr	r3, [pc, #304]	@ (8004a54 <__ieee754_asinf+0x1e0>)
 8004924:	ee68 8a88 	vmul.f32	s17, s17, s16
 8004928:	429c      	cmp	r4, r3
 800492a:	ee88 6a89 	vdiv.f32	s12, s17, s18
 800492e:	d838      	bhi.n	80049a2 <__ieee754_asinf+0x12e>
 8004930:	ee10 3a10 	vmov	r3, s0
 8004934:	f36f 030b 	bfc	r3, #0, #12
 8004938:	ee06 3a90 	vmov	s13, r3
 800493c:	eea6 8ae6 	vfms.f32	s16, s13, s13
 8004940:	ee70 7a26 	vadd.f32	s15, s0, s13
 8004944:	ed9f 7a44 	vldr	s14, [pc, #272]	@ 8004a58 <__ieee754_asinf+0x1e4>
 8004948:	eec8 4a27 	vdiv.f32	s9, s16, s15
 800494c:	eef0 5a00 	vmov.f32	s11, #0	@ 0x40000000  2.0
 8004950:	eea4 7ae5 	vfms.f32	s14, s9, s11
 8004954:	eddf 7a41 	vldr	s15, [pc, #260]	@ 8004a5c <__ieee754_asinf+0x1e8>
 8004958:	ee30 0a00 	vadd.f32	s0, s0, s0
 800495c:	eeb0 5a67 	vmov.f32	s10, s15
 8004960:	ee90 7a06 	vfnms.f32	s14, s0, s12
 8004964:	eea6 5ae5 	vfms.f32	s10, s13, s11
 8004968:	ee37 7a45 	vsub.f32	s14, s14, s10
 800496c:	ee37 0ac7 	vsub.f32	s0, s15, s14
 8004970:	2d00      	cmp	r5, #0
 8004972:	dc01      	bgt.n	8004978 <__ieee754_asinf+0x104>
 8004974:	eeb1 0a40 	vneg.f32	s0, s0
 8004978:	ecbd 8b04 	vpop	{d8-d9}
 800497c:	bd38      	pop	{r3, r4, r5, pc}
 800497e:	ecbd 8b04 	vpop	{d8-d9}
 8004982:	ee70 7a40 	vsub.f32	s15, s0, s0
 8004986:	ee87 0aa7 	vdiv.f32	s0, s15, s15
 800498a:	bd38      	pop	{r3, r4, r5, pc}
 800498c:	ecbd 8b04 	vpop	{d8-d9}
 8004990:	ed9f 0a31 	vldr	s0, [pc, #196]	@ 8004a58 <__ieee754_asinf+0x1e4>
 8004994:	ed9f 7a32 	vldr	s14, [pc, #200]	@ 8004a60 <__ieee754_asinf+0x1ec>
 8004998:	ee27 0a80 	vmul.f32	s0, s15, s0
 800499c:	eea7 0a87 	vfma.f32	s0, s15, s14
 80049a0:	bd38      	pop	{r3, r4, r5, pc}
 80049a2:	eea0 0a06 	vfma.f32	s0, s0, s12
 80049a6:	ed9f 7a2f 	vldr	s14, [pc, #188]	@ 8004a64 <__ieee754_asinf+0x1f0>
 80049aa:	eddf 7a2d 	vldr	s15, [pc, #180]	@ 8004a60 <__ieee754_asinf+0x1ec>
 80049ae:	eef0 6a00 	vmov.f32	s13, #0	@ 0x40000000  2.0
 80049b2:	eea0 7a26 	vfma.f32	s14, s0, s13
 80049b6:	ee37 0ac7 	vsub.f32	s0, s15, s14
 80049ba:	e7d9      	b.n	8004970 <__ieee754_asinf+0xfc>
 80049bc:	ee20 7a00 	vmul.f32	s14, s0, s0
 80049c0:	eddf 6a1b 	vldr	s13, [pc, #108]	@ 8004a30 <__ieee754_asinf+0x1bc>
 80049c4:	ed9f 6a19 	vldr	s12, [pc, #100]	@ 8004a2c <__ieee754_asinf+0x1b8>
 80049c8:	eddf 5a1b 	vldr	s11, [pc, #108]	@ 8004a38 <__ieee754_asinf+0x1c4>
 80049cc:	ed9f 5a19 	vldr	s10, [pc, #100]	@ 8004a34 <__ieee754_asinf+0x1c0>
 80049d0:	eddf 4a1a 	vldr	s9, [pc, #104]	@ 8004a3c <__ieee754_asinf+0x1c8>
 80049d4:	eea7 6a26 	vfma.f32	s12, s14, s13
 80049d8:	ecbd 8b04 	vpop	{d8-d9}
 80049dc:	eee6 5a07 	vfma.f32	s11, s12, s14
 80049e0:	eddf 6a18 	vldr	s13, [pc, #96]	@ 8004a44 <__ieee754_asinf+0x1d0>
 80049e4:	ed9f 6a18 	vldr	s12, [pc, #96]	@ 8004a48 <__ieee754_asinf+0x1d4>
 80049e8:	eee7 6a05 	vfma.f32	s13, s14, s10
 80049ec:	eee5 4a87 	vfma.f32	s9, s11, s14
 80049f0:	eea6 6a87 	vfma.f32	s12, s13, s14
 80049f4:	ed9f 5a15 	vldr	s10, [pc, #84]	@ 8004a4c <__ieee754_asinf+0x1d8>
 80049f8:	eddf 5a15 	vldr	s11, [pc, #84]	@ 8004a50 <__ieee754_asinf+0x1dc>
 80049fc:	eddf 6a10 	vldr	s13, [pc, #64]	@ 8004a40 <__ieee754_asinf+0x1cc>
 8004a00:	eea4 5a87 	vfma.f32	s10, s9, s14
 8004a04:	eee6 5a07 	vfma.f32	s11, s12, s14
 8004a08:	eee5 6a07 	vfma.f32	s13, s10, s14
 8004a0c:	eeb7 6a00 	vmov.f32	s12, #112	@ 0x3f800000  1.0
 8004a10:	eea5 6a87 	vfma.f32	s12, s11, s14
 8004a14:	ee26 7a87 	vmul.f32	s14, s13, s14
 8004a18:	eec7 6a06 	vdiv.f32	s13, s14, s12
 8004a1c:	eee0 7a26 	vfma.f32	s15, s0, s13
 8004a20:	eeb0 0a67 	vmov.f32	s0, s15
 8004a24:	bd38      	pop	{r3, r4, r5, pc}
 8004a26:	bf00      	nop
 8004a28:	7149f2ca 	.word	0x7149f2ca
 8004a2c:	3a4f7f04 	.word	0x3a4f7f04
 8004a30:	3811ef08 	.word	0x3811ef08
 8004a34:	3d9dc62e 	.word	0x3d9dc62e
 8004a38:	bd241146 	.word	0xbd241146
 8004a3c:	3e4e0aa8 	.word	0x3e4e0aa8
 8004a40:	3e2aaaab 	.word	0x3e2aaaab
 8004a44:	bf303361 	.word	0xbf303361
 8004a48:	4001572d 	.word	0x4001572d
 8004a4c:	bea6b090 	.word	0xbea6b090
 8004a50:	c019d139 	.word	0xc019d139
 8004a54:	3f799999 	.word	0x3f799999
 8004a58:	b33bbd2e 	.word	0xb33bbd2e
 8004a5c:	3f490fdb 	.word	0x3f490fdb
 8004a60:	3fc90fdb 	.word	0x3fc90fdb
 8004a64:	333bbd2e 	.word	0x333bbd2e

08004a68 <__ieee754_atan2f>:
 8004a68:	b510      	push	{r4, lr}
 8004a6a:	b082      	sub	sp, #8
 8004a6c:	edcd 0a01 	vstr	s1, [sp, #4]
 8004a70:	9b01      	ldr	r3, [sp, #4]
 8004a72:	f023 4200 	bic.w	r2, r3, #2147483648	@ 0x80000000
 8004a76:	f1b2 4fff 	cmp.w	r2, #2139095040	@ 0x7f800000
 8004a7a:	eef0 7a40 	vmov.f32	s15, s0
 8004a7e:	d830      	bhi.n	8004ae2 <__ieee754_atan2f+0x7a>
 8004a80:	ee10 0a10 	vmov	r0, s0
 8004a84:	f020 4100 	bic.w	r1, r0, #2147483648	@ 0x80000000
 8004a88:	f1b1 4fff 	cmp.w	r1, #2139095040	@ 0x7f800000
 8004a8c:	d829      	bhi.n	8004ae2 <__ieee754_atan2f+0x7a>
 8004a8e:	f1b3 5f7e 	cmp.w	r3, #1065353216	@ 0x3f800000
 8004a92:	d03e      	beq.n	8004b12 <__ieee754_atan2f+0xaa>
 8004a94:	179c      	asrs	r4, r3, #30
 8004a96:	f004 0402 	and.w	r4, r4, #2
 8004a9a:	ea44 74d0 	orr.w	r4, r4, r0, lsr #31
 8004a9e:	b331      	cbz	r1, 8004aee <__ieee754_atan2f+0x86>
 8004aa0:	b37a      	cbz	r2, 8004b02 <__ieee754_atan2f+0x9a>
 8004aa2:	f1b2 4fff 	cmp.w	r2, #2139095040	@ 0x7f800000
 8004aa6:	d03f      	beq.n	8004b28 <__ieee754_atan2f+0xc0>
 8004aa8:	f1b1 4fff 	cmp.w	r1, #2139095040	@ 0x7f800000
 8004aac:	d029      	beq.n	8004b02 <__ieee754_atan2f+0x9a>
 8004aae:	1a89      	subs	r1, r1, r2
 8004ab0:	f1b1 5ff4 	cmp.w	r1, #511705088	@ 0x1e800000
 8004ab4:	ea4f 52e1 	mov.w	r2, r1, asr #23
 8004ab8:	da33      	bge.n	8004b22 <__ieee754_atan2f+0xba>
 8004aba:	2b00      	cmp	r3, #0
 8004abc:	da41      	bge.n	8004b42 <__ieee754_atan2f+0xda>
 8004abe:	323c      	adds	r2, #60	@ 0x3c
 8004ac0:	da3f      	bge.n	8004b42 <__ieee754_atan2f+0xda>
 8004ac2:	ed9f 0a33 	vldr	s0, [pc, #204]	@ 8004b90 <__ieee754_atan2f+0x128>
 8004ac6:	2c01      	cmp	r4, #1
 8004ac8:	d04d      	beq.n	8004b66 <__ieee754_atan2f+0xfe>
 8004aca:	2c02      	cmp	r4, #2
 8004acc:	d042      	beq.n	8004b54 <__ieee754_atan2f+0xec>
 8004ace:	b164      	cbz	r4, 8004aea <__ieee754_atan2f+0x82>
 8004ad0:	ed9f 7a30 	vldr	s14, [pc, #192]	@ 8004b94 <__ieee754_atan2f+0x12c>
 8004ad4:	eddf 7a30 	vldr	s15, [pc, #192]	@ 8004b98 <__ieee754_atan2f+0x130>
 8004ad8:	ee30 0a07 	vadd.f32	s0, s0, s14
 8004adc:	ee30 0a67 	vsub.f32	s0, s0, s15
 8004ae0:	e003      	b.n	8004aea <__ieee754_atan2f+0x82>
 8004ae2:	ed9d 7a01 	vldr	s14, [sp, #4]
 8004ae6:	ee37 0a27 	vadd.f32	s0, s14, s15
 8004aea:	b002      	add	sp, #8
 8004aec:	bd10      	pop	{r4, pc}
 8004aee:	2c02      	cmp	r4, #2
 8004af0:	d00c      	beq.n	8004b0c <__ieee754_atan2f+0xa4>
 8004af2:	ed9f 7a2a 	vldr	s14, [pc, #168]	@ 8004b9c <__ieee754_atan2f+0x134>
 8004af6:	2c03      	cmp	r4, #3
 8004af8:	bf08      	it	eq
 8004afa:	eeb0 0a47 	vmoveq.f32	s0, s14
 8004afe:	b002      	add	sp, #8
 8004b00:	bd10      	pop	{r4, pc}
 8004b02:	2800      	cmp	r0, #0
 8004b04:	db0a      	blt.n	8004b1c <__ieee754_atan2f+0xb4>
 8004b06:	ed9f 0a26 	vldr	s0, [pc, #152]	@ 8004ba0 <__ieee754_atan2f+0x138>
 8004b0a:	e7ee      	b.n	8004aea <__ieee754_atan2f+0x82>
 8004b0c:	ed9f 0a22 	vldr	s0, [pc, #136]	@ 8004b98 <__ieee754_atan2f+0x130>
 8004b10:	e7eb      	b.n	8004aea <__ieee754_atan2f+0x82>
 8004b12:	b002      	add	sp, #8
 8004b14:	e8bd 4010 	ldmia.w	sp!, {r4, lr}
 8004b18:	f000 b982 	b.w	8004e20 <atanf>
 8004b1c:	ed9f 0a21 	vldr	s0, [pc, #132]	@ 8004ba4 <__ieee754_atan2f+0x13c>
 8004b20:	e7e3      	b.n	8004aea <__ieee754_atan2f+0x82>
 8004b22:	ed9f 0a1f 	vldr	s0, [pc, #124]	@ 8004ba0 <__ieee754_atan2f+0x138>
 8004b26:	e7ce      	b.n	8004ac6 <__ieee754_atan2f+0x5e>
 8004b28:	f1b1 4fff 	cmp.w	r1, #2139095040	@ 0x7f800000
 8004b2c:	f104 34ff 	add.w	r4, r4, #4294967295
 8004b30:	d020      	beq.n	8004b74 <__ieee754_atan2f+0x10c>
 8004b32:	2c02      	cmp	r4, #2
 8004b34:	d826      	bhi.n	8004b84 <__ieee754_atan2f+0x11c>
 8004b36:	4b1c      	ldr	r3, [pc, #112]	@ (8004ba8 <__ieee754_atan2f+0x140>)
 8004b38:	eb03 0384 	add.w	r3, r3, r4, lsl #2
 8004b3c:	ed93 0a00 	vldr	s0, [r3]
 8004b40:	e7d3      	b.n	8004aea <__ieee754_atan2f+0x82>
 8004b42:	ed9d 7a01 	vldr	s14, [sp, #4]
 8004b46:	ee87 0a87 	vdiv.f32	s0, s15, s14
 8004b4a:	f7ff fd11 	bl	8004570 <fabsf>
 8004b4e:	f000 f967 	bl	8004e20 <atanf>
 8004b52:	e7b8      	b.n	8004ac6 <__ieee754_atan2f+0x5e>
 8004b54:	ed9f 7a0f 	vldr	s14, [pc, #60]	@ 8004b94 <__ieee754_atan2f+0x12c>
 8004b58:	eddf 7a0f 	vldr	s15, [pc, #60]	@ 8004b98 <__ieee754_atan2f+0x130>
 8004b5c:	ee30 0a07 	vadd.f32	s0, s0, s14
 8004b60:	ee37 0ac0 	vsub.f32	s0, s15, s0
 8004b64:	e7c1      	b.n	8004aea <__ieee754_atan2f+0x82>
 8004b66:	ee10 3a10 	vmov	r3, s0
 8004b6a:	f103 4300 	add.w	r3, r3, #2147483648	@ 0x80000000
 8004b6e:	ee00 3a10 	vmov	s0, r3
 8004b72:	e7ba      	b.n	8004aea <__ieee754_atan2f+0x82>
 8004b74:	2c02      	cmp	r4, #2
 8004b76:	d808      	bhi.n	8004b8a <__ieee754_atan2f+0x122>
 8004b78:	4b0c      	ldr	r3, [pc, #48]	@ (8004bac <__ieee754_atan2f+0x144>)
 8004b7a:	eb03 0384 	add.w	r3, r3, r4, lsl #2
 8004b7e:	ed93 0a00 	vldr	s0, [r3]
 8004b82:	e7b2      	b.n	8004aea <__ieee754_atan2f+0x82>
 8004b84:	ed9f 0a02 	vldr	s0, [pc, #8]	@ 8004b90 <__ieee754_atan2f+0x128>
 8004b88:	e7af      	b.n	8004aea <__ieee754_atan2f+0x82>
 8004b8a:	ed9f 0a09 	vldr	s0, [pc, #36]	@ 8004bb0 <__ieee754_atan2f+0x148>
 8004b8e:	e7ac      	b.n	8004aea <__ieee754_atan2f+0x82>
 8004b90:	00000000 	.word	0x00000000
 8004b94:	33bbbd2e 	.word	0x33bbbd2e
 8004b98:	40490fdb 	.word	0x40490fdb
 8004b9c:	c0490fdb 	.word	0xc0490fdb
 8004ba0:	3fc90fdb 	.word	0x3fc90fdb
 8004ba4:	bfc90fdb 	.word	0xbfc90fdb
 8004ba8:	08008a30 	.word	0x08008a30
 8004bac:	08008a3c 	.word	0x08008a3c
 8004bb0:	3f490fdb 	.word	0x3f490fdb

08004bb4 <__ieee754_rem_pio2f>:
 8004bb4:	b570      	push	{r4, r5, r6, lr}
 8004bb6:	ee10 3a10 	vmov	r3, s0
 8004bba:	4a8b      	ldr	r2, [pc, #556]	@ (8004de8 <__ieee754_rem_pio2f+0x234>)
 8004bbc:	f023 4400 	bic.w	r4, r3, #2147483648	@ 0x80000000
 8004bc0:	4294      	cmp	r4, r2
 8004bc2:	b086      	sub	sp, #24
 8004bc4:	4605      	mov	r5, r0
 8004bc6:	d971      	bls.n	8004cac <__ieee754_rem_pio2f+0xf8>
 8004bc8:	4a88      	ldr	r2, [pc, #544]	@ (8004dec <__ieee754_rem_pio2f+0x238>)
 8004bca:	4294      	cmp	r4, r2
 8004bcc:	461e      	mov	r6, r3
 8004bce:	d824      	bhi.n	8004c1a <__ieee754_rem_pio2f+0x66>
 8004bd0:	f023 4200 	bic.w	r2, r3, #2147483648	@ 0x80000000
 8004bd4:	2b00      	cmp	r3, #0
 8004bd6:	eddf 7a86 	vldr	s15, [pc, #536]	@ 8004df0 <__ieee754_rem_pio2f+0x23c>
 8004bda:	4986      	ldr	r1, [pc, #536]	@ (8004df4 <__ieee754_rem_pio2f+0x240>)
 8004bdc:	f022 020f 	bic.w	r2, r2, #15
 8004be0:	eeb0 7a40 	vmov.f32	s14, s0
 8004be4:	f340 80e6 	ble.w	8004db4 <__ieee754_rem_pio2f+0x200>
 8004be8:	428a      	cmp	r2, r1
 8004bea:	ee70 7a67 	vsub.f32	s15, s0, s15
 8004bee:	bf09      	itett	eq
 8004bf0:	ed9f 7a81 	vldreq	s14, [pc, #516]	@ 8004df8 <__ieee754_rem_pio2f+0x244>
 8004bf4:	eddf 6a81 	vldrne	s13, [pc, #516]	@ 8004dfc <__ieee754_rem_pio2f+0x248>
 8004bf8:	eddf 6a81 	vldreq	s13, [pc, #516]	@ 8004e00 <__ieee754_rem_pio2f+0x24c>
 8004bfc:	ee77 7ac7 	vsubeq.f32	s15, s15, s14
 8004c00:	ee37 7ae6 	vsub.f32	s14, s15, s13
 8004c04:	ee77 7ac7 	vsub.f32	s15, s15, s14
 8004c08:	ed80 7a00 	vstr	s14, [r0]
 8004c0c:	ee77 7ae6 	vsub.f32	s15, s15, s13
 8004c10:	edc0 7a01 	vstr	s15, [r0, #4]
 8004c14:	2001      	movs	r0, #1
 8004c16:	b006      	add	sp, #24
 8004c18:	bd70      	pop	{r4, r5, r6, pc}
 8004c1a:	4a7a      	ldr	r2, [pc, #488]	@ (8004e04 <__ieee754_rem_pio2f+0x250>)
 8004c1c:	4294      	cmp	r4, r2
 8004c1e:	d953      	bls.n	8004cc8 <__ieee754_rem_pio2f+0x114>
 8004c20:	f1b4 4fff 	cmp.w	r4, #2139095040	@ 0x7f800000
 8004c24:	d249      	bcs.n	8004cba <__ieee754_rem_pio2f+0x106>
 8004c26:	15e2      	asrs	r2, r4, #23
 8004c28:	3a86      	subs	r2, #134	@ 0x86
 8004c2a:	eba4 53c2 	sub.w	r3, r4, r2, lsl #23
 8004c2e:	ee07 3a90 	vmov	s15, r3
 8004c32:	eebd 7ae7 	vcvt.s32.f32	s14, s15
 8004c36:	eddf 6a74 	vldr	s13, [pc, #464]	@ 8004e08 <__ieee754_rem_pio2f+0x254>
 8004c3a:	eeb8 7ac7 	vcvt.f32.s32	s14, s14
 8004c3e:	ee77 7ac7 	vsub.f32	s15, s15, s14
 8004c42:	ed8d 7a03 	vstr	s14, [sp, #12]
 8004c46:	ee67 7aa6 	vmul.f32	s15, s15, s13
 8004c4a:	eebd 7ae7 	vcvt.s32.f32	s14, s15
 8004c4e:	eeb8 7ac7 	vcvt.f32.s32	s14, s14
 8004c52:	ee77 7ac7 	vsub.f32	s15, s15, s14
 8004c56:	ed8d 7a04 	vstr	s14, [sp, #16]
 8004c5a:	ee67 7aa6 	vmul.f32	s15, s15, s13
 8004c5e:	eef5 7a40 	vcmp.f32	s15, #0.0
 8004c62:	eef1 fa10 	vmrs	APSR_nzcv, fpscr
 8004c66:	edcd 7a05 	vstr	s15, [sp, #20]
 8004c6a:	f040 808e 	bne.w	8004d8a <__ieee754_rem_pio2f+0x1d6>
 8004c6e:	eeb5 7a40 	vcmp.f32	s14, #0.0
 8004c72:	eef1 fa10 	vmrs	APSR_nzcv, fpscr
 8004c76:	f040 808a 	bne.w	8004d8e <__ieee754_rem_pio2f+0x1da>
 8004c7a:	2301      	movs	r3, #1
 8004c7c:	4963      	ldr	r1, [pc, #396]	@ (8004e0c <__ieee754_rem_pio2f+0x258>)
 8004c7e:	9101      	str	r1, [sp, #4]
 8004c80:	2102      	movs	r1, #2
 8004c82:	9100      	str	r1, [sp, #0]
 8004c84:	a803      	add	r0, sp, #12
 8004c86:	4629      	mov	r1, r5
 8004c88:	f000 f99c 	bl	8004fc4 <__kernel_rem_pio2f>
 8004c8c:	2e00      	cmp	r6, #0
 8004c8e:	dac2      	bge.n	8004c16 <__ieee754_rem_pio2f+0x62>
 8004c90:	ed95 7a00 	vldr	s14, [r5]
 8004c94:	edd5 7a01 	vldr	s15, [r5, #4]
 8004c98:	eeb1 7a47 	vneg.f32	s14, s14
 8004c9c:	eef1 7a67 	vneg.f32	s15, s15
 8004ca0:	ed85 7a00 	vstr	s14, [r5]
 8004ca4:	edc5 7a01 	vstr	s15, [r5, #4]
 8004ca8:	4240      	negs	r0, r0
 8004caa:	e7b4      	b.n	8004c16 <__ieee754_rem_pio2f+0x62>
 8004cac:	2200      	movs	r2, #0
 8004cae:	ed85 0a00 	vstr	s0, [r5]
 8004cb2:	6042      	str	r2, [r0, #4]
 8004cb4:	2000      	movs	r0, #0
 8004cb6:	b006      	add	sp, #24
 8004cb8:	bd70      	pop	{r4, r5, r6, pc}
 8004cba:	ee70 7a40 	vsub.f32	s15, s0, s0
 8004cbe:	edc0 7a01 	vstr	s15, [r0, #4]
 8004cc2:	edc0 7a00 	vstr	s15, [r0]
 8004cc6:	e7f5      	b.n	8004cb4 <__ieee754_rem_pio2f+0x100>
 8004cc8:	f7ff fc52 	bl	8004570 <fabsf>
 8004ccc:	ed9f 7a50 	vldr	s14, [pc, #320]	@ 8004e10 <__ieee754_rem_pio2f+0x25c>
 8004cd0:	ed9f 6a47 	vldr	s12, [pc, #284]	@ 8004df0 <__ieee754_rem_pio2f+0x23c>
 8004cd4:	eef6 7a00 	vmov.f32	s15, #96	@ 0x3f000000  0.5
 8004cd8:	eee0 7a07 	vfma.f32	s15, s0, s14
 8004cdc:	ed9f 7a47 	vldr	s14, [pc, #284]	@ 8004dfc <__ieee754_rem_pio2f+0x248>
 8004ce0:	eefd 7ae7 	vcvt.s32.f32	s15, s15
 8004ce4:	eef8 6ae7 	vcvt.f32.s32	s13, s15
 8004ce8:	ee17 0a90 	vmov	r0, s15
 8004cec:	eea6 0ac6 	vfms.f32	s0, s13, s12
 8004cf0:	281f      	cmp	r0, #31
 8004cf2:	ee66 7a87 	vmul.f32	s15, s13, s14
 8004cf6:	eeb1 6a66 	vneg.f32	s12, s13
 8004cfa:	ee30 7a67 	vsub.f32	s14, s0, s15
 8004cfe:	dc1e      	bgt.n	8004d3e <__ieee754_rem_pio2f+0x18a>
 8004d00:	4a44      	ldr	r2, [pc, #272]	@ (8004e14 <__ieee754_rem_pio2f+0x260>)
 8004d02:	1e41      	subs	r1, r0, #1
 8004d04:	f026 4300 	bic.w	r3, r6, #2147483648	@ 0x80000000
 8004d08:	f852 2021 	ldr.w	r2, [r2, r1, lsl #2]
 8004d0c:	f023 03ff 	bic.w	r3, r3, #255	@ 0xff
 8004d10:	4293      	cmp	r3, r2
 8004d12:	d014      	beq.n	8004d3e <__ieee754_rem_pio2f+0x18a>
 8004d14:	ed85 7a00 	vstr	s14, [r5]
 8004d18:	ee30 0a47 	vsub.f32	s0, s0, s14
 8004d1c:	2e00      	cmp	r6, #0
 8004d1e:	ee30 0a67 	vsub.f32	s0, s0, s15
 8004d22:	ed85 0a01 	vstr	s0, [r5, #4]
 8004d26:	f6bf af76 	bge.w	8004c16 <__ieee754_rem_pio2f+0x62>
 8004d2a:	eeb1 7a47 	vneg.f32	s14, s14
 8004d2e:	eeb1 0a40 	vneg.f32	s0, s0
 8004d32:	ed85 7a00 	vstr	s14, [r5]
 8004d36:	ed85 0a01 	vstr	s0, [r5, #4]
 8004d3a:	4240      	negs	r0, r0
 8004d3c:	e76b      	b.n	8004c16 <__ieee754_rem_pio2f+0x62>
 8004d3e:	ee17 3a10 	vmov	r3, s14
 8004d42:	f3c3 53c7 	ubfx	r3, r3, #23, #8
 8004d46:	ebc3 53d4 	rsb	r3, r3, r4, lsr #23
 8004d4a:	2b08      	cmp	r3, #8
 8004d4c:	ea4f 52e4 	mov.w	r2, r4, asr #23
 8004d50:	dde0      	ble.n	8004d14 <__ieee754_rem_pio2f+0x160>
 8004d52:	ed9f 7a29 	vldr	s14, [pc, #164]	@ 8004df8 <__ieee754_rem_pio2f+0x244>
 8004d56:	ed9f 5a2a 	vldr	s10, [pc, #168]	@ 8004e00 <__ieee754_rem_pio2f+0x24c>
 8004d5a:	eef0 5a40 	vmov.f32	s11, s0
 8004d5e:	eee6 5a07 	vfma.f32	s11, s12, s14
 8004d62:	ee70 7a65 	vsub.f32	s15, s0, s11
 8004d66:	eee6 7a07 	vfma.f32	s15, s12, s14
 8004d6a:	eed6 7a85 	vfnms.f32	s15, s13, s10
 8004d6e:	ee35 7ae7 	vsub.f32	s14, s11, s15
 8004d72:	ee17 3a10 	vmov	r3, s14
 8004d76:	f3c3 53c7 	ubfx	r3, r3, #23, #8
 8004d7a:	1ad2      	subs	r2, r2, r3
 8004d7c:	2a19      	cmp	r2, #25
 8004d7e:	dc08      	bgt.n	8004d92 <__ieee754_rem_pio2f+0x1de>
 8004d80:	eeb0 0a65 	vmov.f32	s0, s11
 8004d84:	ed85 7a00 	vstr	s14, [r5]
 8004d88:	e7c6      	b.n	8004d18 <__ieee754_rem_pio2f+0x164>
 8004d8a:	2303      	movs	r3, #3
 8004d8c:	e776      	b.n	8004c7c <__ieee754_rem_pio2f+0xc8>
 8004d8e:	2302      	movs	r3, #2
 8004d90:	e774      	b.n	8004c7c <__ieee754_rem_pio2f+0xc8>
 8004d92:	ed9f 7a21 	vldr	s14, [pc, #132]	@ 8004e18 <__ieee754_rem_pio2f+0x264>
 8004d96:	ed9f 5a21 	vldr	s10, [pc, #132]	@ 8004e1c <__ieee754_rem_pio2f+0x268>
 8004d9a:	eeb0 0a65 	vmov.f32	s0, s11
 8004d9e:	eea6 0a07 	vfma.f32	s0, s12, s14
 8004da2:	ee75 7ac0 	vsub.f32	s15, s11, s0
 8004da6:	eee6 7a07 	vfma.f32	s15, s12, s14
 8004daa:	eed6 7a85 	vfnms.f32	s15, s13, s10
 8004dae:	ee30 7a67 	vsub.f32	s14, s0, s15
 8004db2:	e7af      	b.n	8004d14 <__ieee754_rem_pio2f+0x160>
 8004db4:	428a      	cmp	r2, r1
 8004db6:	ee70 7a27 	vadd.f32	s15, s0, s15
 8004dba:	bf09      	itett	eq
 8004dbc:	ed9f 7a0e 	vldreq	s14, [pc, #56]	@ 8004df8 <__ieee754_rem_pio2f+0x244>
 8004dc0:	eddf 6a0e 	vldrne	s13, [pc, #56]	@ 8004dfc <__ieee754_rem_pio2f+0x248>
 8004dc4:	eddf 6a0e 	vldreq	s13, [pc, #56]	@ 8004e00 <__ieee754_rem_pio2f+0x24c>
 8004dc8:	ee77 7a87 	vaddeq.f32	s15, s15, s14
 8004dcc:	ee37 7aa6 	vadd.f32	s14, s15, s13
 8004dd0:	ee77 7ac7 	vsub.f32	s15, s15, s14
 8004dd4:	ed80 7a00 	vstr	s14, [r0]
 8004dd8:	ee77 7aa6 	vadd.f32	s15, s15, s13
 8004ddc:	edc0 7a01 	vstr	s15, [r0, #4]
 8004de0:	f04f 30ff 	mov.w	r0, #4294967295
 8004de4:	e717      	b.n	8004c16 <__ieee754_rem_pio2f+0x62>
 8004de6:	bf00      	nop
 8004de8:	3f490fd8 	.word	0x3f490fd8
 8004dec:	4016cbe3 	.word	0x4016cbe3
 8004df0:	3fc90f80 	.word	0x3fc90f80
 8004df4:	3fc90fd0 	.word	0x3fc90fd0
 8004df8:	37354400 	.word	0x37354400
 8004dfc:	37354443 	.word	0x37354443
 8004e00:	2e85a308 	.word	0x2e85a308
 8004e04:	43490f80 	.word	0x43490f80
 8004e08:	43800000 	.word	0x43800000
 8004e0c:	08008ac8 	.word	0x08008ac8
 8004e10:	3f22f984 	.word	0x3f22f984
 8004e14:	08008a48 	.word	0x08008a48
 8004e18:	2e85a300 	.word	0x2e85a300
 8004e1c:	248d3132 	.word	0x248d3132

08004e20 <atanf>:
 8004e20:	b538      	push	{r3, r4, r5, lr}
 8004e22:	ee10 5a10 	vmov	r5, s0
 8004e26:	f025 4400 	bic.w	r4, r5, #2147483648	@ 0x80000000
 8004e2a:	f1b4 4fa1 	cmp.w	r4, #1350565888	@ 0x50800000
 8004e2e:	eef0 7a40 	vmov.f32	s15, s0
 8004e32:	d307      	bcc.n	8004e44 <atanf+0x24>
 8004e34:	f1b4 4fff 	cmp.w	r4, #2139095040	@ 0x7f800000
 8004e38:	d855      	bhi.n	8004ee6 <atanf+0xc6>
 8004e3a:	2d00      	cmp	r5, #0
 8004e3c:	dd77      	ble.n	8004f2e <atanf+0x10e>
 8004e3e:	ed9f 0a4e 	vldr	s0, [pc, #312]	@ 8004f78 <atanf+0x158>
 8004e42:	bd38      	pop	{r3, r4, r5, pc}
 8004e44:	4b4d      	ldr	r3, [pc, #308]	@ (8004f7c <atanf+0x15c>)
 8004e46:	429c      	cmp	r4, r3
 8004e48:	d85c      	bhi.n	8004f04 <atanf+0xe4>
 8004e4a:	f1b4 5f44 	cmp.w	r4, #822083584	@ 0x31000000
 8004e4e:	d34d      	bcc.n	8004eec <atanf+0xcc>
 8004e50:	f04f 33ff 	mov.w	r3, #4294967295
 8004e54:	ee27 6aa7 	vmul.f32	s12, s15, s15
 8004e58:	ed9f 5a49 	vldr	s10, [pc, #292]	@ 8004f80 <atanf+0x160>
 8004e5c:	ed9f 7a49 	vldr	s14, [pc, #292]	@ 8004f84 <atanf+0x164>
 8004e60:	eddf 5a49 	vldr	s11, [pc, #292]	@ 8004f88 <atanf+0x168>
 8004e64:	eddf 4a49 	vldr	s9, [pc, #292]	@ 8004f8c <atanf+0x16c>
 8004e68:	ee66 6a06 	vmul.f32	s13, s12, s12
 8004e6c:	1c5a      	adds	r2, r3, #1
 8004e6e:	eea6 7a85 	vfma.f32	s14, s13, s10
 8004e72:	eee6 4aa5 	vfma.f32	s9, s13, s11
 8004e76:	ed9f 5a46 	vldr	s10, [pc, #280]	@ 8004f90 <atanf+0x170>
 8004e7a:	eddf 5a46 	vldr	s11, [pc, #280]	@ 8004f94 <atanf+0x174>
 8004e7e:	eea7 5a26 	vfma.f32	s10, s14, s13
 8004e82:	eee4 5aa6 	vfma.f32	s11, s9, s13
 8004e86:	ed9f 7a44 	vldr	s14, [pc, #272]	@ 8004f98 <atanf+0x178>
 8004e8a:	eddf 4a44 	vldr	s9, [pc, #272]	@ 8004f9c <atanf+0x17c>
 8004e8e:	eea5 7a26 	vfma.f32	s14, s10, s13
 8004e92:	eee5 4aa6 	vfma.f32	s9, s11, s13
 8004e96:	ed9f 5a42 	vldr	s10, [pc, #264]	@ 8004fa0 <atanf+0x180>
 8004e9a:	eddf 5a42 	vldr	s11, [pc, #264]	@ 8004fa4 <atanf+0x184>
 8004e9e:	eea7 5a26 	vfma.f32	s10, s14, s13
 8004ea2:	ed9f 7a41 	vldr	s14, [pc, #260]	@ 8004fa8 <atanf+0x188>
 8004ea6:	eea4 7aa6 	vfma.f32	s14, s9, s13
 8004eaa:	eee5 5a26 	vfma.f32	s11, s10, s13
 8004eae:	ee27 7a26 	vmul.f32	s14, s14, s13
 8004eb2:	eea5 7a86 	vfma.f32	s14, s11, s12
 8004eb6:	ee27 7a87 	vmul.f32	s14, s15, s14
 8004eba:	d03b      	beq.n	8004f34 <atanf+0x114>
 8004ebc:	493b      	ldr	r1, [pc, #236]	@ (8004fac <atanf+0x18c>)
 8004ebe:	4a3c      	ldr	r2, [pc, #240]	@ (8004fb0 <atanf+0x190>)
 8004ec0:	eb01 0183 	add.w	r1, r1, r3, lsl #2
 8004ec4:	edd1 6a00 	vldr	s13, [r1]
 8004ec8:	ee37 7a66 	vsub.f32	s14, s14, s13
 8004ecc:	eb02 0383 	add.w	r3, r2, r3, lsl #2
 8004ed0:	edd3 6a00 	vldr	s13, [r3]
 8004ed4:	ee37 7a67 	vsub.f32	s14, s14, s15
 8004ed8:	2d00      	cmp	r5, #0
 8004eda:	ee36 0ac7 	vsub.f32	s0, s13, s14
 8004ede:	dab0      	bge.n	8004e42 <atanf+0x22>
 8004ee0:	eeb1 0a40 	vneg.f32	s0, s0
 8004ee4:	bd38      	pop	{r3, r4, r5, pc}
 8004ee6:	ee30 0a00 	vadd.f32	s0, s0, s0
 8004eea:	bd38      	pop	{r3, r4, r5, pc}
 8004eec:	ed9f 7a31 	vldr	s14, [pc, #196]	@ 8004fb4 <atanf+0x194>
 8004ef0:	ee30 7a07 	vadd.f32	s14, s0, s14
 8004ef4:	eef7 6a00 	vmov.f32	s13, #112	@ 0x3f800000  1.0
 8004ef8:	eeb4 7ae6 	vcmpe.f32	s14, s13
 8004efc:	eef1 fa10 	vmrs	APSR_nzcv, fpscr
 8004f00:	dda6      	ble.n	8004e50 <atanf+0x30>
 8004f02:	bd38      	pop	{r3, r4, r5, pc}
 8004f04:	f7ff fb34 	bl	8004570 <fabsf>
 8004f08:	4b2b      	ldr	r3, [pc, #172]	@ (8004fb8 <atanf+0x198>)
 8004f0a:	429c      	cmp	r4, r3
 8004f0c:	d815      	bhi.n	8004f3a <atanf+0x11a>
 8004f0e:	f5a3 03d0 	sub.w	r3, r3, #6815744	@ 0x680000
 8004f12:	429c      	cmp	r4, r3
 8004f14:	d826      	bhi.n	8004f64 <atanf+0x144>
 8004f16:	eef0 7a00 	vmov.f32	s15, #0	@ 0x40000000  2.0
 8004f1a:	eebf 7a00 	vmov.f32	s14, #240	@ 0xbf800000 -1.0
 8004f1e:	eea0 7a27 	vfma.f32	s14, s0, s15
 8004f22:	2300      	movs	r3, #0
 8004f24:	ee30 0a27 	vadd.f32	s0, s0, s15
 8004f28:	eec7 7a00 	vdiv.f32	s15, s14, s0
 8004f2c:	e792      	b.n	8004e54 <atanf+0x34>
 8004f2e:	ed9f 0a23 	vldr	s0, [pc, #140]	@ 8004fbc <atanf+0x19c>
 8004f32:	bd38      	pop	{r3, r4, r5, pc}
 8004f34:	ee37 0ac7 	vsub.f32	s0, s15, s14
 8004f38:	bd38      	pop	{r3, r4, r5, pc}
 8004f3a:	4b21      	ldr	r3, [pc, #132]	@ (8004fc0 <atanf+0x1a0>)
 8004f3c:	429c      	cmp	r4, r3
 8004f3e:	d80b      	bhi.n	8004f58 <atanf+0x138>
 8004f40:	eef7 7a08 	vmov.f32	s15, #120	@ 0x3fc00000  1.5
 8004f44:	eeb7 7a00 	vmov.f32	s14, #112	@ 0x3f800000  1.0
 8004f48:	eea0 7a27 	vfma.f32	s14, s0, s15
 8004f4c:	2302      	movs	r3, #2
 8004f4e:	ee30 0a67 	vsub.f32	s0, s0, s15
 8004f52:	eec0 7a07 	vdiv.f32	s15, s0, s14
 8004f56:	e77d      	b.n	8004e54 <atanf+0x34>
 8004f58:	eebf 7a00 	vmov.f32	s14, #240	@ 0xbf800000 -1.0
 8004f5c:	eec7 7a00 	vdiv.f32	s15, s14, s0
 8004f60:	2303      	movs	r3, #3
 8004f62:	e777      	b.n	8004e54 <atanf+0x34>
 8004f64:	eef7 7a00 	vmov.f32	s15, #112	@ 0x3f800000  1.0
 8004f68:	ee30 7a67 	vsub.f32	s14, s0, s15
 8004f6c:	ee30 0a27 	vadd.f32	s0, s0, s15
 8004f70:	2301      	movs	r3, #1
 8004f72:	eec7 7a00 	vdiv.f32	s15, s14, s0
 8004f76:	e76d      	b.n	8004e54 <atanf+0x34>
 8004f78:	3fc90fdb 	.word	0x3fc90fdb
 8004f7c:	3edfffff 	.word	0x3edfffff
 8004f80:	3c8569d7 	.word	0x3c8569d7
 8004f84:	3d4bda59 	.word	0x3d4bda59
 8004f88:	bd15a221 	.word	0xbd15a221
 8004f8c:	bd6ef16b 	.word	0xbd6ef16b
 8004f90:	3d886b35 	.word	0x3d886b35
 8004f94:	bd9d8795 	.word	0xbd9d8795
 8004f98:	3dba2e6e 	.word	0x3dba2e6e
 8004f9c:	bde38e38 	.word	0xbde38e38
 8004fa0:	3e124925 	.word	0x3e124925
 8004fa4:	3eaaaaab 	.word	0x3eaaaaab
 8004fa8:	be4ccccd 	.word	0xbe4ccccd
 8004fac:	08008de0 	.word	0x08008de0
 8004fb0:	08008df0 	.word	0x08008df0
 8004fb4:	7149f2ca 	.word	0x7149f2ca
 8004fb8:	3f97ffff 	.word	0x3f97ffff
 8004fbc:	bfc90fdb 	.word	0xbfc90fdb
 8004fc0:	401bffff 	.word	0x401bffff

08004fc4 <__kernel_rem_pio2f>:
 8004fc4:	e92d 4ff0 	stmdb	sp!, {r4, r5, r6, r7, r8, r9, sl, fp, lr}
 8004fc8:	ed2d 8b04 	vpush	{d8-d9}
 8004fcc:	b0db      	sub	sp, #364	@ 0x16c
 8004fce:	461c      	mov	r4, r3
 8004fd0:	4694      	mov	ip, r2
 8004fd2:	9303      	str	r3, [sp, #12]
 8004fd4:	460a      	mov	r2, r1
 8004fd6:	4bba      	ldr	r3, [pc, #744]	@ (80052c0 <__kernel_rem_pio2f+0x2fc>)
 8004fd8:	9968      	ldr	r1, [sp, #416]	@ 0x1a0
 8004fda:	f11c 0f04 	cmn.w	ip, #4
 8004fde:	f853 7021 	ldr.w	r7, [r3, r1, lsl #2]
 8004fe2:	4682      	mov	sl, r0
 8004fe4:	f104 39ff 	add.w	r9, r4, #4294967295
 8004fe8:	f2c0 8256 	blt.w	8005498 <__kernel_rem_pio2f+0x4d4>
 8004fec:	f1bc 0303 	subs.w	r3, ip, #3
 8004ff0:	bf48      	it	mi
 8004ff2:	f10c 0304 	addmi.w	r3, ip, #4
 8004ff6:	10db      	asrs	r3, r3, #3
 8004ff8:	9302      	str	r3, [sp, #8]
 8004ffa:	3301      	adds	r3, #1
 8004ffc:	ea4f 0ec3 	mov.w	lr, r3, lsl #3
 8005000:	ebac 030e 	sub.w	r3, ip, lr
 8005004:	9305      	str	r3, [sp, #20]
 8005006:	9b02      	ldr	r3, [sp, #8]
 8005008:	eb17 0009 	adds.w	r0, r7, r9
 800500c:	eba3 0309 	sub.w	r3, r3, r9
 8005010:	d416      	bmi.n	8005040 <__kernel_rem_pio2f+0x7c>
 8005012:	3001      	adds	r0, #1
 8005014:	ed9f 7aab 	vldr	s14, [pc, #684]	@ 80052c4 <__kernel_rem_pio2f+0x300>
 8005018:	9c69      	ldr	r4, [sp, #420]	@ 0x1a4
 800501a:	4418      	add	r0, r3
 800501c:	a91e      	add	r1, sp, #120	@ 0x78
 800501e:	2b00      	cmp	r3, #0
 8005020:	bfa4      	itt	ge
 8005022:	f854 5023 	ldrge.w	r5, [r4, r3, lsl #2]
 8005026:	ee07 5a90 	vmovge	s15, r5
 800502a:	f103 0301 	add.w	r3, r3, #1
 800502e:	bfac      	ite	ge
 8005030:	eef8 7ae7 	vcvtge.f32.s32	s15, s15
 8005034:	eef0 7a47 	vmovlt.f32	s15, s14
 8005038:	4283      	cmp	r3, r0
 800503a:	ece1 7a01 	vstmia	r1!, {s15}
 800503e:	d1ee      	bne.n	800501e <__kernel_rem_pio2f+0x5a>
 8005040:	2f00      	cmp	r7, #0
 8005042:	f2c0 82e2 	blt.w	800560a <__kernel_rem_pio2f+0x646>
 8005046:	9903      	ldr	r1, [sp, #12]
 8005048:	a81e      	add	r0, sp, #120	@ 0x78
 800504a:	eb00 0081 	add.w	r0, r0, r1, lsl #2
 800504e:	ea4f 0881 	mov.w	r8, r1, lsl #2
 8005052:	187e      	adds	r6, r7, r1
 8005054:	2300      	movs	r3, #0
 8005056:	ad46      	add	r5, sp, #280	@ 0x118
 8005058:	464c      	mov	r4, r9
 800505a:	eb0a 0181 	add.w	r1, sl, r1, lsl #2
 800505e:	f1b9 0f00 	cmp.w	r9, #0
 8005062:	f280 80c8 	bge.w	80051f6 <__kernel_rem_pio2f+0x232>
 8005066:	3401      	adds	r4, #1
 8005068:	42b4      	cmp	r4, r6
 800506a:	f845 3b04 	str.w	r3, [r5], #4
 800506e:	f100 0004 	add.w	r0, r0, #4
 8005072:	d1f4      	bne.n	800505e <__kernel_rem_pio2f+0x9a>
 8005074:	f10d 0b28 	add.w	fp, sp, #40	@ 0x28
 8005078:	eb0b 0387 	add.w	r3, fp, r7, lsl #2
 800507c:	e9cd 2e06 	strd	r2, lr, [sp, #24]
 8005080:	3b04      	subs	r3, #4
 8005082:	ed9f 9a92 	vldr	s18, [pc, #584]	@ 80052cc <__kernel_rem_pio2f+0x308>
 8005086:	eddf 8a90 	vldr	s17, [pc, #576]	@ 80052c8 <__kernel_rem_pio2f+0x304>
 800508a:	9805      	ldr	r0, [sp, #20]
 800508c:	9304      	str	r3, [sp, #16]
 800508e:	eb0a 0408 	add.w	r4, sl, r8
 8005092:	ae46      	add	r6, sp, #280	@ 0x118
 8005094:	eb0b 0887 	add.w	r8, fp, r7, lsl #2
 8005098:	9700      	str	r7, [sp, #0]
 800509a:	f8cd c020 	str.w	ip, [sp, #32]
 800509e:	eb0d 0387 	add.w	r3, sp, r7, lsl #2
 80050a2:	2f00      	cmp	r7, #0
 80050a4:	ed93 0a46 	vldr	s0, [r3, #280]	@ 0x118
 80050a8:	ea4f 0587 	mov.w	r5, r7, lsl #2
 80050ac:	dd15      	ble.n	80050da <__kernel_rem_pio2f+0x116>
 80050ae:	1973      	adds	r3, r6, r5
 80050b0:	465a      	mov	r2, fp
 80050b2:	ee60 7a09 	vmul.f32	s15, s0, s18
 80050b6:	eeb0 7a40 	vmov.f32	s14, s0
 80050ba:	eefd 7ae7 	vcvt.s32.f32	s15, s15
 80050be:	ed73 6a01 	vldmdb	r3!, {s13}
 80050c2:	eef8 7ae7 	vcvt.f32.s32	s15, s15
 80050c6:	42b3      	cmp	r3, r6
 80050c8:	eea7 7ae8 	vfms.f32	s14, s15, s17
 80050cc:	ee37 0aa6 	vadd.f32	s0, s15, s13
 80050d0:	eebd 7ac7 	vcvt.s32.f32	s14, s14
 80050d4:	eca2 7a01 	vstmia	r2!, {s14}
 80050d8:	d1eb      	bne.n	80050b2 <__kernel_rem_pio2f+0xee>
 80050da:	9001      	str	r0, [sp, #4]
 80050dc:	f000 fab8 	bl	8005650 <scalbnf>
 80050e0:	eef4 7a00 	vmov.f32	s15, #64	@ 0x3e000000  0.125
 80050e4:	eeb0 8a40 	vmov.f32	s16, s0
 80050e8:	ee20 0a27 	vmul.f32	s0, s0, s15
 80050ec:	f000 fb1e 	bl	800572c <floorf>
 80050f0:	eef2 7a00 	vmov.f32	s15, #32	@ 0x41000000  8.0
 80050f4:	eea0 8a67 	vfms.f32	s16, s0, s15
 80050f8:	9801      	ldr	r0, [sp, #4]
 80050fa:	2800      	cmp	r0, #0
 80050fc:	eefd 9ac8 	vcvt.s32.f32	s19, s16
 8005100:	eef8 7ae9 	vcvt.f32.s32	s15, s19
 8005104:	ee38 8a67 	vsub.f32	s16, s16, s15
 8005108:	f340 8082 	ble.w	8005210 <__kernel_rem_pio2f+0x24c>
 800510c:	1e79      	subs	r1, r7, #1
 800510e:	f1c0 0308 	rsb	r3, r0, #8
 8005112:	f85b e021 	ldr.w	lr, [fp, r1, lsl #2]
 8005116:	fa4e fc03 	asr.w	ip, lr, r3
 800511a:	fa0c f303 	lsl.w	r3, ip, r3
 800511e:	ebae 0e03 	sub.w	lr, lr, r3
 8005122:	f1c0 0207 	rsb	r2, r0, #7
 8005126:	ee19 3a90 	vmov	r3, s19
 800512a:	fa4e f202 	asr.w	r2, lr, r2
 800512e:	4463      	add	r3, ip
 8005130:	2a00      	cmp	r2, #0
 8005132:	ee09 3a90 	vmov	s19, r3
 8005136:	f84b e021 	str.w	lr, [fp, r1, lsl #2]
 800513a:	f300 80af 	bgt.w	800529c <__kernel_rem_pio2f+0x2d8>
 800513e:	eeb5 8a40 	vcmp.f32	s16, #0.0
 8005142:	eef1 fa10 	vmrs	APSR_nzcv, fpscr
 8005146:	d174      	bne.n	8005232 <__kernel_rem_pio2f+0x26e>
 8005148:	9b00      	ldr	r3, [sp, #0]
 800514a:	429f      	cmp	r7, r3
 800514c:	dd0a      	ble.n	8005164 <__kernel_rem_pio2f+0x1a0>
 800514e:	445d      	add	r5, fp
 8005150:	2300      	movs	r3, #0
 8005152:	f855 1d04 	ldr.w	r1, [r5, #-4]!
 8005156:	4545      	cmp	r5, r8
 8005158:	ea43 0301 	orr.w	r3, r3, r1
 800515c:	d1f9      	bne.n	8005152 <__kernel_rem_pio2f+0x18e>
 800515e:	2b00      	cmp	r3, #0
 8005160:	f040 8102 	bne.w	8005368 <__kernel_rem_pio2f+0x3a4>
 8005164:	9b00      	ldr	r3, [sp, #0]
 8005166:	3b01      	subs	r3, #1
 8005168:	f85b 2023 	ldr.w	r2, [fp, r3, lsl #2]
 800516c:	1c7b      	adds	r3, r7, #1
 800516e:	469c      	mov	ip, r3
 8005170:	2a00      	cmp	r2, #0
 8005172:	f040 80f7 	bne.w	8005364 <__kernel_rem_pio2f+0x3a0>
 8005176:	9a04      	ldr	r2, [sp, #16]
 8005178:	2101      	movs	r1, #1
 800517a:	f852 5d04 	ldr.w	r5, [r2, #-4]!
 800517e:	3101      	adds	r1, #1
 8005180:	2d00      	cmp	r5, #0
 8005182:	d0fa      	beq.n	800517a <__kernel_rem_pio2f+0x1b6>
 8005184:	4439      	add	r1, r7
 8005186:	9d02      	ldr	r5, [sp, #8]
 8005188:	9a03      	ldr	r2, [sp, #12]
 800518a:	eb05 0e03 	add.w	lr, r5, r3
 800518e:	f10e 4e80 	add.w	lr, lr, #1073741824	@ 0x40000000
 8005192:	9d69      	ldr	r5, [sp, #420]	@ 0x1a4
 8005194:	f10e 3eff 	add.w	lr, lr, #4294967295
 8005198:	443a      	add	r2, r7
 800519a:	eb05 0e8e 	add.w	lr, r5, lr, lsl #2
 800519e:	ad1e      	add	r5, sp, #120	@ 0x78
 80051a0:	eb06 0783 	add.w	r7, r6, r3, lsl #2
 80051a4:	eb05 0582 	add.w	r5, r5, r2, lsl #2
 80051a8:	edde 7a01 	vldr	s15, [lr, #4]
 80051ac:	eef8 7ae7 	vcvt.f32.s32	s15, s15
 80051b0:	f1b9 0f00 	cmp.w	r9, #0
 80051b4:	f10e 0e04 	add.w	lr, lr, #4
 80051b8:	ece5 7a01 	vstmia	r5!, {s15}
 80051bc:	eddf 7a41 	vldr	s15, [pc, #260]	@ 80052c4 <__kernel_rem_pio2f+0x300>
 80051c0:	db09      	blt.n	80051d6 <__kernel_rem_pio2f+0x212>
 80051c2:	462a      	mov	r2, r5
 80051c4:	4653      	mov	r3, sl
 80051c6:	ecf3 6a01 	vldmia	r3!, {s13}
 80051ca:	ed32 7a01 	vldmdb	r2!, {s14}
 80051ce:	42a3      	cmp	r3, r4
 80051d0:	eee6 7a87 	vfma.f32	s15, s13, s14
 80051d4:	d1f7      	bne.n	80051c6 <__kernel_rem_pio2f+0x202>
 80051d6:	f10c 0c01 	add.w	ip, ip, #1
 80051da:	458c      	cmp	ip, r1
 80051dc:	ece7 7a01 	vstmia	r7!, {s15}
 80051e0:	dde2      	ble.n	80051a8 <__kernel_rem_pio2f+0x1e4>
 80051e2:	460f      	mov	r7, r1
 80051e4:	e75b      	b.n	800509e <__kernel_rem_pio2f+0xda>
 80051e6:	3401      	adds	r4, #1
 80051e8:	42b4      	cmp	r4, r6
 80051ea:	ece5 7a01 	vstmia	r5!, {s15}
 80051ee:	f100 0004 	add.w	r0, r0, #4
 80051f2:	f43f af3f 	beq.w	8005074 <__kernel_rem_pio2f+0xb0>
 80051f6:	eddf 7a33 	vldr	s15, [pc, #204]	@ 80052c4 <__kernel_rem_pio2f+0x300>
 80051fa:	4683      	mov	fp, r0
 80051fc:	4653      	mov	r3, sl
 80051fe:	ecf3 6a01 	vldmia	r3!, {s13}
 8005202:	ed3b 7a01 	vldmdb	fp!, {s14}
 8005206:	428b      	cmp	r3, r1
 8005208:	eee6 7a87 	vfma.f32	s15, s13, s14
 800520c:	d1f7      	bne.n	80051fe <__kernel_rem_pio2f+0x23a>
 800520e:	e7ea      	b.n	80051e6 <__kernel_rem_pio2f+0x222>
 8005210:	f000 8091 	beq.w	8005336 <__kernel_rem_pio2f+0x372>
 8005214:	eef6 7a00 	vmov.f32	s15, #96	@ 0x3f000000  0.5
 8005218:	eeb4 8ae7 	vcmpe.f32	s16, s15
 800521c:	eef1 fa10 	vmrs	APSR_nzcv, fpscr
 8005220:	f280 8129 	bge.w	8005476 <__kernel_rem_pio2f+0x4b2>
 8005224:	eeb5 8a40 	vcmp.f32	s16, #0.0
 8005228:	eef1 fa10 	vmrs	APSR_nzcv, fpscr
 800522c:	f04f 0200 	mov.w	r2, #0
 8005230:	d08a      	beq.n	8005148 <__kernel_rem_pio2f+0x184>
 8005232:	4692      	mov	sl, r2
 8005234:	e9dd 2e06 	ldrd	r2, lr, [sp, #24]
 8005238:	f8dd c020 	ldr.w	ip, [sp, #32]
 800523c:	9701      	str	r7, [sp, #4]
 800523e:	ebae 000c 	sub.w	r0, lr, ip
 8005242:	eeb0 0a48 	vmov.f32	s0, s16
 8005246:	9f00      	ldr	r7, [sp, #0]
 8005248:	9200      	str	r2, [sp, #0]
 800524a:	f000 fa01 	bl	8005650 <scalbnf>
 800524e:	eddf 6a1e 	vldr	s13, [pc, #120]	@ 80052c8 <__kernel_rem_pio2f+0x304>
 8005252:	eeb4 0ae6 	vcmpe.f32	s0, s13
 8005256:	eef1 fa10 	vmrs	APSR_nzcv, fpscr
 800525a:	e9dd 2300 	ldrd	r2, r3, [sp]
 800525e:	eef0 7a40 	vmov.f32	s15, s0
 8005262:	f2c0 819c 	blt.w	800559e <__kernel_rem_pio2f+0x5da>
 8005266:	ed9f 7a19 	vldr	s14, [pc, #100]	@ 80052cc <__kernel_rem_pio2f+0x308>
 800526a:	9905      	ldr	r1, [sp, #20]
 800526c:	ee20 7a07 	vmul.f32	s14, s0, s14
 8005270:	3108      	adds	r1, #8
 8005272:	eebd 7ac7 	vcvt.s32.f32	s14, s14
 8005276:	9105      	str	r1, [sp, #20]
 8005278:	eeb8 7ac7 	vcvt.f32.s32	s14, s14
 800527c:	1c5c      	adds	r4, r3, #1
 800527e:	eee7 7a66 	vfms.f32	s15, s14, s13
 8005282:	eebd 7ac7 	vcvt.s32.f32	s14, s14
 8005286:	eefd 7ae7 	vcvt.s32.f32	s15, s15
 800528a:	ee17 1a90 	vmov	r1, s15
 800528e:	f84b 1023 	str.w	r1, [fp, r3, lsl #2]
 8005292:	ee17 3a10 	vmov	r3, s14
 8005296:	f84b 3024 	str.w	r3, [fp, r4, lsl #2]
 800529a:	e07e      	b.n	800539a <__kernel_rem_pio2f+0x3d6>
 800529c:	3301      	adds	r3, #1
 800529e:	2f00      	cmp	r7, #0
 80052a0:	ee09 3a90 	vmov	s19, r3
 80052a4:	f340 819d 	ble.w	80055e2 <__kernel_rem_pio2f+0x61e>
 80052a8:	4659      	mov	r1, fp
 80052aa:	f04f 0e00 	mov.w	lr, #0
 80052ae:	f851 3b04 	ldr.w	r3, [r1], #4
 80052b2:	2b00      	cmp	r3, #0
 80052b4:	d039      	beq.n	800532a <__kernel_rem_pio2f+0x366>
 80052b6:	f5c3 7380 	rsb	r3, r3, #256	@ 0x100
 80052ba:	f841 3c04 	str.w	r3, [r1, #-4]
 80052be:	e00c      	b.n	80052da <__kernel_rem_pio2f+0x316>
 80052c0:	08008e2c 	.word	0x08008e2c
 80052c4:	00000000 	.word	0x00000000
 80052c8:	43800000 	.word	0x43800000
 80052cc:	3b800000 	.word	0x3b800000
 80052d0:	680b      	ldr	r3, [r1, #0]
 80052d2:	f1c3 03ff 	rsb	r3, r3, #255	@ 0xff
 80052d6:	f841 3b04 	str.w	r3, [r1], #4
 80052da:	f10e 0e01 	add.w	lr, lr, #1
 80052de:	4577      	cmp	r7, lr
 80052e0:	dcf6      	bgt.n	80052d0 <__kernel_rem_pio2f+0x30c>
 80052e2:	2301      	movs	r3, #1
 80052e4:	469e      	mov	lr, r3
 80052e6:	2800      	cmp	r0, #0
 80052e8:	dd0b      	ble.n	8005302 <__kernel_rem_pio2f+0x33e>
 80052ea:	2801      	cmp	r0, #1
 80052ec:	f000 80bb 	beq.w	8005466 <__kernel_rem_pio2f+0x4a2>
 80052f0:	2802      	cmp	r0, #2
 80052f2:	d106      	bne.n	8005302 <__kernel_rem_pio2f+0x33e>
 80052f4:	1e79      	subs	r1, r7, #1
 80052f6:	f85b 3021 	ldr.w	r3, [fp, r1, lsl #2]
 80052fa:	f003 0c3f 	and.w	ip, r3, #63	@ 0x3f
 80052fe:	f84b c021 	str.w	ip, [fp, r1, lsl #2]
 8005302:	2a02      	cmp	r2, #2
 8005304:	f47f af1b 	bne.w	800513e <__kernel_rem_pio2f+0x17a>
 8005308:	eeb7 0a00 	vmov.f32	s0, #112	@ 0x3f800000  1.0
 800530c:	4673      	mov	r3, lr
 800530e:	ee30 8a48 	vsub.f32	s16, s0, s16
 8005312:	2b00      	cmp	r3, #0
 8005314:	f43f af13 	beq.w	800513e <__kernel_rem_pio2f+0x17a>
 8005318:	9209      	str	r2, [sp, #36]	@ 0x24
 800531a:	9001      	str	r0, [sp, #4]
 800531c:	f000 f998 	bl	8005650 <scalbnf>
 8005320:	9801      	ldr	r0, [sp, #4]
 8005322:	9a09      	ldr	r2, [sp, #36]	@ 0x24
 8005324:	ee38 8a40 	vsub.f32	s16, s16, s0
 8005328:	e709      	b.n	800513e <__kernel_rem_pio2f+0x17a>
 800532a:	f10e 0e01 	add.w	lr, lr, #1
 800532e:	4577      	cmp	r7, lr
 8005330:	dcbd      	bgt.n	80052ae <__kernel_rem_pio2f+0x2ea>
 8005332:	469e      	mov	lr, r3
 8005334:	e7d7      	b.n	80052e6 <__kernel_rem_pio2f+0x322>
 8005336:	1e7b      	subs	r3, r7, #1
 8005338:	f85b 2023 	ldr.w	r2, [fp, r3, lsl #2]
 800533c:	11d2      	asrs	r2, r2, #7
 800533e:	2a00      	cmp	r2, #0
 8005340:	f77f aefd 	ble.w	800513e <__kernel_rem_pio2f+0x17a>
 8005344:	ee19 3a90 	vmov	r3, s19
 8005348:	2f00      	cmp	r7, #0
 800534a:	f103 0301 	add.w	r3, r3, #1
 800534e:	ee09 3a90 	vmov	s19, r3
 8005352:	dca9      	bgt.n	80052a8 <__kernel_rem_pio2f+0x2e4>
 8005354:	2a02      	cmp	r2, #2
 8005356:	f47f aef2 	bne.w	800513e <__kernel_rem_pio2f+0x17a>
 800535a:	eef7 7a00 	vmov.f32	s15, #112	@ 0x3f800000  1.0
 800535e:	ee37 8ac8 	vsub.f32	s16, s15, s16
 8005362:	e6ec      	b.n	800513e <__kernel_rem_pio2f+0x17a>
 8005364:	4619      	mov	r1, r3
 8005366:	e70e      	b.n	8005186 <__kernel_rem_pio2f+0x1c2>
 8005368:	463b      	mov	r3, r7
 800536a:	4692      	mov	sl, r2
 800536c:	e9dd 1205 	ldrd	r1, r2, [sp, #20]
 8005370:	1e5c      	subs	r4, r3, #1
 8005372:	f1a1 0008 	sub.w	r0, r1, #8
 8005376:	f85b 1024 	ldr.w	r1, [fp, r4, lsl #2]
 800537a:	9f00      	ldr	r7, [sp, #0]
 800537c:	9005      	str	r0, [sp, #20]
 800537e:	b961      	cbnz	r1, 800539a <__kernel_rem_pio2f+0x3d6>
 8005380:	f103 4380 	add.w	r3, r3, #1073741824	@ 0x40000000
 8005384:	3b01      	subs	r3, #1
 8005386:	eb0b 0383 	add.w	r3, fp, r3, lsl #2
 800538a:	4601      	mov	r1, r0
 800538c:	f853 0d04 	ldr.w	r0, [r3, #-4]!
 8005390:	3c01      	subs	r4, #1
 8005392:	3908      	subs	r1, #8
 8005394:	2800      	cmp	r0, #0
 8005396:	d0f9      	beq.n	800538c <__kernel_rem_pio2f+0x3c8>
 8005398:	9105      	str	r1, [sp, #20]
 800539a:	9805      	ldr	r0, [sp, #20]
 800539c:	9200      	str	r2, [sp, #0]
 800539e:	eeb7 0a00 	vmov.f32	s0, #112	@ 0x3f800000  1.0
 80053a2:	f000 f955 	bl	8005650 <scalbnf>
 80053a6:	2c00      	cmp	r4, #0
 80053a8:	9a00      	ldr	r2, [sp, #0]
 80053aa:	eeb0 7a40 	vmov.f32	s14, s0
 80053ae:	f2c0 8122 	blt.w	80055f6 <__kernel_rem_pio2f+0x632>
 80053b2:	1c60      	adds	r0, r4, #1
 80053b4:	ad46      	add	r5, sp, #280	@ 0x118
 80053b6:	ed5f 6a3b 	vldr	s13, [pc, #-236]	@ 80052cc <__kernel_rem_pio2f+0x308>
 80053ba:	0081      	lsls	r1, r0, #2
 80053bc:	eb0b 0380 	add.w	r3, fp, r0, lsl #2
 80053c0:	eb05 0080 	add.w	r0, r5, r0, lsl #2
 80053c4:	ed73 7a01 	vldmdb	r3!, {s15}
 80053c8:	eef8 7ae7 	vcvt.f32.s32	s15, s15
 80053cc:	455b      	cmp	r3, fp
 80053ce:	ee67 7a87 	vmul.f32	s15, s15, s14
 80053d2:	ee27 7a26 	vmul.f32	s14, s14, s13
 80053d6:	ed60 7a01 	vstmdb	r0!, {s15}
 80053da:	d1f3      	bne.n	80053c4 <__kernel_rem_pio2f+0x400>
 80053dc:	f10d 08c8 	add.w	r8, sp, #200	@ 0xc8
 80053e0:	1f0e      	subs	r6, r1, #4
 80053e2:	442e      	add	r6, r5
 80053e4:	46c6      	mov	lr, r8
 80053e6:	46a4      	mov	ip, r4
 80053e8:	2500      	movs	r5, #0
 80053ea:	2f00      	cmp	r7, #0
 80053ec:	db7d      	blt.n	80054ea <__kernel_rem_pio2f+0x526>
 80053ee:	f8df 925c 	ldr.w	r9, [pc, #604]	@ 800564c <__kernel_rem_pio2f+0x688>
 80053f2:	eddf 7a95 	vldr	s15, [pc, #596]	@ 8005648 <__kernel_rem_pio2f+0x684>
 80053f6:	4630      	mov	r0, r6
 80053f8:	2300      	movs	r3, #0
 80053fa:	e007      	b.n	800540c <__kernel_rem_pio2f+0x448>
 80053fc:	ecf9 6a01 	vldmia	r9!, {s13}
 8005400:	ecb0 7a01 	vldmia	r0!, {s14}
 8005404:	429f      	cmp	r7, r3
 8005406:	eee6 7a87 	vfma.f32	s15, s13, s14
 800540a:	db03      	blt.n	8005414 <__kernel_rem_pio2f+0x450>
 800540c:	429d      	cmp	r5, r3
 800540e:	f103 0301 	add.w	r3, r3, #1
 8005412:	daf3      	bge.n	80053fc <__kernel_rem_pio2f+0x438>
 8005414:	f10c 3cff 	add.w	ip, ip, #4294967295
 8005418:	f1bc 3fff 	cmp.w	ip, #4294967295
 800541c:	ecee 7a01 	vstmia	lr!, {s15}
 8005420:	f105 0501 	add.w	r5, r5, #1
 8005424:	f1a6 0604 	sub.w	r6, r6, #4
 8005428:	d1e1      	bne.n	80053ee <__kernel_rem_pio2f+0x42a>
 800542a:	9b68      	ldr	r3, [sp, #416]	@ 0x1a0
 800542c:	2b02      	cmp	r3, #2
 800542e:	dc6a      	bgt.n	8005506 <__kernel_rem_pio2f+0x542>
 8005430:	2b00      	cmp	r3, #0
 8005432:	dc36      	bgt.n	80054a2 <__kernel_rem_pio2f+0x4de>
 8005434:	d10e      	bne.n	8005454 <__kernel_rem_pio2f+0x490>
 8005436:	eddf 7a84 	vldr	s15, [pc, #528]	@ 8005648 <__kernel_rem_pio2f+0x684>
 800543a:	4441      	add	r1, r8
 800543c:	ed31 7a01 	vldmdb	r1!, {s14}
 8005440:	4588      	cmp	r8, r1
 8005442:	ee77 7a87 	vadd.f32	s15, s15, s14
 8005446:	d1f9      	bne.n	800543c <__kernel_rem_pio2f+0x478>
 8005448:	4653      	mov	r3, sl
 800544a:	2b00      	cmp	r3, #0
 800544c:	f040 80c6 	bne.w	80055dc <__kernel_rem_pio2f+0x618>
 8005450:	edc2 7a00 	vstr	s15, [r2]
 8005454:	ee19 3a90 	vmov	r3, s19
 8005458:	f003 0007 	and.w	r0, r3, #7
 800545c:	b05b      	add	sp, #364	@ 0x16c
 800545e:	ecbd 8b04 	vpop	{d8-d9}
 8005462:	e8bd 8ff0 	ldmia.w	sp!, {r4, r5, r6, r7, r8, r9, sl, fp, pc}
 8005466:	1e79      	subs	r1, r7, #1
 8005468:	f85b 3021 	ldr.w	r3, [fp, r1, lsl #2]
 800546c:	f003 0c7f 	and.w	ip, r3, #127	@ 0x7f
 8005470:	f84b c021 	str.w	ip, [fp, r1, lsl #2]
 8005474:	e745      	b.n	8005302 <__kernel_rem_pio2f+0x33e>
 8005476:	ee19 3a90 	vmov	r3, s19
 800547a:	2f00      	cmp	r7, #0
 800547c:	f103 0301 	add.w	r3, r3, #1
 8005480:	ee09 3a90 	vmov	s19, r3
 8005484:	bfc8      	it	gt
 8005486:	2202      	movgt	r2, #2
 8005488:	f73f af0e 	bgt.w	80052a8 <__kernel_rem_pio2f+0x2e4>
 800548c:	eef7 7a00 	vmov.f32	s15, #112	@ 0x3f800000  1.0
 8005490:	ee37 8ac8 	vsub.f32	s16, s15, s16
 8005494:	2202      	movs	r2, #2
 8005496:	e652      	b.n	800513e <__kernel_rem_pio2f+0x17a>
 8005498:	2300      	movs	r3, #0
 800549a:	f04f 0e08 	mov.w	lr, #8
 800549e:	9302      	str	r3, [sp, #8]
 80054a0:	e5ae      	b.n	8005000 <__kernel_rem_pio2f+0x3c>
 80054a2:	eddd 7a32 	vldr	s15, [sp, #200]	@ 0xc8
 80054a6:	ed9f 7a68 	vldr	s14, [pc, #416]	@ 8005648 <__kernel_rem_pio2f+0x684>
 80054aa:	4441      	add	r1, r8
 80054ac:	ed71 6a01 	vldmdb	r1!, {s13}
 80054b0:	4588      	cmp	r8, r1
 80054b2:	ee37 7a26 	vadd.f32	s14, s14, s13
 80054b6:	d1f9      	bne.n	80054ac <__kernel_rem_pio2f+0x4e8>
 80054b8:	4653      	mov	r3, sl
 80054ba:	2b00      	cmp	r3, #0
 80054bc:	f040 8084 	bne.w	80055c8 <__kernel_rem_pio2f+0x604>
 80054c0:	ee77 7ac7 	vsub.f32	s15, s15, s14
 80054c4:	ed82 7a00 	vstr	s14, [r2]
 80054c8:	b164      	cbz	r4, 80054e4 <__kernel_rem_pio2f+0x520>
 80054ca:	a933      	add	r1, sp, #204	@ 0xcc
 80054cc:	2301      	movs	r3, #1
 80054ce:	ecb1 7a01 	vldmia	r1!, {s14}
 80054d2:	3301      	adds	r3, #1
 80054d4:	429c      	cmp	r4, r3
 80054d6:	ee77 7a87 	vadd.f32	s15, s15, s14
 80054da:	daf8      	bge.n	80054ce <__kernel_rem_pio2f+0x50a>
 80054dc:	4653      	mov	r3, sl
 80054de:	b10b      	cbz	r3, 80054e4 <__kernel_rem_pio2f+0x520>
 80054e0:	eef1 7a67 	vneg.f32	s15, s15
 80054e4:	edc2 7a01 	vstr	s15, [r2, #4]
 80054e8:	e7b4      	b.n	8005454 <__kernel_rem_pio2f+0x490>
 80054ea:	f10c 3cff 	add.w	ip, ip, #4294967295
 80054ee:	2300      	movs	r3, #0
 80054f0:	f1bc 3fff 	cmp.w	ip, #4294967295
 80054f4:	f84e 3b04 	str.w	r3, [lr], #4
 80054f8:	f105 0501 	add.w	r5, r5, #1
 80054fc:	f1a6 0604 	sub.w	r6, r6, #4
 8005500:	f47f af73 	bne.w	80053ea <__kernel_rem_pio2f+0x426>
 8005504:	e791      	b.n	800542a <__kernel_rem_pio2f+0x466>
 8005506:	9b68      	ldr	r3, [sp, #416]	@ 0x1a0
 8005508:	2b03      	cmp	r3, #3
 800550a:	d1a3      	bne.n	8005454 <__kernel_rem_pio2f+0x490>
 800550c:	2c00      	cmp	r4, #0
 800550e:	f000 808c 	beq.w	800562a <__kernel_rem_pio2f+0x666>
 8005512:	eb08 0584 	add.w	r5, r8, r4, lsl #2
 8005516:	ed95 7a00 	vldr	s14, [r5]
 800551a:	00a0      	lsls	r0, r4, #2
 800551c:	462b      	mov	r3, r5
 800551e:	4629      	mov	r1, r5
 8005520:	ed71 7a01 	vldmdb	r1!, {s15}
 8005524:	eef0 6a47 	vmov.f32	s13, s14
 8005528:	ee37 7a27 	vadd.f32	s14, s14, s15
 800552c:	4588      	cmp	r8, r1
 800552e:	ee77 7ac7 	vsub.f32	s15, s15, s14
 8005532:	ed81 7a00 	vstr	s14, [r1]
 8005536:	ee77 7aa6 	vadd.f32	s15, s15, s13
 800553a:	edc1 7a01 	vstr	s15, [r1, #4]
 800553e:	d1ef      	bne.n	8005520 <__kernel_rem_pio2f+0x55c>
 8005540:	2c01      	cmp	r4, #1
 8005542:	d072      	beq.n	800562a <__kernel_rem_pio2f+0x666>
 8005544:	ed95 7a00 	vldr	s14, [r5]
 8005548:	f108 0104 	add.w	r1, r8, #4
 800554c:	ed73 7a01 	vldmdb	r3!, {s15}
 8005550:	eef0 6a47 	vmov.f32	s13, s14
 8005554:	ee37 7a27 	vadd.f32	s14, s14, s15
 8005558:	4299      	cmp	r1, r3
 800555a:	ee77 7ac7 	vsub.f32	s15, s15, s14
 800555e:	ed83 7a00 	vstr	s14, [r3]
 8005562:	ee77 7aa6 	vadd.f32	s15, s15, s13
 8005566:	edc3 7a01 	vstr	s15, [r3, #4]
 800556a:	d1ef      	bne.n	800554c <__kernel_rem_pio2f+0x588>
 800556c:	1d03      	adds	r3, r0, #4
 800556e:	eddf 7a36 	vldr	s15, [pc, #216]	@ 8005648 <__kernel_rem_pio2f+0x684>
 8005572:	4443      	add	r3, r8
 8005574:	f108 0808 	add.w	r8, r8, #8
 8005578:	ed33 7a01 	vldmdb	r3!, {s14}
 800557c:	4598      	cmp	r8, r3
 800557e:	ee77 7a87 	vadd.f32	s15, s15, s14
 8005582:	d1f9      	bne.n	8005578 <__kernel_rem_pio2f+0x5b4>
 8005584:	4653      	mov	r3, sl
 8005586:	eddd 6a32 	vldr	s13, [sp, #200]	@ 0xc8
 800558a:	ed9d 7a33 	vldr	s14, [sp, #204]	@ 0xcc
 800558e:	b973      	cbnz	r3, 80055ae <__kernel_rem_pio2f+0x5ea>
 8005590:	edc2 6a00 	vstr	s13, [r2]
 8005594:	ed82 7a01 	vstr	s14, [r2, #4]
 8005598:	edc2 7a02 	vstr	s15, [r2, #8]
 800559c:	e75a      	b.n	8005454 <__kernel_rem_pio2f+0x490>
 800559e:	eefd 7ac0 	vcvt.s32.f32	s15, s0
 80055a2:	461c      	mov	r4, r3
 80055a4:	ee17 1a90 	vmov	r1, s15
 80055a8:	f84b 1023 	str.w	r1, [fp, r3, lsl #2]
 80055ac:	e6f5      	b.n	800539a <__kernel_rem_pio2f+0x3d6>
 80055ae:	eef1 6a66 	vneg.f32	s13, s13
 80055b2:	eeb1 7a47 	vneg.f32	s14, s14
 80055b6:	eef1 7a67 	vneg.f32	s15, s15
 80055ba:	edc2 6a00 	vstr	s13, [r2]
 80055be:	ed82 7a01 	vstr	s14, [r2, #4]
 80055c2:	edc2 7a02 	vstr	s15, [r2, #8]
 80055c6:	e745      	b.n	8005454 <__kernel_rem_pio2f+0x490>
 80055c8:	eef1 6a47 	vneg.f32	s13, s14
 80055cc:	ee77 7ac7 	vsub.f32	s15, s15, s14
 80055d0:	edc2 6a00 	vstr	s13, [r2]
 80055d4:	2c00      	cmp	r4, #0
 80055d6:	f47f af78 	bne.w	80054ca <__kernel_rem_pio2f+0x506>
 80055da:	e781      	b.n	80054e0 <__kernel_rem_pio2f+0x51c>
 80055dc:	eef1 7a67 	vneg.f32	s15, s15
 80055e0:	e736      	b.n	8005450 <__kernel_rem_pio2f+0x48c>
 80055e2:	2801      	cmp	r0, #1
 80055e4:	d015      	beq.n	8005612 <__kernel_rem_pio2f+0x64e>
 80055e6:	2802      	cmp	r0, #2
 80055e8:	f47f aeb4 	bne.w	8005354 <__kernel_rem_pio2f+0x390>
 80055ec:	f00e 033f 	and.w	r3, lr, #63	@ 0x3f
 80055f0:	f84b 3021 	str.w	r3, [fp, r1, lsl #2]
 80055f4:	e6ae      	b.n	8005354 <__kernel_rem_pio2f+0x390>
 80055f6:	9b68      	ldr	r3, [sp, #416]	@ 0x1a0
 80055f8:	2b02      	cmp	r3, #2
 80055fa:	dc12      	bgt.n	8005622 <__kernel_rem_pio2f+0x65e>
 80055fc:	2b00      	cmp	r3, #0
 80055fe:	dc17      	bgt.n	8005630 <__kernel_rem_pio2f+0x66c>
 8005600:	f47f af28 	bne.w	8005454 <__kernel_rem_pio2f+0x490>
 8005604:	eddf 7a10 	vldr	s15, [pc, #64]	@ 8005648 <__kernel_rem_pio2f+0x684>
 8005608:	e71e      	b.n	8005448 <__kernel_rem_pio2f+0x484>
 800560a:	9b03      	ldr	r3, [sp, #12]
 800560c:	ea4f 0883 	mov.w	r8, r3, lsl #2
 8005610:	e530      	b.n	8005074 <__kernel_rem_pio2f+0xb0>
 8005612:	f00e 037f 	and.w	r3, lr, #127	@ 0x7f
 8005616:	2a02      	cmp	r2, #2
 8005618:	f84b 3021 	str.w	r3, [fp, r1, lsl #2]
 800561c:	f47f ad8f 	bne.w	800513e <__kernel_rem_pio2f+0x17a>
 8005620:	e69b      	b.n	800535a <__kernel_rem_pio2f+0x396>
 8005622:	9b68      	ldr	r3, [sp, #416]	@ 0x1a0
 8005624:	2b03      	cmp	r3, #3
 8005626:	f47f af15 	bne.w	8005454 <__kernel_rem_pio2f+0x490>
 800562a:	eddf 7a07 	vldr	s15, [pc, #28]	@ 8005648 <__kernel_rem_pio2f+0x684>
 800562e:	e7a9      	b.n	8005584 <__kernel_rem_pio2f+0x5c0>
 8005630:	4653      	mov	r3, sl
 8005632:	eddd 7a32 	vldr	s15, [sp, #200]	@ 0xc8
 8005636:	b11b      	cbz	r3, 8005640 <__kernel_rem_pio2f+0x67c>
 8005638:	f04f 4300 	mov.w	r3, #2147483648	@ 0x80000000
 800563c:	6013      	str	r3, [r2, #0]
 800563e:	e74f      	b.n	80054e0 <__kernel_rem_pio2f+0x51c>
 8005640:	2300      	movs	r3, #0
 8005642:	6013      	str	r3, [r2, #0]
 8005644:	e74e      	b.n	80054e4 <__kernel_rem_pio2f+0x520>
 8005646:	bf00      	nop
 8005648:	00000000 	.word	0x00000000
 800564c:	08008e00 	.word	0x08008e00

08005650 <scalbnf>:
 8005650:	ee10 3a10 	vmov	r3, s0
 8005654:	f033 4100 	bics.w	r1, r3, #2147483648	@ 0x80000000
 8005658:	461a      	mov	r2, r3
 800565a:	d025      	beq.n	80056a8 <scalbnf+0x58>
 800565c:	f1b1 4fff 	cmp.w	r1, #2139095040	@ 0x7f800000
 8005660:	d21f      	bcs.n	80056a2 <scalbnf+0x52>
 8005662:	f013 4fff 	tst.w	r3, #2139095040	@ 0x7f800000
 8005666:	d120      	bne.n	80056aa <scalbnf+0x5a>
 8005668:	eddf 7a29 	vldr	s15, [pc, #164]	@ 8005710 <scalbnf+0xc0>
 800566c:	4a29      	ldr	r2, [pc, #164]	@ (8005714 <scalbnf+0xc4>)
 800566e:	ee60 7a27 	vmul.f32	s15, s0, s15
 8005672:	4290      	cmp	r0, r2
 8005674:	ee17 3a90 	vmov	r3, s15
 8005678:	db31      	blt.n	80056de <scalbnf+0x8e>
 800567a:	f24c 3c50 	movw	ip, #50000	@ 0xc350
 800567e:	f3c3 51c7 	ubfx	r1, r3, #23, #8
 8005682:	4560      	cmp	r0, ip
 8005684:	461a      	mov	r2, r3
 8005686:	f1a1 0119 	sub.w	r1, r1, #25
 800568a:	dd14      	ble.n	80056b6 <scalbnf+0x66>
 800568c:	2b00      	cmp	r3, #0
 800568e:	eddf 7a22 	vldr	s15, [pc, #136]	@ 8005718 <scalbnf+0xc8>
 8005692:	ed9f 0a21 	vldr	s0, [pc, #132]	@ 8005718 <scalbnf+0xc8>
 8005696:	bfb8      	it	lt
 8005698:	eddf 7a20 	vldrlt	s15, [pc, #128]	@ 800571c <scalbnf+0xcc>
 800569c:	ee27 0a80 	vmul.f32	s0, s15, s0
 80056a0:	4770      	bx	lr
 80056a2:	ee30 0a00 	vadd.f32	s0, s0, s0
 80056a6:	4770      	bx	lr
 80056a8:	4770      	bx	lr
 80056aa:	f24c 3c50 	movw	ip, #50000	@ 0xc350
 80056ae:	4560      	cmp	r0, ip
 80056b0:	ea4f 51d1 	mov.w	r1, r1, lsr #23
 80056b4:	dcea      	bgt.n	800568c <scalbnf+0x3c>
 80056b6:	4401      	add	r1, r0
 80056b8:	29fe      	cmp	r1, #254	@ 0xfe
 80056ba:	dce7      	bgt.n	800568c <scalbnf+0x3c>
 80056bc:	2900      	cmp	r1, #0
 80056be:	dc15      	bgt.n	80056ec <scalbnf+0x9c>
 80056c0:	f111 0f16 	cmn.w	r1, #22
 80056c4:	db19      	blt.n	80056fa <scalbnf+0xaa>
 80056c6:	3119      	adds	r1, #25
 80056c8:	f022 42ff 	bic.w	r2, r2, #2139095040	@ 0x7f800000
 80056cc:	ea42 52c1 	orr.w	r2, r2, r1, lsl #23
 80056d0:	ee07 2a90 	vmov	s15, r2
 80056d4:	ed9f 0a12 	vldr	s0, [pc, #72]	@ 8005720 <scalbnf+0xd0>
 80056d8:	ee27 0a80 	vmul.f32	s0, s15, s0
 80056dc:	4770      	bx	lr
 80056de:	eddf 7a11 	vldr	s15, [pc, #68]	@ 8005724 <scalbnf+0xd4>
 80056e2:	ee07 3a10 	vmov	s14, r3
 80056e6:	ee27 0a27 	vmul.f32	s0, s14, s15
 80056ea:	4770      	bx	lr
 80056ec:	f022 42ff 	bic.w	r2, r2, #2139095040	@ 0x7f800000
 80056f0:	ea42 53c1 	orr.w	r3, r2, r1, lsl #23
 80056f4:	ee00 3a10 	vmov	s0, r3
 80056f8:	4770      	bx	lr
 80056fa:	2b00      	cmp	r3, #0
 80056fc:	eddf 7a09 	vldr	s15, [pc, #36]	@ 8005724 <scalbnf+0xd4>
 8005700:	ed9f 0a08 	vldr	s0, [pc, #32]	@ 8005724 <scalbnf+0xd4>
 8005704:	bfb8      	it	lt
 8005706:	eddf 7a08 	vldrlt	s15, [pc, #32]	@ 8005728 <scalbnf+0xd8>
 800570a:	ee27 0a80 	vmul.f32	s0, s15, s0
 800570e:	4770      	bx	lr
 8005710:	4c000000 	.word	0x4c000000
 8005714:	ffff3cb0 	.word	0xffff3cb0
 8005718:	7149f2ca 	.word	0x7149f2ca
 800571c:	f149f2ca 	.word	0xf149f2ca
 8005720:	33000000 	.word	0x33000000
 8005724:	0da24260 	.word	0x0da24260
 8005728:	8da24260 	.word	0x8da24260

0800572c <floorf>:
 800572c:	ee10 2a10 	vmov	r2, s0
 8005730:	f3c2 53c7 	ubfx	r3, r2, #23, #8
 8005734:	3b7f      	subs	r3, #127	@ 0x7f
 8005736:	2b16      	cmp	r3, #22
 8005738:	f022 4100 	bic.w	r1, r2, #2147483648	@ 0x80000000
 800573c:	dc1b      	bgt.n	8005776 <floorf+0x4a>
 800573e:	2b00      	cmp	r3, #0
 8005740:	4610      	mov	r0, r2
 8005742:	db1e      	blt.n	8005782 <floorf+0x56>
 8005744:	491a      	ldr	r1, [pc, #104]	@ (80057b0 <floorf+0x84>)
 8005746:	4119      	asrs	r1, r3
 8005748:	420a      	tst	r2, r1
 800574a:	d023      	beq.n	8005794 <floorf+0x68>
 800574c:	eddf 7a19 	vldr	s15, [pc, #100]	@ 80057b4 <floorf+0x88>
 8005750:	ee70 7a27 	vadd.f32	s15, s0, s15
 8005754:	eef5 7ac0 	vcmpe.f32	s15, #0.0
 8005758:	eef1 fa10 	vmrs	APSR_nzcv, fpscr
 800575c:	dd1a      	ble.n	8005794 <floorf+0x68>
 800575e:	2a00      	cmp	r2, #0
 8005760:	da04      	bge.n	800576c <floorf+0x40>
 8005762:	f44f 0200 	mov.w	r2, #8388608	@ 0x800000
 8005766:	fa42 f303 	asr.w	r3, r2, r3
 800576a:	4418      	add	r0, r3
 800576c:	ea20 0301 	bic.w	r3, r0, r1
 8005770:	ee00 3a10 	vmov	s0, r3
 8005774:	4770      	bx	lr
 8005776:	f1b1 4fff 	cmp.w	r1, #2139095040	@ 0x7f800000
 800577a:	d30b      	bcc.n	8005794 <floorf+0x68>
 800577c:	ee30 0a00 	vadd.f32	s0, s0, s0
 8005780:	4770      	bx	lr
 8005782:	eddf 7a0c 	vldr	s15, [pc, #48]	@ 80057b4 <floorf+0x88>
 8005786:	ee70 7a27 	vadd.f32	s15, s0, s15
 800578a:	eef5 7ac0 	vcmpe.f32	s15, #0.0
 800578e:	eef1 fa10 	vmrs	APSR_nzcv, fpscr
 8005792:	dc00      	bgt.n	8005796 <floorf+0x6a>
 8005794:	4770      	bx	lr
 8005796:	2a00      	cmp	r2, #0
 8005798:	db02      	blt.n	80057a0 <floorf+0x74>
 800579a:	ed9f 0a07 	vldr	s0, [pc, #28]	@ 80057b8 <floorf+0x8c>
 800579e:	4770      	bx	lr
 80057a0:	b911      	cbnz	r1, 80057a8 <floorf+0x7c>
 80057a2:	ed9f 0a06 	vldr	s0, [pc, #24]	@ 80057bc <floorf+0x90>
 80057a6:	4770      	bx	lr
 80057a8:	eebf 0a00 	vmov.f32	s0, #240	@ 0xbf800000 -1.0
 80057ac:	e7f2      	b.n	8005794 <floorf+0x68>
 80057ae:	bf00      	nop
 80057b0:	007fffff 	.word	0x007fffff
 80057b4:	7149f2ca 	.word	0x7149f2ca
 80057b8:	00000000 	.word	0x00000000
 80057bc:	80000000 	.word	0x80000000

080057c0 <sulp>:
 80057c0:	b570      	push	{r4, r5, r6, lr}
 80057c2:	4604      	mov	r4, r0
 80057c4:	460d      	mov	r5, r1
 80057c6:	ec45 4b10 	vmov	d0, r4, r5
 80057ca:	4616      	mov	r6, r2
 80057cc:	f002 f884 	bl	80078d8 <__ulp>
 80057d0:	ec51 0b10 	vmov	r0, r1, d0
 80057d4:	b17e      	cbz	r6, 80057f6 <sulp+0x36>
 80057d6:	f3c5 530a 	ubfx	r3, r5, #20, #11
 80057da:	f1c3 036b 	rsb	r3, r3, #107	@ 0x6b
 80057de:	2b00      	cmp	r3, #0
 80057e0:	dd09      	ble.n	80057f6 <sulp+0x36>
 80057e2:	051b      	lsls	r3, r3, #20
 80057e4:	f103 557f 	add.w	r5, r3, #1069547520	@ 0x3fc00000
 80057e8:	2400      	movs	r4, #0
 80057ea:	f505 1540 	add.w	r5, r5, #3145728	@ 0x300000
 80057ee:	4622      	mov	r2, r4
 80057f0:	462b      	mov	r3, r5
 80057f2:	f7fa ff21 	bl	8000638 <__aeabi_dmul>
 80057f6:	ec41 0b10 	vmov	d0, r0, r1
 80057fa:	bd70      	pop	{r4, r5, r6, pc}
 80057fc:	0000      	movs	r0, r0
	...

08005800 <_strtod_l>:
 8005800:	e92d 4ff0 	stmdb	sp!, {r4, r5, r6, r7, r8, r9, sl, fp, lr}
 8005804:	b09d      	sub	sp, #116	@ 0x74
 8005806:	460e      	mov	r6, r1
 8005808:	9215      	str	r2, [sp, #84]	@ 0x54
 800580a:	2200      	movs	r2, #0
 800580c:	9004      	str	r0, [sp, #16]
 800580e:	9218      	str	r2, [sp, #96]	@ 0x60
 8005810:	f04f 0800 	mov.w	r8, #0
 8005814:	f04f 0900 	mov.w	r9, #0
 8005818:	9117      	str	r1, [sp, #92]	@ 0x5c
 800581a:	780a      	ldrb	r2, [r1, #0]
 800581c:	2a2b      	cmp	r2, #43	@ 0x2b
 800581e:	460d      	mov	r5, r1
 8005820:	f101 0101 	add.w	r1, r1, #1
 8005824:	d01d      	beq.n	8005862 <_strtod_l+0x62>
 8005826:	d80b      	bhi.n	8005840 <_strtod_l+0x40>
 8005828:	2a0d      	cmp	r2, #13
 800582a:	d806      	bhi.n	800583a <_strtod_l+0x3a>
 800582c:	2a08      	cmp	r2, #8
 800582e:	d8f3      	bhi.n	8005818 <_strtod_l+0x18>
 8005830:	b17a      	cbz	r2, 8005852 <_strtod_l+0x52>
 8005832:	2300      	movs	r3, #0
 8005834:	930b      	str	r3, [sp, #44]	@ 0x2c
 8005836:	469a      	mov	sl, r3
 8005838:	e083      	b.n	8005942 <_strtod_l+0x142>
 800583a:	2a20      	cmp	r2, #32
 800583c:	d0ec      	beq.n	8005818 <_strtod_l+0x18>
 800583e:	e7f8      	b.n	8005832 <_strtod_l+0x32>
 8005840:	2a2d      	cmp	r2, #45	@ 0x2d
 8005842:	d110      	bne.n	8005866 <_strtod_l+0x66>
 8005844:	2201      	movs	r2, #1
 8005846:	1c69      	adds	r1, r5, #1
 8005848:	9117      	str	r1, [sp, #92]	@ 0x5c
 800584a:	920b      	str	r2, [sp, #44]	@ 0x2c
 800584c:	786a      	ldrb	r2, [r5, #1]
 800584e:	2a00      	cmp	r2, #0
 8005850:	d137      	bne.n	80058c2 <_strtod_l+0xc2>
 8005852:	9b15      	ldr	r3, [sp, #84]	@ 0x54
 8005854:	9617      	str	r6, [sp, #92]	@ 0x5c
 8005856:	2b00      	cmp	r3, #0
 8005858:	f040 8595 	bne.w	8006386 <_strtod_l+0xb86>
 800585c:	4642      	mov	r2, r8
 800585e:	464b      	mov	r3, r9
 8005860:	e02a      	b.n	80058b8 <_strtod_l+0xb8>
 8005862:	2200      	movs	r2, #0
 8005864:	e7ef      	b.n	8005846 <_strtod_l+0x46>
 8005866:	2100      	movs	r1, #0
 8005868:	910b      	str	r1, [sp, #44]	@ 0x2c
 800586a:	2a30      	cmp	r2, #48	@ 0x30
 800586c:	f040 809b 	bne.w	80059a6 <_strtod_l+0x1a6>
 8005870:	786a      	ldrb	r2, [r5, #1]
 8005872:	f002 02df 	and.w	r2, r2, #223	@ 0xdf
 8005876:	2a58      	cmp	r2, #88	@ 0x58
 8005878:	d15a      	bne.n	8005930 <_strtod_l+0x130>
 800587a:	9302      	str	r3, [sp, #8]
 800587c:	9b0b      	ldr	r3, [sp, #44]	@ 0x2c
 800587e:	9301      	str	r3, [sp, #4]
 8005880:	ab18      	add	r3, sp, #96	@ 0x60
 8005882:	9300      	str	r3, [sp, #0]
 8005884:	4a81      	ldr	r2, [pc, #516]	@ (8005a8c <_strtod_l+0x28c>)
 8005886:	9804      	ldr	r0, [sp, #16]
 8005888:	ab19      	add	r3, sp, #100	@ 0x64
 800588a:	a917      	add	r1, sp, #92	@ 0x5c
 800588c:	f001 f916 	bl	8006abc <__gethex>
 8005890:	f010 060f 	ands.w	r6, r0, #15
 8005894:	4604      	mov	r4, r0
 8005896:	d005      	beq.n	80058a4 <_strtod_l+0xa4>
 8005898:	2e06      	cmp	r6, #6
 800589a:	d114      	bne.n	80058c6 <_strtod_l+0xc6>
 800589c:	3501      	adds	r5, #1
 800589e:	2300      	movs	r3, #0
 80058a0:	9517      	str	r5, [sp, #92]	@ 0x5c
 80058a2:	930b      	str	r3, [sp, #44]	@ 0x2c
 80058a4:	9b15      	ldr	r3, [sp, #84]	@ 0x54
 80058a6:	2b00      	cmp	r3, #0
 80058a8:	f040 856f 	bne.w	800638a <_strtod_l+0xb8a>
 80058ac:	9b0b      	ldr	r3, [sp, #44]	@ 0x2c
 80058ae:	2b00      	cmp	r3, #0
 80058b0:	d0d4      	beq.n	800585c <_strtod_l+0x5c>
 80058b2:	4642      	mov	r2, r8
 80058b4:	f109 4300 	add.w	r3, r9, #2147483648	@ 0x80000000
 80058b8:	ec43 2b10 	vmov	d0, r2, r3
 80058bc:	b01d      	add	sp, #116	@ 0x74
 80058be:	e8bd 8ff0 	ldmia.w	sp!, {r4, r5, r6, r7, r8, r9, sl, fp, pc}
 80058c2:	460d      	mov	r5, r1
 80058c4:	e7d1      	b.n	800586a <_strtod_l+0x6a>
 80058c6:	9a18      	ldr	r2, [sp, #96]	@ 0x60
 80058c8:	b13a      	cbz	r2, 80058da <_strtod_l+0xda>
 80058ca:	2135      	movs	r1, #53	@ 0x35
 80058cc:	a81a      	add	r0, sp, #104	@ 0x68
 80058ce:	f002 f8fd 	bl	8007acc <__copybits>
 80058d2:	9918      	ldr	r1, [sp, #96]	@ 0x60
 80058d4:	9804      	ldr	r0, [sp, #16]
 80058d6:	f001 fcc3 	bl	8007260 <_Bfree>
 80058da:	3e01      	subs	r6, #1
 80058dc:	2e04      	cmp	r6, #4
 80058de:	d806      	bhi.n	80058ee <_strtod_l+0xee>
 80058e0:	e8df f006 	tbb	[pc, r6]
 80058e4:	211e0314 	.word	0x211e0314
 80058e8:	14          	.byte	0x14
 80058e9:	00          	.byte	0x00
 80058ea:	e9dd 891a 	ldrd	r8, r9, [sp, #104]	@ 0x68
 80058ee:	05e0      	lsls	r0, r4, #23
 80058f0:	bf48      	it	mi
 80058f2:	f049 4900 	orrmi.w	r9, r9, #2147483648	@ 0x80000000
 80058f6:	f029 4300 	bic.w	r3, r9, #2147483648	@ 0x80000000
 80058fa:	0d1b      	lsrs	r3, r3, #20
 80058fc:	051b      	lsls	r3, r3, #20
 80058fe:	2b00      	cmp	r3, #0
 8005900:	d1d0      	bne.n	80058a4 <_strtod_l+0xa4>
 8005902:	f000 ffe5 	bl	80068d0 <__errno>
 8005906:	2322      	movs	r3, #34	@ 0x22
 8005908:	6003      	str	r3, [r0, #0]
 800590a:	e7cb      	b.n	80058a4 <_strtod_l+0xa4>
 800590c:	e9dd 831a 	ldrd	r8, r3, [sp, #104]	@ 0x68
 8005910:	9a19      	ldr	r2, [sp, #100]	@ 0x64
 8005912:	f423 1380 	bic.w	r3, r3, #1048576	@ 0x100000
 8005916:	f202 4233 	addw	r2, r2, #1075	@ 0x433
 800591a:	ea43 5902 	orr.w	r9, r3, r2, lsl #20
 800591e:	e7e6      	b.n	80058ee <_strtod_l+0xee>
 8005920:	f8df 9170 	ldr.w	r9, [pc, #368]	@ 8005a94 <_strtod_l+0x294>
 8005924:	e7e3      	b.n	80058ee <_strtod_l+0xee>
 8005926:	f06f 4900 	mvn.w	r9, #2147483648	@ 0x80000000
 800592a:	f04f 38ff 	mov.w	r8, #4294967295
 800592e:	e7de      	b.n	80058ee <_strtod_l+0xee>
 8005930:	3501      	adds	r5, #1
 8005932:	9517      	str	r5, [sp, #92]	@ 0x5c
 8005934:	782b      	ldrb	r3, [r5, #0]
 8005936:	2b30      	cmp	r3, #48	@ 0x30
 8005938:	d0fa      	beq.n	8005930 <_strtod_l+0x130>
 800593a:	2b00      	cmp	r3, #0
 800593c:	d0b2      	beq.n	80058a4 <_strtod_l+0xa4>
 800593e:	f04f 0a01 	mov.w	sl, #1
 8005942:	2700      	movs	r7, #0
 8005944:	462b      	mov	r3, r5
 8005946:	970e      	str	r7, [sp, #56]	@ 0x38
 8005948:	46bb      	mov	fp, r7
 800594a:	210a      	movs	r1, #10
 800594c:	4618      	mov	r0, r3
 800594e:	f813 4b01 	ldrb.w	r4, [r3], #1
 8005952:	f1a4 0230 	sub.w	r2, r4, #48	@ 0x30
 8005956:	2a09      	cmp	r2, #9
 8005958:	d928      	bls.n	80059ac <_strtod_l+0x1ac>
 800595a:	494d      	ldr	r1, [pc, #308]	@ (8005a90 <_strtod_l+0x290>)
 800595c:	2201      	movs	r2, #1
 800595e:	f000 ff5e 	bl	800681e <strncmp>
 8005962:	2800      	cmp	r0, #0
 8005964:	d034      	beq.n	80059d0 <_strtod_l+0x1d0>
 8005966:	2000      	movs	r0, #0
 8005968:	e9cd 0006 	strd	r0, r0, [sp, #24]
 800596c:	4622      	mov	r2, r4
 800596e:	465c      	mov	r4, fp
 8005970:	2a65      	cmp	r2, #101	@ 0x65
 8005972:	d001      	beq.n	8005978 <_strtod_l+0x178>
 8005974:	2a45      	cmp	r2, #69	@ 0x45
 8005976:	d114      	bne.n	80059a2 <_strtod_l+0x1a2>
 8005978:	b924      	cbnz	r4, 8005984 <_strtod_l+0x184>
 800597a:	ea5a 0300 	orrs.w	r3, sl, r0
 800597e:	f43f af68 	beq.w	8005852 <_strtod_l+0x52>
 8005982:	2400      	movs	r4, #0
 8005984:	9e17      	ldr	r6, [sp, #92]	@ 0x5c
 8005986:	1c73      	adds	r3, r6, #1
 8005988:	9317      	str	r3, [sp, #92]	@ 0x5c
 800598a:	7872      	ldrb	r2, [r6, #1]
 800598c:	2a2b      	cmp	r2, #43	@ 0x2b
 800598e:	d073      	beq.n	8005a78 <_strtod_l+0x278>
 8005990:	2a2d      	cmp	r2, #45	@ 0x2d
 8005992:	d077      	beq.n	8005a84 <_strtod_l+0x284>
 8005994:	f04f 0c00 	mov.w	ip, #0
 8005998:	f1a2 0330 	sub.w	r3, r2, #48	@ 0x30
 800599c:	2b09      	cmp	r3, #9
 800599e:	d97f      	bls.n	8005aa0 <_strtod_l+0x2a0>
 80059a0:	9617      	str	r6, [sp, #92]	@ 0x5c
 80059a2:	2300      	movs	r3, #0
 80059a4:	e09e      	b.n	8005ae4 <_strtod_l+0x2e4>
 80059a6:	f04f 0a00 	mov.w	sl, #0
 80059aa:	e7ca      	b.n	8005942 <_strtod_l+0x142>
 80059ac:	f1bb 0f08 	cmp.w	fp, #8
 80059b0:	bfd8      	it	le
 80059b2:	9a0e      	ldrle	r2, [sp, #56]	@ 0x38
 80059b4:	9317      	str	r3, [sp, #92]	@ 0x5c
 80059b6:	bfdb      	ittet	le
 80059b8:	fb01 4202 	mlale	r2, r1, r2, r4
 80059bc:	3a30      	suble	r2, #48	@ 0x30
 80059be:	fb01 4207 	mlagt	r2, r1, r7, r4
 80059c2:	920e      	strle	r2, [sp, #56]	@ 0x38
 80059c4:	bfc8      	it	gt
 80059c6:	f1a2 0730 	subgt.w	r7, r2, #48	@ 0x30
 80059ca:	f10b 0b01 	add.w	fp, fp, #1
 80059ce:	e7bd      	b.n	800594c <_strtod_l+0x14c>
 80059d0:	9b17      	ldr	r3, [sp, #92]	@ 0x5c
 80059d2:	1c5a      	adds	r2, r3, #1
 80059d4:	9217      	str	r2, [sp, #92]	@ 0x5c
 80059d6:	785a      	ldrb	r2, [r3, #1]
 80059d8:	f1bb 0f00 	cmp.w	fp, #0
 80059dc:	d033      	beq.n	8005a46 <_strtod_l+0x246>
 80059de:	9006      	str	r0, [sp, #24]
 80059e0:	465c      	mov	r4, fp
 80059e2:	f1a2 0330 	sub.w	r3, r2, #48	@ 0x30
 80059e6:	2b09      	cmp	r3, #9
 80059e8:	d912      	bls.n	8005a10 <_strtod_l+0x210>
 80059ea:	2301      	movs	r3, #1
 80059ec:	9307      	str	r3, [sp, #28]
 80059ee:	e7bf      	b.n	8005970 <_strtod_l+0x170>
 80059f0:	9b17      	ldr	r3, [sp, #92]	@ 0x5c
 80059f2:	1c5a      	adds	r2, r3, #1
 80059f4:	9217      	str	r2, [sp, #92]	@ 0x5c
 80059f6:	785a      	ldrb	r2, [r3, #1]
 80059f8:	3001      	adds	r0, #1
 80059fa:	2a30      	cmp	r2, #48	@ 0x30
 80059fc:	d0f8      	beq.n	80059f0 <_strtod_l+0x1f0>
 80059fe:	f1a2 0331 	sub.w	r3, r2, #49	@ 0x31
 8005a02:	2b08      	cmp	r3, #8
 8005a04:	f200 84c6 	bhi.w	8006394 <_strtod_l+0xb94>
 8005a08:	9006      	str	r0, [sp, #24]
 8005a0a:	9d17      	ldr	r5, [sp, #92]	@ 0x5c
 8005a0c:	2000      	movs	r0, #0
 8005a0e:	4604      	mov	r4, r0
 8005a10:	3a30      	subs	r2, #48	@ 0x30
 8005a12:	f100 0301 	add.w	r3, r0, #1
 8005a16:	d010      	beq.n	8005a3a <_strtod_l+0x23a>
 8005a18:	9906      	ldr	r1, [sp, #24]
 8005a1a:	4419      	add	r1, r3
 8005a1c:	9106      	str	r1, [sp, #24]
 8005a1e:	4420      	add	r0, r4
 8005a20:	230a      	movs	r3, #10
 8005a22:	42a0      	cmp	r0, r4
 8005a24:	d111      	bne.n	8005a4a <_strtod_l+0x24a>
 8005a26:	2808      	cmp	r0, #8
 8005a28:	f100 0401 	add.w	r4, r0, #1
 8005a2c:	dc19      	bgt.n	8005a62 <_strtod_l+0x262>
 8005a2e:	990e      	ldr	r1, [sp, #56]	@ 0x38
 8005a30:	230a      	movs	r3, #10
 8005a32:	fb03 2301 	mla	r3, r3, r1, r2
 8005a36:	930e      	str	r3, [sp, #56]	@ 0x38
 8005a38:	2300      	movs	r3, #0
 8005a3a:	9a17      	ldr	r2, [sp, #92]	@ 0x5c
 8005a3c:	1c51      	adds	r1, r2, #1
 8005a3e:	9117      	str	r1, [sp, #92]	@ 0x5c
 8005a40:	7852      	ldrb	r2, [r2, #1]
 8005a42:	4618      	mov	r0, r3
 8005a44:	e7cd      	b.n	80059e2 <_strtod_l+0x1e2>
 8005a46:	4658      	mov	r0, fp
 8005a48:	e7d7      	b.n	80059fa <_strtod_l+0x1fa>
 8005a4a:	2c08      	cmp	r4, #8
 8005a4c:	f104 0401 	add.w	r4, r4, #1
 8005a50:	dc03      	bgt.n	8005a5a <_strtod_l+0x25a>
 8005a52:	990e      	ldr	r1, [sp, #56]	@ 0x38
 8005a54:	4359      	muls	r1, r3
 8005a56:	910e      	str	r1, [sp, #56]	@ 0x38
 8005a58:	e7e3      	b.n	8005a22 <_strtod_l+0x222>
 8005a5a:	2c10      	cmp	r4, #16
 8005a5c:	bfd8      	it	le
 8005a5e:	435f      	mulle	r7, r3
 8005a60:	e7df      	b.n	8005a22 <_strtod_l+0x222>
 8005a62:	280f      	cmp	r0, #15
 8005a64:	bfdc      	itt	le
 8005a66:	230a      	movle	r3, #10
 8005a68:	fb03 2707 	mlale	r7, r3, r7, r2
 8005a6c:	e7e4      	b.n	8005a38 <_strtod_l+0x238>
 8005a6e:	2100      	movs	r1, #0
 8005a70:	2301      	movs	r3, #1
 8005a72:	e9cd 1306 	strd	r1, r3, [sp, #24]
 8005a76:	e780      	b.n	800597a <_strtod_l+0x17a>
 8005a78:	f04f 0c00 	mov.w	ip, #0
 8005a7c:	1cb3      	adds	r3, r6, #2
 8005a7e:	9317      	str	r3, [sp, #92]	@ 0x5c
 8005a80:	78b2      	ldrb	r2, [r6, #2]
 8005a82:	e789      	b.n	8005998 <_strtod_l+0x198>
 8005a84:	f04f 0c01 	mov.w	ip, #1
 8005a88:	e7f8      	b.n	8005a7c <_strtod_l+0x27c>
 8005a8a:	bf00      	nop
 8005a8c:	08008fb4 	.word	0x08008fb4
 8005a90:	08008e38 	.word	0x08008e38
 8005a94:	7ff00000 	.word	0x7ff00000
 8005a98:	9b17      	ldr	r3, [sp, #92]	@ 0x5c
 8005a9a:	1c5a      	adds	r2, r3, #1
 8005a9c:	9217      	str	r2, [sp, #92]	@ 0x5c
 8005a9e:	785a      	ldrb	r2, [r3, #1]
 8005aa0:	2a30      	cmp	r2, #48	@ 0x30
 8005aa2:	d0f9      	beq.n	8005a98 <_strtod_l+0x298>
 8005aa4:	f1a2 0331 	sub.w	r3, r2, #49	@ 0x31
 8005aa8:	2b08      	cmp	r3, #8
 8005aaa:	f63f af7a 	bhi.w	80059a2 <_strtod_l+0x1a2>
 8005aae:	9b17      	ldr	r3, [sp, #92]	@ 0x5c
 8005ab0:	9305      	str	r3, [sp, #20]
 8005ab2:	f1a2 0e30 	sub.w	lr, r2, #48	@ 0x30
 8005ab6:	3301      	adds	r3, #1
 8005ab8:	9317      	str	r3, [sp, #92]	@ 0x5c
 8005aba:	781a      	ldrb	r2, [r3, #0]
 8005abc:	f1a2 0130 	sub.w	r1, r2, #48	@ 0x30
 8005ac0:	2909      	cmp	r1, #9
 8005ac2:	d93c      	bls.n	8005b3e <_strtod_l+0x33e>
 8005ac4:	9905      	ldr	r1, [sp, #20]
 8005ac6:	1a5b      	subs	r3, r3, r1
 8005ac8:	2b08      	cmp	r3, #8
 8005aca:	f644 631f 	movw	r3, #19999	@ 0x4e1f
 8005ace:	dc3c      	bgt.n	8005b4a <_strtod_l+0x34a>
 8005ad0:	459e      	cmp	lr, r3
 8005ad2:	4671      	mov	r1, lr
 8005ad4:	bfa8      	it	ge
 8005ad6:	4619      	movge	r1, r3
 8005ad8:	9105      	str	r1, [sp, #20]
 8005ada:	f1bc 0f00 	cmp.w	ip, #0
 8005ade:	d002      	beq.n	8005ae6 <_strtod_l+0x2e6>
 8005ae0:	9b05      	ldr	r3, [sp, #20]
 8005ae2:	425b      	negs	r3, r3
 8005ae4:	9305      	str	r3, [sp, #20]
 8005ae6:	2c00      	cmp	r4, #0
 8005ae8:	d150      	bne.n	8005b8c <_strtod_l+0x38c>
 8005aea:	ea5a 0000 	orrs.w	r0, sl, r0
 8005aee:	f47f aed9 	bne.w	80058a4 <_strtod_l+0xa4>
 8005af2:	9b07      	ldr	r3, [sp, #28]
 8005af4:	2b00      	cmp	r3, #0
 8005af6:	f47f aeac 	bne.w	8005852 <_strtod_l+0x52>
 8005afa:	2a69      	cmp	r2, #105	@ 0x69
 8005afc:	d029      	beq.n	8005b52 <_strtod_l+0x352>
 8005afe:	dc26      	bgt.n	8005b4e <_strtod_l+0x34e>
 8005b00:	2a49      	cmp	r2, #73	@ 0x49
 8005b02:	d026      	beq.n	8005b52 <_strtod_l+0x352>
 8005b04:	2a4e      	cmp	r2, #78	@ 0x4e
 8005b06:	f47f aea4 	bne.w	8005852 <_strtod_l+0x52>
 8005b0a:	49a1      	ldr	r1, [pc, #644]	@ (8005d90 <_strtod_l+0x590>)
 8005b0c:	a817      	add	r0, sp, #92	@ 0x5c
 8005b0e:	f001 f9f7 	bl	8006f00 <__match>
 8005b12:	2800      	cmp	r0, #0
 8005b14:	f43f ae9d 	beq.w	8005852 <_strtod_l+0x52>
 8005b18:	9b17      	ldr	r3, [sp, #92]	@ 0x5c
 8005b1a:	781b      	ldrb	r3, [r3, #0]
 8005b1c:	2b28      	cmp	r3, #40	@ 0x28
 8005b1e:	d12f      	bne.n	8005b80 <_strtod_l+0x380>
 8005b20:	499c      	ldr	r1, [pc, #624]	@ (8005d94 <_strtod_l+0x594>)
 8005b22:	aa1a      	add	r2, sp, #104	@ 0x68
 8005b24:	a817      	add	r0, sp, #92	@ 0x5c
 8005b26:	f001 f9ff 	bl	8006f28 <__hexnan>
 8005b2a:	2805      	cmp	r0, #5
 8005b2c:	d128      	bne.n	8005b80 <_strtod_l+0x380>
 8005b2e:	9b1b      	ldr	r3, [sp, #108]	@ 0x6c
 8005b30:	f8dd 8068 	ldr.w	r8, [sp, #104]	@ 0x68
 8005b34:	f043 49ff 	orr.w	r9, r3, #2139095040	@ 0x7f800000
 8005b38:	f449 09e0 	orr.w	r9, r9, #7340032	@ 0x700000
 8005b3c:	e6b2      	b.n	80058a4 <_strtod_l+0xa4>
 8005b3e:	210a      	movs	r1, #10
 8005b40:	fb01 220e 	mla	r2, r1, lr, r2
 8005b44:	f1a2 0e30 	sub.w	lr, r2, #48	@ 0x30
 8005b48:	e7b5      	b.n	8005ab6 <_strtod_l+0x2b6>
 8005b4a:	9305      	str	r3, [sp, #20]
 8005b4c:	e7c5      	b.n	8005ada <_strtod_l+0x2da>
 8005b4e:	2a6e      	cmp	r2, #110	@ 0x6e
 8005b50:	e7d9      	b.n	8005b06 <_strtod_l+0x306>
 8005b52:	4991      	ldr	r1, [pc, #580]	@ (8005d98 <_strtod_l+0x598>)
 8005b54:	a817      	add	r0, sp, #92	@ 0x5c
 8005b56:	f001 f9d3 	bl	8006f00 <__match>
 8005b5a:	2800      	cmp	r0, #0
 8005b5c:	f43f ae79 	beq.w	8005852 <_strtod_l+0x52>
 8005b60:	9b17      	ldr	r3, [sp, #92]	@ 0x5c
 8005b62:	498e      	ldr	r1, [pc, #568]	@ (8005d9c <_strtod_l+0x59c>)
 8005b64:	3b01      	subs	r3, #1
 8005b66:	a817      	add	r0, sp, #92	@ 0x5c
 8005b68:	9317      	str	r3, [sp, #92]	@ 0x5c
 8005b6a:	f001 f9c9 	bl	8006f00 <__match>
 8005b6e:	b910      	cbnz	r0, 8005b76 <_strtod_l+0x376>
 8005b70:	9b17      	ldr	r3, [sp, #92]	@ 0x5c
 8005b72:	3301      	adds	r3, #1
 8005b74:	9317      	str	r3, [sp, #92]	@ 0x5c
 8005b76:	f8df 9234 	ldr.w	r9, [pc, #564]	@ 8005dac <_strtod_l+0x5ac>
 8005b7a:	f04f 0800 	mov.w	r8, #0
 8005b7e:	e691      	b.n	80058a4 <_strtod_l+0xa4>
 8005b80:	4887      	ldr	r0, [pc, #540]	@ (8005da0 <_strtod_l+0x5a0>)
 8005b82:	f000 fee1 	bl	8006948 <nan>
 8005b86:	ec59 8b10 	vmov	r8, r9, d0
 8005b8a:	e68b      	b.n	80058a4 <_strtod_l+0xa4>
 8005b8c:	e9dd 3205 	ldrd	r3, r2, [sp, #20]
 8005b90:	980e      	ldr	r0, [sp, #56]	@ 0x38
 8005b92:	1a9b      	subs	r3, r3, r2
 8005b94:	f1bb 0f00 	cmp.w	fp, #0
 8005b98:	bf08      	it	eq
 8005b9a:	46a3      	moveq	fp, r4
 8005b9c:	2c10      	cmp	r4, #16
 8005b9e:	930a      	str	r3, [sp, #40]	@ 0x28
 8005ba0:	46a2      	mov	sl, r4
 8005ba2:	bfa8      	it	ge
 8005ba4:	f04f 0a10 	movge.w	sl, #16
 8005ba8:	f7fa fccc 	bl	8000544 <__aeabi_ui2d>
 8005bac:	2c09      	cmp	r4, #9
 8005bae:	4680      	mov	r8, r0
 8005bb0:	4689      	mov	r9, r1
 8005bb2:	dc13      	bgt.n	8005bdc <_strtod_l+0x3dc>
 8005bb4:	9b0a      	ldr	r3, [sp, #40]	@ 0x28
 8005bb6:	2b00      	cmp	r3, #0
 8005bb8:	f43f ae74 	beq.w	80058a4 <_strtod_l+0xa4>
 8005bbc:	9b0a      	ldr	r3, [sp, #40]	@ 0x28
 8005bbe:	dd73      	ble.n	8005ca8 <_strtod_l+0x4a8>
 8005bc0:	2b16      	cmp	r3, #22
 8005bc2:	dc5a      	bgt.n	8005c7a <_strtod_l+0x47a>
 8005bc4:	4977      	ldr	r1, [pc, #476]	@ (8005da4 <_strtod_l+0x5a4>)
 8005bc6:	eb01 01c3 	add.w	r1, r1, r3, lsl #3
 8005bca:	e9d1 0100 	ldrd	r0, r1, [r1]
 8005bce:	4642      	mov	r2, r8
 8005bd0:	464b      	mov	r3, r9
 8005bd2:	f7fa fd31 	bl	8000638 <__aeabi_dmul>
 8005bd6:	4680      	mov	r8, r0
 8005bd8:	4689      	mov	r9, r1
 8005bda:	e663      	b.n	80058a4 <_strtod_l+0xa4>
 8005bdc:	4b71      	ldr	r3, [pc, #452]	@ (8005da4 <_strtod_l+0x5a4>)
 8005bde:	eb03 03ca 	add.w	r3, r3, sl, lsl #3
 8005be2:	e953 2312 	ldrd	r2, r3, [r3, #-72]	@ 0x48
 8005be6:	f7fa fd27 	bl	8000638 <__aeabi_dmul>
 8005bea:	4680      	mov	r8, r0
 8005bec:	4638      	mov	r0, r7
 8005bee:	4689      	mov	r9, r1
 8005bf0:	f7fa fca8 	bl	8000544 <__aeabi_ui2d>
 8005bf4:	4602      	mov	r2, r0
 8005bf6:	460b      	mov	r3, r1
 8005bf8:	4640      	mov	r0, r8
 8005bfa:	4649      	mov	r1, r9
 8005bfc:	f7fa fb66 	bl	80002cc <__adddf3>
 8005c00:	2c0f      	cmp	r4, #15
 8005c02:	4680      	mov	r8, r0
 8005c04:	4689      	mov	r9, r1
 8005c06:	ddd5      	ble.n	8005bb4 <_strtod_l+0x3b4>
 8005c08:	9b0a      	ldr	r3, [sp, #40]	@ 0x28
 8005c0a:	eba4 0a0a 	sub.w	sl, r4, sl
 8005c0e:	449a      	add	sl, r3
 8005c10:	f1ba 0f00 	cmp.w	sl, #0
 8005c14:	f340 8097 	ble.w	8005d46 <_strtod_l+0x546>
 8005c18:	f02a 060f 	bic.w	r6, sl, #15
 8005c1c:	f01a 0a0f 	ands.w	sl, sl, #15
 8005c20:	d151      	bne.n	8005cc6 <_strtod_l+0x4c6>
 8005c22:	f5b6 7f9a 	cmp.w	r6, #308	@ 0x134
 8005c26:	dc5e      	bgt.n	8005ce6 <_strtod_l+0x4e6>
 8005c28:	2300      	movs	r3, #0
 8005c2a:	f8df a17c 	ldr.w	sl, [pc, #380]	@ 8005da8 <_strtod_l+0x5a8>
 8005c2e:	1136      	asrs	r6, r6, #4
 8005c30:	4640      	mov	r0, r8
 8005c32:	4649      	mov	r1, r9
 8005c34:	461f      	mov	r7, r3
 8005c36:	2e01      	cmp	r6, #1
 8005c38:	d179      	bne.n	8005d2e <_strtod_l+0x52e>
 8005c3a:	b10b      	cbz	r3, 8005c40 <_strtod_l+0x440>
 8005c3c:	4680      	mov	r8, r0
 8005c3e:	4689      	mov	r9, r1
 8005c40:	4959      	ldr	r1, [pc, #356]	@ (8005da8 <_strtod_l+0x5a8>)
 8005c42:	f1a9 7954 	sub.w	r9, r9, #55574528	@ 0x3500000
 8005c46:	eb01 01c7 	add.w	r1, r1, r7, lsl #3
 8005c4a:	4642      	mov	r2, r8
 8005c4c:	464b      	mov	r3, r9
 8005c4e:	e9d1 0100 	ldrd	r0, r1, [r1]
 8005c52:	f7fa fcf1 	bl	8000638 <__aeabi_dmul>
 8005c56:	4b55      	ldr	r3, [pc, #340]	@ (8005dac <_strtod_l+0x5ac>)
 8005c58:	460a      	mov	r2, r1
 8005c5a:	400b      	ands	r3, r1
 8005c5c:	4954      	ldr	r1, [pc, #336]	@ (8005db0 <_strtod_l+0x5b0>)
 8005c5e:	428b      	cmp	r3, r1
 8005c60:	4680      	mov	r8, r0
 8005c62:	d840      	bhi.n	8005ce6 <_strtod_l+0x4e6>
 8005c64:	f5a1 1180 	sub.w	r1, r1, #1048576	@ 0x100000
 8005c68:	428b      	cmp	r3, r1
 8005c6a:	bf86      	itte	hi
 8005c6c:	f8df 9144 	ldrhi.w	r9, [pc, #324]	@ 8005db4 <_strtod_l+0x5b4>
 8005c70:	f04f 38ff 	movhi.w	r8, #4294967295
 8005c74:	f102 7954 	addls.w	r9, r2, #55574528	@ 0x3500000
 8005c78:	e032      	b.n	8005ce0 <_strtod_l+0x4e0>
 8005c7a:	9a0a      	ldr	r2, [sp, #40]	@ 0x28
 8005c7c:	f1c4 0325 	rsb	r3, r4, #37	@ 0x25
 8005c80:	4293      	cmp	r3, r2
 8005c82:	dbc1      	blt.n	8005c08 <_strtod_l+0x408>
 8005c84:	4d47      	ldr	r5, [pc, #284]	@ (8005da4 <_strtod_l+0x5a4>)
 8005c86:	f1c4 040f 	rsb	r4, r4, #15
 8005c8a:	eb05 01c4 	add.w	r1, r5, r4, lsl #3
 8005c8e:	4642      	mov	r2, r8
 8005c90:	464b      	mov	r3, r9
 8005c92:	e9d1 0100 	ldrd	r0, r1, [r1]
 8005c96:	f7fa fccf 	bl	8000638 <__aeabi_dmul>
 8005c9a:	9b0a      	ldr	r3, [sp, #40]	@ 0x28
 8005c9c:	1b1c      	subs	r4, r3, r4
 8005c9e:	eb05 05c4 	add.w	r5, r5, r4, lsl #3
 8005ca2:	e9d5 2300 	ldrd	r2, r3, [r5]
 8005ca6:	e794      	b.n	8005bd2 <_strtod_l+0x3d2>
 8005ca8:	3316      	adds	r3, #22
 8005caa:	dbad      	blt.n	8005c08 <_strtod_l+0x408>
 8005cac:	e9dd 2305 	ldrd	r2, r3, [sp, #20]
 8005cb0:	1a9a      	subs	r2, r3, r2
 8005cb2:	4b3c      	ldr	r3, [pc, #240]	@ (8005da4 <_strtod_l+0x5a4>)
 8005cb4:	eb03 03c2 	add.w	r3, r3, r2, lsl #3
 8005cb8:	e9d3 2300 	ldrd	r2, r3, [r3]
 8005cbc:	4640      	mov	r0, r8
 8005cbe:	4649      	mov	r1, r9
 8005cc0:	f7fa fde4 	bl	800088c <__aeabi_ddiv>
 8005cc4:	e787      	b.n	8005bd6 <_strtod_l+0x3d6>
 8005cc6:	4937      	ldr	r1, [pc, #220]	@ (8005da4 <_strtod_l+0x5a4>)
 8005cc8:	eb01 01ca 	add.w	r1, r1, sl, lsl #3
 8005ccc:	4642      	mov	r2, r8
 8005cce:	464b      	mov	r3, r9
 8005cd0:	e9d1 0100 	ldrd	r0, r1, [r1]
 8005cd4:	f7fa fcb0 	bl	8000638 <__aeabi_dmul>
 8005cd8:	4680      	mov	r8, r0
 8005cda:	4689      	mov	r9, r1
 8005cdc:	2e00      	cmp	r6, #0
 8005cde:	d1a0      	bne.n	8005c22 <_strtod_l+0x422>
 8005ce0:	2300      	movs	r3, #0
 8005ce2:	9307      	str	r3, [sp, #28]
 8005ce4:	e0a0      	b.n	8005e28 <_strtod_l+0x628>
 8005ce6:	2400      	movs	r4, #0
 8005ce8:	9405      	str	r4, [sp, #20]
 8005cea:	940e      	str	r4, [sp, #56]	@ 0x38
 8005cec:	9406      	str	r4, [sp, #24]
 8005cee:	9a04      	ldr	r2, [sp, #16]
 8005cf0:	f8df 90b8 	ldr.w	r9, [pc, #184]	@ 8005dac <_strtod_l+0x5ac>
 8005cf4:	2322      	movs	r3, #34	@ 0x22
 8005cf6:	6013      	str	r3, [r2, #0]
 8005cf8:	f04f 0800 	mov.w	r8, #0
 8005cfc:	9b0e      	ldr	r3, [sp, #56]	@ 0x38
 8005cfe:	2b00      	cmp	r3, #0
 8005d00:	f43f add0 	beq.w	80058a4 <_strtod_l+0xa4>
 8005d04:	9918      	ldr	r1, [sp, #96]	@ 0x60
 8005d06:	9804      	ldr	r0, [sp, #16]
 8005d08:	f001 faaa 	bl	8007260 <_Bfree>
 8005d0c:	9906      	ldr	r1, [sp, #24]
 8005d0e:	9804      	ldr	r0, [sp, #16]
 8005d10:	f001 faa6 	bl	8007260 <_Bfree>
 8005d14:	e9dd 0104 	ldrd	r0, r1, [sp, #16]
 8005d18:	f001 faa2 	bl	8007260 <_Bfree>
 8005d1c:	990e      	ldr	r1, [sp, #56]	@ 0x38
 8005d1e:	9804      	ldr	r0, [sp, #16]
 8005d20:	f001 fa9e 	bl	8007260 <_Bfree>
 8005d24:	9804      	ldr	r0, [sp, #16]
 8005d26:	4621      	mov	r1, r4
 8005d28:	f001 fa9a 	bl	8007260 <_Bfree>
 8005d2c:	e5ba      	b.n	80058a4 <_strtod_l+0xa4>
 8005d2e:	07f2      	lsls	r2, r6, #31
 8005d30:	d504      	bpl.n	8005d3c <_strtod_l+0x53c>
 8005d32:	e9da 2300 	ldrd	r2, r3, [sl]
 8005d36:	f7fa fc7f 	bl	8000638 <__aeabi_dmul>
 8005d3a:	2301      	movs	r3, #1
 8005d3c:	3701      	adds	r7, #1
 8005d3e:	1076      	asrs	r6, r6, #1
 8005d40:	f10a 0a08 	add.w	sl, sl, #8
 8005d44:	e777      	b.n	8005c36 <_strtod_l+0x436>
 8005d46:	d0cb      	beq.n	8005ce0 <_strtod_l+0x4e0>
 8005d48:	f1ca 0a00 	rsb	sl, sl, #0
 8005d4c:	ea4f 162a 	mov.w	r6, sl, asr #4
 8005d50:	f01a 0a0f 	ands.w	sl, sl, #15
 8005d54:	d10d      	bne.n	8005d72 <_strtod_l+0x572>
 8005d56:	2e1f      	cmp	r6, #31
 8005d58:	dd2e      	ble.n	8005db8 <_strtod_l+0x5b8>
 8005d5a:	2400      	movs	r4, #0
 8005d5c:	9405      	str	r4, [sp, #20]
 8005d5e:	940e      	str	r4, [sp, #56]	@ 0x38
 8005d60:	9406      	str	r4, [sp, #24]
 8005d62:	9a04      	ldr	r2, [sp, #16]
 8005d64:	2322      	movs	r3, #34	@ 0x22
 8005d66:	f04f 0800 	mov.w	r8, #0
 8005d6a:	f04f 0900 	mov.w	r9, #0
 8005d6e:	6013      	str	r3, [r2, #0]
 8005d70:	e7c4      	b.n	8005cfc <_strtod_l+0x4fc>
 8005d72:	4b0c      	ldr	r3, [pc, #48]	@ (8005da4 <_strtod_l+0x5a4>)
 8005d74:	eb03 03ca 	add.w	r3, r3, sl, lsl #3
 8005d78:	4640      	mov	r0, r8
 8005d7a:	4649      	mov	r1, r9
 8005d7c:	e9d3 2300 	ldrd	r2, r3, [r3]
 8005d80:	f7fa fd84 	bl	800088c <__aeabi_ddiv>
 8005d84:	4680      	mov	r8, r0
 8005d86:	4689      	mov	r9, r1
 8005d88:	2e00      	cmp	r6, #0
 8005d8a:	d0a9      	beq.n	8005ce0 <_strtod_l+0x4e0>
 8005d8c:	e7e3      	b.n	8005d56 <_strtod_l+0x556>
 8005d8e:	bf00      	nop
 8005d90:	08008e43 	.word	0x08008e43
 8005d94:	08008fa0 	.word	0x08008fa0
 8005d98:	08008e3a 	.word	0x08008e3a
 8005d9c:	08008e3d 	.word	0x08008e3d
 8005da0:	08008f9d 	.word	0x08008f9d
 8005da4:	08009128 	.word	0x08009128
 8005da8:	08009100 	.word	0x08009100
 8005dac:	7ff00000 	.word	0x7ff00000
 8005db0:	7ca00000 	.word	0x7ca00000
 8005db4:	7fefffff 	.word	0x7fefffff
 8005db8:	f016 0310 	ands.w	r3, r6, #16
 8005dbc:	bf18      	it	ne
 8005dbe:	236a      	movne	r3, #106	@ 0x6a
 8005dc0:	4f76      	ldr	r7, [pc, #472]	@ (8005f9c <_strtod_l+0x79c>)
 8005dc2:	9307      	str	r3, [sp, #28]
 8005dc4:	4640      	mov	r0, r8
 8005dc6:	4649      	mov	r1, r9
 8005dc8:	2300      	movs	r3, #0
 8005dca:	07f2      	lsls	r2, r6, #31
 8005dcc:	d504      	bpl.n	8005dd8 <_strtod_l+0x5d8>
 8005dce:	e9d7 2300 	ldrd	r2, r3, [r7]
 8005dd2:	f7fa fc31 	bl	8000638 <__aeabi_dmul>
 8005dd6:	2301      	movs	r3, #1
 8005dd8:	1076      	asrs	r6, r6, #1
 8005dda:	f107 0708 	add.w	r7, r7, #8
 8005dde:	d1f4      	bne.n	8005dca <_strtod_l+0x5ca>
 8005de0:	b10b      	cbz	r3, 8005de6 <_strtod_l+0x5e6>
 8005de2:	4680      	mov	r8, r0
 8005de4:	4689      	mov	r9, r1
 8005de6:	9b07      	ldr	r3, [sp, #28]
 8005de8:	b1b3      	cbz	r3, 8005e18 <_strtod_l+0x618>
 8005dea:	f3c9 520a 	ubfx	r2, r9, #20, #11
 8005dee:	f1c2 036b 	rsb	r3, r2, #107	@ 0x6b
 8005df2:	2b00      	cmp	r3, #0
 8005df4:	4649      	mov	r1, r9
 8005df6:	dd0f      	ble.n	8005e18 <_strtod_l+0x618>
 8005df8:	2b1f      	cmp	r3, #31
 8005dfa:	dd57      	ble.n	8005eac <_strtod_l+0x6ac>
 8005dfc:	2b34      	cmp	r3, #52	@ 0x34
 8005dfe:	bfde      	ittt	le
 8005e00:	f04f 33ff 	movle.w	r3, #4294967295
 8005e04:	f1c2 024b 	rsble	r2, r2, #75	@ 0x4b
 8005e08:	4093      	lslle	r3, r2
 8005e0a:	f04f 0800 	mov.w	r8, #0
 8005e0e:	bfcc      	ite	gt
 8005e10:	f04f 795c 	movgt.w	r9, #57671680	@ 0x3700000
 8005e14:	ea03 0901 	andle.w	r9, r3, r1
 8005e18:	2200      	movs	r2, #0
 8005e1a:	2300      	movs	r3, #0
 8005e1c:	4640      	mov	r0, r8
 8005e1e:	4649      	mov	r1, r9
 8005e20:	f7fa fe72 	bl	8000b08 <__aeabi_dcmpeq>
 8005e24:	2800      	cmp	r0, #0
 8005e26:	d198      	bne.n	8005d5a <_strtod_l+0x55a>
 8005e28:	9b0e      	ldr	r3, [sp, #56]	@ 0x38
 8005e2a:	9300      	str	r3, [sp, #0]
 8005e2c:	9804      	ldr	r0, [sp, #16]
 8005e2e:	4623      	mov	r3, r4
 8005e30:	465a      	mov	r2, fp
 8005e32:	4629      	mov	r1, r5
 8005e34:	f001 fa7c 	bl	8007330 <__s2b>
 8005e38:	900e      	str	r0, [sp, #56]	@ 0x38
 8005e3a:	2800      	cmp	r0, #0
 8005e3c:	f43f af53 	beq.w	8005ce6 <_strtod_l+0x4e6>
 8005e40:	e9dd 2305 	ldrd	r2, r3, [sp, #20]
 8005e44:	1a9b      	subs	r3, r3, r2
 8005e46:	9a0a      	ldr	r2, [sp, #40]	@ 0x28
 8005e48:	2a00      	cmp	r2, #0
 8005e4a:	bfa8      	it	ge
 8005e4c:	2300      	movge	r3, #0
 8005e4e:	9312      	str	r3, [sp, #72]	@ 0x48
 8005e50:	2400      	movs	r4, #0
 8005e52:	ea22 73e2 	bic.w	r3, r2, r2, asr #31
 8005e56:	9314      	str	r3, [sp, #80]	@ 0x50
 8005e58:	9405      	str	r4, [sp, #20]
 8005e5a:	9b0e      	ldr	r3, [sp, #56]	@ 0x38
 8005e5c:	9804      	ldr	r0, [sp, #16]
 8005e5e:	6859      	ldr	r1, [r3, #4]
 8005e60:	f001 f9c0 	bl	80071e4 <_Balloc>
 8005e64:	9006      	str	r0, [sp, #24]
 8005e66:	2800      	cmp	r0, #0
 8005e68:	f43f af41 	beq.w	8005cee <_strtod_l+0x4ee>
 8005e6c:	9b0e      	ldr	r3, [sp, #56]	@ 0x38
 8005e6e:	691a      	ldr	r2, [r3, #16]
 8005e70:	3202      	adds	r2, #2
 8005e72:	f103 010c 	add.w	r1, r3, #12
 8005e76:	0092      	lsls	r2, r2, #2
 8005e78:	300c      	adds	r0, #12
 8005e7a:	f000 fd56 	bl	800692a <memcpy>
 8005e7e:	ec49 8b10 	vmov	d0, r8, r9
 8005e82:	9804      	ldr	r0, [sp, #16]
 8005e84:	aa1a      	add	r2, sp, #104	@ 0x68
 8005e86:	a919      	add	r1, sp, #100	@ 0x64
 8005e88:	e9cd 890c 	strd	r8, r9, [sp, #48]	@ 0x30
 8005e8c:	f001 fd94 	bl	80079b8 <__d2b>
 8005e90:	9018      	str	r0, [sp, #96]	@ 0x60
 8005e92:	2800      	cmp	r0, #0
 8005e94:	f43f af2b 	beq.w	8005cee <_strtod_l+0x4ee>
 8005e98:	9804      	ldr	r0, [sp, #16]
 8005e9a:	2101      	movs	r1, #1
 8005e9c:	f001 fade 	bl	800745c <__i2b>
 8005ea0:	9005      	str	r0, [sp, #20]
 8005ea2:	4603      	mov	r3, r0
 8005ea4:	b948      	cbnz	r0, 8005eba <_strtod_l+0x6ba>
 8005ea6:	2300      	movs	r3, #0
 8005ea8:	9305      	str	r3, [sp, #20]
 8005eaa:	e720      	b.n	8005cee <_strtod_l+0x4ee>
 8005eac:	f04f 32ff 	mov.w	r2, #4294967295
 8005eb0:	fa02 f303 	lsl.w	r3, r2, r3
 8005eb4:	ea03 0808 	and.w	r8, r3, r8
 8005eb8:	e7ae      	b.n	8005e18 <_strtod_l+0x618>
 8005eba:	9d19      	ldr	r5, [sp, #100]	@ 0x64
 8005ebc:	9a1a      	ldr	r2, [sp, #104]	@ 0x68
 8005ebe:	2d00      	cmp	r5, #0
 8005ec0:	bfab      	itete	ge
 8005ec2:	9b12      	ldrge	r3, [sp, #72]	@ 0x48
 8005ec4:	9b14      	ldrlt	r3, [sp, #80]	@ 0x50
 8005ec6:	9e14      	ldrge	r6, [sp, #80]	@ 0x50
 8005ec8:	9f12      	ldrlt	r7, [sp, #72]	@ 0x48
 8005eca:	bfac      	ite	ge
 8005ecc:	18ef      	addge	r7, r5, r3
 8005ece:	1b5e      	sublt	r6, r3, r5
 8005ed0:	9b07      	ldr	r3, [sp, #28]
 8005ed2:	1aed      	subs	r5, r5, r3
 8005ed4:	4415      	add	r5, r2
 8005ed6:	4b32      	ldr	r3, [pc, #200]	@ (8005fa0 <_strtod_l+0x7a0>)
 8005ed8:	3d01      	subs	r5, #1
 8005eda:	429d      	cmp	r5, r3
 8005edc:	f1c2 0236 	rsb	r2, r2, #54	@ 0x36
 8005ee0:	da4f      	bge.n	8005f82 <_strtod_l+0x782>
 8005ee2:	1b5b      	subs	r3, r3, r5
 8005ee4:	2b1f      	cmp	r3, #31
 8005ee6:	eba2 0203 	sub.w	r2, r2, r3
 8005eea:	f04f 0101 	mov.w	r1, #1
 8005eee:	dc3c      	bgt.n	8005f6a <_strtod_l+0x76a>
 8005ef0:	fa01 fa03 	lsl.w	sl, r1, r3
 8005ef4:	f04f 0b00 	mov.w	fp, #0
 8005ef8:	18bd      	adds	r5, r7, r2
 8005efa:	9b07      	ldr	r3, [sp, #28]
 8005efc:	42af      	cmp	r7, r5
 8005efe:	4416      	add	r6, r2
 8005f00:	441e      	add	r6, r3
 8005f02:	463b      	mov	r3, r7
 8005f04:	bfa8      	it	ge
 8005f06:	462b      	movge	r3, r5
 8005f08:	42b3      	cmp	r3, r6
 8005f0a:	bfa8      	it	ge
 8005f0c:	4633      	movge	r3, r6
 8005f0e:	2b00      	cmp	r3, #0
 8005f10:	bfc2      	ittt	gt
 8005f12:	1aed      	subgt	r5, r5, r3
 8005f14:	1af6      	subgt	r6, r6, r3
 8005f16:	1aff      	subgt	r7, r7, r3
 8005f18:	9b12      	ldr	r3, [sp, #72]	@ 0x48
 8005f1a:	2b00      	cmp	r3, #0
 8005f1c:	dd16      	ble.n	8005f4c <_strtod_l+0x74c>
 8005f1e:	e9dd 0104 	ldrd	r0, r1, [sp, #16]
 8005f22:	461a      	mov	r2, r3
 8005f24:	f001 fb5a 	bl	80075dc <__pow5mult>
 8005f28:	9005      	str	r0, [sp, #20]
 8005f2a:	2800      	cmp	r0, #0
 8005f2c:	d0bb      	beq.n	8005ea6 <_strtod_l+0x6a6>
 8005f2e:	4601      	mov	r1, r0
 8005f30:	9a18      	ldr	r2, [sp, #96]	@ 0x60
 8005f32:	9804      	ldr	r0, [sp, #16]
 8005f34:	f001 faa8 	bl	8007488 <__multiply>
 8005f38:	900f      	str	r0, [sp, #60]	@ 0x3c
 8005f3a:	2800      	cmp	r0, #0
 8005f3c:	f43f aed7 	beq.w	8005cee <_strtod_l+0x4ee>
 8005f40:	9918      	ldr	r1, [sp, #96]	@ 0x60
 8005f42:	9804      	ldr	r0, [sp, #16]
 8005f44:	f001 f98c 	bl	8007260 <_Bfree>
 8005f48:	9b0f      	ldr	r3, [sp, #60]	@ 0x3c
 8005f4a:	9318      	str	r3, [sp, #96]	@ 0x60
 8005f4c:	2d00      	cmp	r5, #0
 8005f4e:	dc1b      	bgt.n	8005f88 <_strtod_l+0x788>
 8005f50:	9b0a      	ldr	r3, [sp, #40]	@ 0x28
 8005f52:	2b00      	cmp	r3, #0
 8005f54:	dd26      	ble.n	8005fa4 <_strtod_l+0x7a4>
 8005f56:	9a14      	ldr	r2, [sp, #80]	@ 0x50
 8005f58:	9906      	ldr	r1, [sp, #24]
 8005f5a:	9804      	ldr	r0, [sp, #16]
 8005f5c:	f001 fb3e 	bl	80075dc <__pow5mult>
 8005f60:	9006      	str	r0, [sp, #24]
 8005f62:	b9f8      	cbnz	r0, 8005fa4 <_strtod_l+0x7a4>
 8005f64:	2300      	movs	r3, #0
 8005f66:	9306      	str	r3, [sp, #24]
 8005f68:	e6c1      	b.n	8005cee <_strtod_l+0x4ee>
 8005f6a:	f1c5 457f 	rsb	r5, r5, #4278190080	@ 0xff000000
 8005f6e:	f505 057f 	add.w	r5, r5, #16711680	@ 0xff0000
 8005f72:	f505 457b 	add.w	r5, r5, #64256	@ 0xfb00
 8005f76:	35e2      	adds	r5, #226	@ 0xe2
 8005f78:	fa01 fb05 	lsl.w	fp, r1, r5
 8005f7c:	f04f 0a01 	mov.w	sl, #1
 8005f80:	e7ba      	b.n	8005ef8 <_strtod_l+0x6f8>
 8005f82:	f04f 0b00 	mov.w	fp, #0
 8005f86:	e7f9      	b.n	8005f7c <_strtod_l+0x77c>
 8005f88:	9918      	ldr	r1, [sp, #96]	@ 0x60
 8005f8a:	9804      	ldr	r0, [sp, #16]
 8005f8c:	462a      	mov	r2, r5
 8005f8e:	f001 fb81 	bl	8007694 <__lshift>
 8005f92:	9018      	str	r0, [sp, #96]	@ 0x60
 8005f94:	2800      	cmp	r0, #0
 8005f96:	d1db      	bne.n	8005f50 <_strtod_l+0x750>
 8005f98:	e6a9      	b.n	8005cee <_strtod_l+0x4ee>
 8005f9a:	bf00      	nop
 8005f9c:	08008fc8 	.word	0x08008fc8
 8005fa0:	fffffc02 	.word	0xfffffc02
 8005fa4:	2e00      	cmp	r6, #0
 8005fa6:	dd07      	ble.n	8005fb8 <_strtod_l+0x7b8>
 8005fa8:	9906      	ldr	r1, [sp, #24]
 8005faa:	9804      	ldr	r0, [sp, #16]
 8005fac:	4632      	mov	r2, r6
 8005fae:	f001 fb71 	bl	8007694 <__lshift>
 8005fb2:	9006      	str	r0, [sp, #24]
 8005fb4:	2800      	cmp	r0, #0
 8005fb6:	d0d5      	beq.n	8005f64 <_strtod_l+0x764>
 8005fb8:	2f00      	cmp	r7, #0
 8005fba:	dd08      	ble.n	8005fce <_strtod_l+0x7ce>
 8005fbc:	e9dd 0104 	ldrd	r0, r1, [sp, #16]
 8005fc0:	463a      	mov	r2, r7
 8005fc2:	f001 fb67 	bl	8007694 <__lshift>
 8005fc6:	9005      	str	r0, [sp, #20]
 8005fc8:	2800      	cmp	r0, #0
 8005fca:	f43f ae90 	beq.w	8005cee <_strtod_l+0x4ee>
 8005fce:	9a06      	ldr	r2, [sp, #24]
 8005fd0:	9918      	ldr	r1, [sp, #96]	@ 0x60
 8005fd2:	9804      	ldr	r0, [sp, #16]
 8005fd4:	f001 fbe8 	bl	80077a8 <__mdiff>
 8005fd8:	4604      	mov	r4, r0
 8005fda:	2800      	cmp	r0, #0
 8005fdc:	f43f ae87 	beq.w	8005cee <_strtod_l+0x4ee>
 8005fe0:	68c3      	ldr	r3, [r0, #12]
 8005fe2:	930f      	str	r3, [sp, #60]	@ 0x3c
 8005fe4:	2300      	movs	r3, #0
 8005fe6:	9905      	ldr	r1, [sp, #20]
 8005fe8:	60c3      	str	r3, [r0, #12]
 8005fea:	f001 fbc1 	bl	8007770 <__mcmp>
 8005fee:	2800      	cmp	r0, #0
 8005ff0:	da3c      	bge.n	800606c <_strtod_l+0x86c>
 8005ff2:	9b0f      	ldr	r3, [sp, #60]	@ 0x3c
 8005ff4:	ea53 0308 	orrs.w	r3, r3, r8
 8005ff8:	d15e      	bne.n	80060b8 <_strtod_l+0x8b8>
 8005ffa:	f3c9 0313 	ubfx	r3, r9, #0, #20
 8005ffe:	464d      	mov	r5, r9
 8006000:	2b00      	cmp	r3, #0
 8006002:	d159      	bne.n	80060b8 <_strtod_l+0x8b8>
 8006004:	f029 4300 	bic.w	r3, r9, #2147483648	@ 0x80000000
 8006008:	0d1b      	lsrs	r3, r3, #20
 800600a:	051b      	lsls	r3, r3, #20
 800600c:	f1b3 6fd6 	cmp.w	r3, #112197632	@ 0x6b00000
 8006010:	d952      	bls.n	80060b8 <_strtod_l+0x8b8>
 8006012:	6963      	ldr	r3, [r4, #20]
 8006014:	b913      	cbnz	r3, 800601c <_strtod_l+0x81c>
 8006016:	6923      	ldr	r3, [r4, #16]
 8006018:	2b01      	cmp	r3, #1
 800601a:	dd4d      	ble.n	80060b8 <_strtod_l+0x8b8>
 800601c:	4621      	mov	r1, r4
 800601e:	2201      	movs	r2, #1
 8006020:	9804      	ldr	r0, [sp, #16]
 8006022:	f001 fb37 	bl	8007694 <__lshift>
 8006026:	9905      	ldr	r1, [sp, #20]
 8006028:	4604      	mov	r4, r0
 800602a:	f001 fba1 	bl	8007770 <__mcmp>
 800602e:	2800      	cmp	r0, #0
 8006030:	dd42      	ble.n	80060b8 <_strtod_l+0x8b8>
 8006032:	4bad      	ldr	r3, [pc, #692]	@ (80062e8 <_strtod_l+0xae8>)
 8006034:	9a07      	ldr	r2, [sp, #28]
 8006036:	402b      	ands	r3, r5
 8006038:	2a00      	cmp	r2, #0
 800603a:	d05f      	beq.n	80060fc <_strtod_l+0x8fc>
 800603c:	f1b3 6fd6 	cmp.w	r3, #112197632	@ 0x6b00000
 8006040:	d85c      	bhi.n	80060fc <_strtod_l+0x8fc>
 8006042:	f1b3 7f5c 	cmp.w	r3, #57671680	@ 0x3700000
 8006046:	f67f ae8c 	bls.w	8005d62 <_strtod_l+0x562>
 800604a:	4ba8      	ldr	r3, [pc, #672]	@ (80062ec <_strtod_l+0xaec>)
 800604c:	4640      	mov	r0, r8
 800604e:	4649      	mov	r1, r9
 8006050:	2200      	movs	r2, #0
 8006052:	f7fa faf1 	bl	8000638 <__aeabi_dmul>
 8006056:	4ba4      	ldr	r3, [pc, #656]	@ (80062e8 <_strtod_l+0xae8>)
 8006058:	400b      	ands	r3, r1
 800605a:	4680      	mov	r8, r0
 800605c:	4689      	mov	r9, r1
 800605e:	2b00      	cmp	r3, #0
 8006060:	f47f ae50 	bne.w	8005d04 <_strtod_l+0x504>
 8006064:	9a04      	ldr	r2, [sp, #16]
 8006066:	2322      	movs	r3, #34	@ 0x22
 8006068:	6013      	str	r3, [r2, #0]
 800606a:	e64b      	b.n	8005d04 <_strtod_l+0x504>
 800606c:	464d      	mov	r5, r9
 800606e:	d162      	bne.n	8006136 <_strtod_l+0x936>
 8006070:	9a0f      	ldr	r2, [sp, #60]	@ 0x3c
 8006072:	f3c9 0313 	ubfx	r3, r9, #0, #20
 8006076:	b342      	cbz	r2, 80060ca <_strtod_l+0x8ca>
 8006078:	4a9d      	ldr	r2, [pc, #628]	@ (80062f0 <_strtod_l+0xaf0>)
 800607a:	4293      	cmp	r3, r2
 800607c:	d128      	bne.n	80060d0 <_strtod_l+0x8d0>
 800607e:	9b07      	ldr	r3, [sp, #28]
 8006080:	4641      	mov	r1, r8
 8006082:	b1eb      	cbz	r3, 80060c0 <_strtod_l+0x8c0>
 8006084:	4b98      	ldr	r3, [pc, #608]	@ (80062e8 <_strtod_l+0xae8>)
 8006086:	402b      	ands	r3, r5
 8006088:	f1b3 6fd4 	cmp.w	r3, #111149056	@ 0x6a00000
 800608c:	f04f 32ff 	mov.w	r2, #4294967295
 8006090:	d819      	bhi.n	80060c6 <_strtod_l+0x8c6>
 8006092:	0d1b      	lsrs	r3, r3, #20
 8006094:	f1c3 036b 	rsb	r3, r3, #107	@ 0x6b
 8006098:	fa02 f303 	lsl.w	r3, r2, r3
 800609c:	4299      	cmp	r1, r3
 800609e:	d117      	bne.n	80060d0 <_strtod_l+0x8d0>
 80060a0:	4b94      	ldr	r3, [pc, #592]	@ (80062f4 <_strtod_l+0xaf4>)
 80060a2:	429d      	cmp	r5, r3
 80060a4:	d102      	bne.n	80060ac <_strtod_l+0x8ac>
 80060a6:	3101      	adds	r1, #1
 80060a8:	f43f ae21 	beq.w	8005cee <_strtod_l+0x4ee>
 80060ac:	4b8e      	ldr	r3, [pc, #568]	@ (80062e8 <_strtod_l+0xae8>)
 80060ae:	402b      	ands	r3, r5
 80060b0:	f503 1980 	add.w	r9, r3, #1048576	@ 0x100000
 80060b4:	f04f 0800 	mov.w	r8, #0
 80060b8:	9b07      	ldr	r3, [sp, #28]
 80060ba:	2b00      	cmp	r3, #0
 80060bc:	d1c5      	bne.n	800604a <_strtod_l+0x84a>
 80060be:	e621      	b.n	8005d04 <_strtod_l+0x504>
 80060c0:	f04f 33ff 	mov.w	r3, #4294967295
 80060c4:	e7ea      	b.n	800609c <_strtod_l+0x89c>
 80060c6:	4613      	mov	r3, r2
 80060c8:	e7e8      	b.n	800609c <_strtod_l+0x89c>
 80060ca:	ea53 0308 	orrs.w	r3, r3, r8
 80060ce:	d0b0      	beq.n	8006032 <_strtod_l+0x832>
 80060d0:	f1bb 0f00 	cmp.w	fp, #0
 80060d4:	d01b      	beq.n	800610e <_strtod_l+0x90e>
 80060d6:	ea1b 0f05 	tst.w	fp, r5
 80060da:	d0ed      	beq.n	80060b8 <_strtod_l+0x8b8>
 80060dc:	9b0f      	ldr	r3, [sp, #60]	@ 0x3c
 80060de:	9a07      	ldr	r2, [sp, #28]
 80060e0:	4640      	mov	r0, r8
 80060e2:	4649      	mov	r1, r9
 80060e4:	b1b3      	cbz	r3, 8006114 <_strtod_l+0x914>
 80060e6:	f7ff fb6b 	bl	80057c0 <sulp>
 80060ea:	e9dd 010c 	ldrd	r0, r1, [sp, #48]	@ 0x30
 80060ee:	ec53 2b10 	vmov	r2, r3, d0
 80060f2:	f7fa f8eb 	bl	80002cc <__adddf3>
 80060f6:	4680      	mov	r8, r0
 80060f8:	4689      	mov	r9, r1
 80060fa:	e7dd      	b.n	80060b8 <_strtod_l+0x8b8>
 80060fc:	f5a3 1380 	sub.w	r3, r3, #1048576	@ 0x100000
 8006100:	ea6f 5913 	mvn.w	r9, r3, lsr #20
 8006104:	ea6f 5909 	mvn.w	r9, r9, lsl #20
 8006108:	f04f 38ff 	mov.w	r8, #4294967295
 800610c:	e7d4      	b.n	80060b8 <_strtod_l+0x8b8>
 800610e:	ea1a 0f08 	tst.w	sl, r8
 8006112:	e7e2      	b.n	80060da <_strtod_l+0x8da>
 8006114:	f7ff fb54 	bl	80057c0 <sulp>
 8006118:	e9dd 010c 	ldrd	r0, r1, [sp, #48]	@ 0x30
 800611c:	ec53 2b10 	vmov	r2, r3, d0
 8006120:	f7fa f8d2 	bl	80002c8 <__aeabi_dsub>
 8006124:	2200      	movs	r2, #0
 8006126:	2300      	movs	r3, #0
 8006128:	4680      	mov	r8, r0
 800612a:	4689      	mov	r9, r1
 800612c:	f7fa fcec 	bl	8000b08 <__aeabi_dcmpeq>
 8006130:	2800      	cmp	r0, #0
 8006132:	d0c1      	beq.n	80060b8 <_strtod_l+0x8b8>
 8006134:	e615      	b.n	8005d62 <_strtod_l+0x562>
 8006136:	9905      	ldr	r1, [sp, #20]
 8006138:	4620      	mov	r0, r4
 800613a:	f001 fc95 	bl	8007a68 <__ratio>
 800613e:	ec57 6b10 	vmov	r6, r7, d0
 8006142:	2200      	movs	r2, #0
 8006144:	f04f 4380 	mov.w	r3, #1073741824	@ 0x40000000
 8006148:	4630      	mov	r0, r6
 800614a:	4639      	mov	r1, r7
 800614c:	f7fa fcf0 	bl	8000b30 <__aeabi_dcmple>
 8006150:	2800      	cmp	r0, #0
 8006152:	d070      	beq.n	8006236 <_strtod_l+0xa36>
 8006154:	9b0f      	ldr	r3, [sp, #60]	@ 0x3c
 8006156:	2b00      	cmp	r3, #0
 8006158:	d17b      	bne.n	8006252 <_strtod_l+0xa52>
 800615a:	f1b8 0f00 	cmp.w	r8, #0
 800615e:	d156      	bne.n	800620e <_strtod_l+0xa0e>
 8006160:	f3c9 0313 	ubfx	r3, r9, #0, #20
 8006164:	2b00      	cmp	r3, #0
 8006166:	d158      	bne.n	800621a <_strtod_l+0xa1a>
 8006168:	4b63      	ldr	r3, [pc, #396]	@ (80062f8 <_strtod_l+0xaf8>)
 800616a:	2200      	movs	r2, #0
 800616c:	4630      	mov	r0, r6
 800616e:	4639      	mov	r1, r7
 8006170:	f7fa fcd4 	bl	8000b1c <__aeabi_dcmplt>
 8006174:	2800      	cmp	r0, #0
 8006176:	d159      	bne.n	800622c <_strtod_l+0xa2c>
 8006178:	4b60      	ldr	r3, [pc, #384]	@ (80062fc <_strtod_l+0xafc>)
 800617a:	2200      	movs	r2, #0
 800617c:	4630      	mov	r0, r6
 800617e:	4639      	mov	r1, r7
 8006180:	f7fa fa5a 	bl	8000638 <__aeabi_dmul>
 8006184:	4682      	mov	sl, r0
 8006186:	468b      	mov	fp, r1
 8006188:	f10b 4300 	add.w	r3, fp, #2147483648	@ 0x80000000
 800618c:	f8cd a020 	str.w	sl, [sp, #32]
 8006190:	9309      	str	r3, [sp, #36]	@ 0x24
 8006192:	4b55      	ldr	r3, [pc, #340]	@ (80062e8 <_strtod_l+0xae8>)
 8006194:	4a54      	ldr	r2, [pc, #336]	@ (80062e8 <_strtod_l+0xae8>)
 8006196:	402b      	ands	r3, r5
 8006198:	9313      	str	r3, [sp, #76]	@ 0x4c
 800619a:	4b59      	ldr	r3, [pc, #356]	@ (8006300 <_strtod_l+0xb00>)
 800619c:	402a      	ands	r2, r5
 800619e:	429a      	cmp	r2, r3
 80061a0:	e9dd 6708 	ldrd	r6, r7, [sp, #32]
 80061a4:	f040 80b0 	bne.w	8006308 <_strtod_l+0xb08>
 80061a8:	f1a5 7954 	sub.w	r9, r5, #55574528	@ 0x3500000
 80061ac:	ec49 8b10 	vmov	d0, r8, r9
 80061b0:	f001 fb92 	bl	80078d8 <__ulp>
 80061b4:	e9dd 2308 	ldrd	r2, r3, [sp, #32]
 80061b8:	ec51 0b10 	vmov	r0, r1, d0
 80061bc:	f7fa fa3c 	bl	8000638 <__aeabi_dmul>
 80061c0:	4642      	mov	r2, r8
 80061c2:	464b      	mov	r3, r9
 80061c4:	f7fa f882 	bl	80002cc <__adddf3>
 80061c8:	4d47      	ldr	r5, [pc, #284]	@ (80062e8 <_strtod_l+0xae8>)
 80061ca:	4a4e      	ldr	r2, [pc, #312]	@ (8006304 <_strtod_l+0xb04>)
 80061cc:	400d      	ands	r5, r1
 80061ce:	4295      	cmp	r5, r2
 80061d0:	4680      	mov	r8, r0
 80061d2:	d945      	bls.n	8006260 <_strtod_l+0xa60>
 80061d4:	9a0d      	ldr	r2, [sp, #52]	@ 0x34
 80061d6:	4b47      	ldr	r3, [pc, #284]	@ (80062f4 <_strtod_l+0xaf4>)
 80061d8:	429a      	cmp	r2, r3
 80061da:	d103      	bne.n	80061e4 <_strtod_l+0x9e4>
 80061dc:	9b0c      	ldr	r3, [sp, #48]	@ 0x30
 80061de:	3301      	adds	r3, #1
 80061e0:	f43f ad85 	beq.w	8005cee <_strtod_l+0x4ee>
 80061e4:	f8df 910c 	ldr.w	r9, [pc, #268]	@ 80062f4 <_strtod_l+0xaf4>
 80061e8:	f04f 38ff 	mov.w	r8, #4294967295
 80061ec:	9918      	ldr	r1, [sp, #96]	@ 0x60
 80061ee:	9804      	ldr	r0, [sp, #16]
 80061f0:	f001 f836 	bl	8007260 <_Bfree>
 80061f4:	9906      	ldr	r1, [sp, #24]
 80061f6:	9804      	ldr	r0, [sp, #16]
 80061f8:	f001 f832 	bl	8007260 <_Bfree>
 80061fc:	e9dd 0104 	ldrd	r0, r1, [sp, #16]
 8006200:	f001 f82e 	bl	8007260 <_Bfree>
 8006204:	9804      	ldr	r0, [sp, #16]
 8006206:	4621      	mov	r1, r4
 8006208:	f001 f82a 	bl	8007260 <_Bfree>
 800620c:	e625      	b.n	8005e5a <_strtod_l+0x65a>
 800620e:	f1b8 0f01 	cmp.w	r8, #1
 8006212:	d102      	bne.n	800621a <_strtod_l+0xa1a>
 8006214:	2d00      	cmp	r5, #0
 8006216:	f43f ada4 	beq.w	8005d62 <_strtod_l+0x562>
 800621a:	ed9f 7b2b 	vldr	d7, [pc, #172]	@ 80062c8 <_strtod_l+0xac8>
 800621e:	f8df b0d8 	ldr.w	fp, [pc, #216]	@ 80062f8 <_strtod_l+0xaf8>
 8006222:	ed8d 7b08 	vstr	d7, [sp, #32]
 8006226:	f04f 0a00 	mov.w	sl, #0
 800622a:	e7b2      	b.n	8006192 <_strtod_l+0x992>
 800622c:	f8df b0cc 	ldr.w	fp, [pc, #204]	@ 80062fc <_strtod_l+0xafc>
 8006230:	f04f 0a00 	mov.w	sl, #0
 8006234:	e7a8      	b.n	8006188 <_strtod_l+0x988>
 8006236:	4b31      	ldr	r3, [pc, #196]	@ (80062fc <_strtod_l+0xafc>)
 8006238:	2200      	movs	r2, #0
 800623a:	4630      	mov	r0, r6
 800623c:	4639      	mov	r1, r7
 800623e:	f7fa f9fb 	bl	8000638 <__aeabi_dmul>
 8006242:	9b0f      	ldr	r3, [sp, #60]	@ 0x3c
 8006244:	4682      	mov	sl, r0
 8006246:	468b      	mov	fp, r1
 8006248:	2b00      	cmp	r3, #0
 800624a:	d09d      	beq.n	8006188 <_strtod_l+0x988>
 800624c:	e9cd ab08 	strd	sl, fp, [sp, #32]
 8006250:	e79f      	b.n	8006192 <_strtod_l+0x992>
 8006252:	ed9f 7b1f 	vldr	d7, [pc, #124]	@ 80062d0 <_strtod_l+0xad0>
 8006256:	ed8d 7b08 	vstr	d7, [sp, #32]
 800625a:	ec5b ab17 	vmov	sl, fp, d7
 800625e:	e798      	b.n	8006192 <_strtod_l+0x992>
 8006260:	f101 7954 	add.w	r9, r1, #55574528	@ 0x3500000
 8006264:	9b07      	ldr	r3, [sp, #28]
 8006266:	2b00      	cmp	r3, #0
 8006268:	d1c0      	bne.n	80061ec <_strtod_l+0x9ec>
 800626a:	f029 4300 	bic.w	r3, r9, #2147483648	@ 0x80000000
 800626e:	9a13      	ldr	r2, [sp, #76]	@ 0x4c
 8006270:	0d1b      	lsrs	r3, r3, #20
 8006272:	051b      	lsls	r3, r3, #20
 8006274:	429a      	cmp	r2, r3
 8006276:	d1b9      	bne.n	80061ec <_strtod_l+0x9ec>
 8006278:	4650      	mov	r0, sl
 800627a:	4659      	mov	r1, fp
 800627c:	f7fa fcfc 	bl	8000c78 <__aeabi_d2lz>
 8006280:	f7fa f9ac 	bl	80005dc <__aeabi_l2d>
 8006284:	4602      	mov	r2, r0
 8006286:	460b      	mov	r3, r1
 8006288:	4650      	mov	r0, sl
 800628a:	4659      	mov	r1, fp
 800628c:	f7fa f81c 	bl	80002c8 <__aeabi_dsub>
 8006290:	9a0f      	ldr	r2, [sp, #60]	@ 0x3c
 8006292:	f3c9 0313 	ubfx	r3, r9, #0, #20
 8006296:	ea43 0308 	orr.w	r3, r3, r8
 800629a:	4313      	orrs	r3, r2
 800629c:	4606      	mov	r6, r0
 800629e:	460f      	mov	r7, r1
 80062a0:	d06b      	beq.n	800637a <_strtod_l+0xb7a>
 80062a2:	a30d      	add	r3, pc, #52	@ (adr r3, 80062d8 <_strtod_l+0xad8>)
 80062a4:	e9d3 2300 	ldrd	r2, r3, [r3]
 80062a8:	f7fa fc38 	bl	8000b1c <__aeabi_dcmplt>
 80062ac:	2800      	cmp	r0, #0
 80062ae:	f47f ad29 	bne.w	8005d04 <_strtod_l+0x504>
 80062b2:	a30b      	add	r3, pc, #44	@ (adr r3, 80062e0 <_strtod_l+0xae0>)
 80062b4:	e9d3 2300 	ldrd	r2, r3, [r3]
 80062b8:	4630      	mov	r0, r6
 80062ba:	4639      	mov	r1, r7
 80062bc:	f7fa fc4c 	bl	8000b58 <__aeabi_dcmpgt>
 80062c0:	2800      	cmp	r0, #0
 80062c2:	d093      	beq.n	80061ec <_strtod_l+0x9ec>
 80062c4:	e51e      	b.n	8005d04 <_strtod_l+0x504>
 80062c6:	bf00      	nop
 80062c8:	00000000 	.word	0x00000000
 80062cc:	bff00000 	.word	0xbff00000
 80062d0:	00000000 	.word	0x00000000
 80062d4:	3ff00000 	.word	0x3ff00000
 80062d8:	94a03595 	.word	0x94a03595
 80062dc:	3fdfffff 	.word	0x3fdfffff
 80062e0:	35afe535 	.word	0x35afe535
 80062e4:	3fe00000 	.word	0x3fe00000
 80062e8:	7ff00000 	.word	0x7ff00000
 80062ec:	39500000 	.word	0x39500000
 80062f0:	000fffff 	.word	0x000fffff
 80062f4:	7fefffff 	.word	0x7fefffff
 80062f8:	3ff00000 	.word	0x3ff00000
 80062fc:	3fe00000 	.word	0x3fe00000
 8006300:	7fe00000 	.word	0x7fe00000
 8006304:	7c9fffff 	.word	0x7c9fffff
 8006308:	9b07      	ldr	r3, [sp, #28]
 800630a:	b313      	cbz	r3, 8006352 <_strtod_l+0xb52>
 800630c:	9b13      	ldr	r3, [sp, #76]	@ 0x4c
 800630e:	f1b3 6fd4 	cmp.w	r3, #111149056	@ 0x6a00000
 8006312:	d81e      	bhi.n	8006352 <_strtod_l+0xb52>
 8006314:	a324      	add	r3, pc, #144	@ (adr r3, 80063a8 <_strtod_l+0xba8>)
 8006316:	e9d3 2300 	ldrd	r2, r3, [r3]
 800631a:	4650      	mov	r0, sl
 800631c:	4659      	mov	r1, fp
 800631e:	f7fa fc07 	bl	8000b30 <__aeabi_dcmple>
 8006322:	b190      	cbz	r0, 800634a <_strtod_l+0xb4a>
 8006324:	4659      	mov	r1, fp
 8006326:	4650      	mov	r0, sl
 8006328:	f7fa fc36 	bl	8000b98 <__aeabi_d2uiz>
 800632c:	2801      	cmp	r0, #1
 800632e:	bf38      	it	cc
 8006330:	2001      	movcc	r0, #1
 8006332:	f7fa f907 	bl	8000544 <__aeabi_ui2d>
 8006336:	9b0f      	ldr	r3, [sp, #60]	@ 0x3c
 8006338:	4682      	mov	sl, r0
 800633a:	468b      	mov	fp, r1
 800633c:	b9d3      	cbnz	r3, 8006374 <_strtod_l+0xb74>
 800633e:	f101 4300 	add.w	r3, r1, #2147483648	@ 0x80000000
 8006342:	9010      	str	r0, [sp, #64]	@ 0x40
 8006344:	9311      	str	r3, [sp, #68]	@ 0x44
 8006346:	e9dd 6710 	ldrd	r6, r7, [sp, #64]	@ 0x40
 800634a:	9a13      	ldr	r2, [sp, #76]	@ 0x4c
 800634c:	f107 63d6 	add.w	r3, r7, #112197632	@ 0x6b00000
 8006350:	1a9f      	subs	r7, r3, r2
 8006352:	ed9d 0b0c 	vldr	d0, [sp, #48]	@ 0x30
 8006356:	f001 fabf 	bl	80078d8 <__ulp>
 800635a:	4630      	mov	r0, r6
 800635c:	ec53 2b10 	vmov	r2, r3, d0
 8006360:	4639      	mov	r1, r7
 8006362:	f7fa f969 	bl	8000638 <__aeabi_dmul>
 8006366:	e9dd 230c 	ldrd	r2, r3, [sp, #48]	@ 0x30
 800636a:	f7f9 ffaf 	bl	80002cc <__adddf3>
 800636e:	4680      	mov	r8, r0
 8006370:	4689      	mov	r9, r1
 8006372:	e777      	b.n	8006264 <_strtod_l+0xa64>
 8006374:	e9cd ab10 	strd	sl, fp, [sp, #64]	@ 0x40
 8006378:	e7e5      	b.n	8006346 <_strtod_l+0xb46>
 800637a:	a30d      	add	r3, pc, #52	@ (adr r3, 80063b0 <_strtod_l+0xbb0>)
 800637c:	e9d3 2300 	ldrd	r2, r3, [r3]
 8006380:	f7fa fbcc 	bl	8000b1c <__aeabi_dcmplt>
 8006384:	e79c      	b.n	80062c0 <_strtod_l+0xac0>
 8006386:	2300      	movs	r3, #0
 8006388:	930b      	str	r3, [sp, #44]	@ 0x2c
 800638a:	9a15      	ldr	r2, [sp, #84]	@ 0x54
 800638c:	9b17      	ldr	r3, [sp, #92]	@ 0x5c
 800638e:	6013      	str	r3, [r2, #0]
 8006390:	f7ff ba8c 	b.w	80058ac <_strtod_l+0xac>
 8006394:	2a65      	cmp	r2, #101	@ 0x65
 8006396:	f43f ab6a 	beq.w	8005a6e <_strtod_l+0x26e>
 800639a:	2a45      	cmp	r2, #69	@ 0x45
 800639c:	f43f ab67 	beq.w	8005a6e <_strtod_l+0x26e>
 80063a0:	2301      	movs	r3, #1
 80063a2:	9307      	str	r3, [sp, #28]
 80063a4:	f7ff bba1 	b.w	8005aea <_strtod_l+0x2ea>
 80063a8:	ffc00000 	.word	0xffc00000
 80063ac:	41dfffff 	.word	0x41dfffff
 80063b0:	94a03595 	.word	0x94a03595
 80063b4:	3fcfffff 	.word	0x3fcfffff

080063b8 <strtof>:
 80063b8:	e92d 41f0 	stmdb	sp!, {r4, r5, r6, r7, r8, lr}
 80063bc:	f8df 80bc 	ldr.w	r8, [pc, #188]	@ 800647c <strtof+0xc4>
 80063c0:	4b29      	ldr	r3, [pc, #164]	@ (8006468 <strtof+0xb0>)
 80063c2:	460a      	mov	r2, r1
 80063c4:	ed2d 8b02 	vpush	{d8}
 80063c8:	4601      	mov	r1, r0
 80063ca:	f8d8 0000 	ldr.w	r0, [r8]
 80063ce:	f7ff fa17 	bl	8005800 <_strtod_l>
 80063d2:	ec55 4b10 	vmov	r4, r5, d0
 80063d6:	4622      	mov	r2, r4
 80063d8:	462b      	mov	r3, r5
 80063da:	4620      	mov	r0, r4
 80063dc:	4629      	mov	r1, r5
 80063de:	f7fa fbc5 	bl	8000b6c <__aeabi_dcmpun>
 80063e2:	b190      	cbz	r0, 800640a <strtof+0x52>
 80063e4:	2d00      	cmp	r5, #0
 80063e6:	4821      	ldr	r0, [pc, #132]	@ (800646c <strtof+0xb4>)
 80063e8:	da09      	bge.n	80063fe <strtof+0x46>
 80063ea:	f7fe f903 	bl	80045f4 <nanf>
 80063ee:	eeb1 8a40 	vneg.f32	s16, s0
 80063f2:	eeb0 0a48 	vmov.f32	s0, s16
 80063f6:	ecbd 8b02 	vpop	{d8}
 80063fa:	e8bd 81f0 	ldmia.w	sp!, {r4, r5, r6, r7, r8, pc}
 80063fe:	ecbd 8b02 	vpop	{d8}
 8006402:	e8bd 41f0 	ldmia.w	sp!, {r4, r5, r6, r7, r8, lr}
 8006406:	f7fe b8f5 	b.w	80045f4 <nanf>
 800640a:	4620      	mov	r0, r4
 800640c:	4629      	mov	r1, r5
 800640e:	f7fa fbe3 	bl	8000bd8 <__aeabi_d2f>
 8006412:	ee08 0a10 	vmov	s16, r0
 8006416:	eddf 7a16 	vldr	s15, [pc, #88]	@ 8006470 <strtof+0xb8>
 800641a:	eeb0 7ac8 	vabs.f32	s14, s16
 800641e:	eeb4 7a67 	vcmp.f32	s14, s15
 8006422:	eef1 fa10 	vmrs	APSR_nzcv, fpscr
 8006426:	dd11      	ble.n	800644c <strtof+0x94>
 8006428:	f025 4700 	bic.w	r7, r5, #2147483648	@ 0x80000000
 800642c:	4b11      	ldr	r3, [pc, #68]	@ (8006474 <strtof+0xbc>)
 800642e:	f04f 32ff 	mov.w	r2, #4294967295
 8006432:	4620      	mov	r0, r4
 8006434:	4639      	mov	r1, r7
 8006436:	f7fa fb99 	bl	8000b6c <__aeabi_dcmpun>
 800643a:	b980      	cbnz	r0, 800645e <strtof+0xa6>
 800643c:	4b0d      	ldr	r3, [pc, #52]	@ (8006474 <strtof+0xbc>)
 800643e:	f04f 32ff 	mov.w	r2, #4294967295
 8006442:	4620      	mov	r0, r4
 8006444:	4639      	mov	r1, r7
 8006446:	f7fa fb73 	bl	8000b30 <__aeabi_dcmple>
 800644a:	b940      	cbnz	r0, 800645e <strtof+0xa6>
 800644c:	ee18 3a10 	vmov	r3, s16
 8006450:	f013 4fff 	tst.w	r3, #2139095040	@ 0x7f800000
 8006454:	d1cd      	bne.n	80063f2 <strtof+0x3a>
 8006456:	4b08      	ldr	r3, [pc, #32]	@ (8006478 <strtof+0xc0>)
 8006458:	402b      	ands	r3, r5
 800645a:	2b00      	cmp	r3, #0
 800645c:	d0c9      	beq.n	80063f2 <strtof+0x3a>
 800645e:	f8d8 3000 	ldr.w	r3, [r8]
 8006462:	2222      	movs	r2, #34	@ 0x22
 8006464:	601a      	str	r2, [r3, #0]
 8006466:	e7c4      	b.n	80063f2 <strtof+0x3a>
 8006468:	2000003c 	.word	0x2000003c
 800646c:	08008f9d 	.word	0x08008f9d
 8006470:	7f7fffff 	.word	0x7f7fffff
 8006474:	7fefffff 	.word	0x7fefffff
 8006478:	7ff00000 	.word	0x7ff00000
 800647c:	200001a8 	.word	0x200001a8

08006480 <_strtol_l.isra.0>:
 8006480:	2b24      	cmp	r3, #36	@ 0x24
 8006482:	e92d 47f0 	stmdb	sp!, {r4, r5, r6, r7, r8, r9, sl, lr}
 8006486:	4686      	mov	lr, r0
 8006488:	4690      	mov	r8, r2
 800648a:	d801      	bhi.n	8006490 <_strtol_l.isra.0+0x10>
 800648c:	2b01      	cmp	r3, #1
 800648e:	d106      	bne.n	800649e <_strtol_l.isra.0+0x1e>
 8006490:	f000 fa1e 	bl	80068d0 <__errno>
 8006494:	2316      	movs	r3, #22
 8006496:	6003      	str	r3, [r0, #0]
 8006498:	2000      	movs	r0, #0
 800649a:	e8bd 87f0 	ldmia.w	sp!, {r4, r5, r6, r7, r8, r9, sl, pc}
 800649e:	4834      	ldr	r0, [pc, #208]	@ (8006570 <_strtol_l.isra.0+0xf0>)
 80064a0:	460d      	mov	r5, r1
 80064a2:	462a      	mov	r2, r5
 80064a4:	f815 4b01 	ldrb.w	r4, [r5], #1
 80064a8:	5d06      	ldrb	r6, [r0, r4]
 80064aa:	f016 0608 	ands.w	r6, r6, #8
 80064ae:	d1f8      	bne.n	80064a2 <_strtol_l.isra.0+0x22>
 80064b0:	2c2d      	cmp	r4, #45	@ 0x2d
 80064b2:	d110      	bne.n	80064d6 <_strtol_l.isra.0+0x56>
 80064b4:	782c      	ldrb	r4, [r5, #0]
 80064b6:	2601      	movs	r6, #1
 80064b8:	1c95      	adds	r5, r2, #2
 80064ba:	f033 0210 	bics.w	r2, r3, #16
 80064be:	d115      	bne.n	80064ec <_strtol_l.isra.0+0x6c>
 80064c0:	2c30      	cmp	r4, #48	@ 0x30
 80064c2:	d10d      	bne.n	80064e0 <_strtol_l.isra.0+0x60>
 80064c4:	782a      	ldrb	r2, [r5, #0]
 80064c6:	f002 02df 	and.w	r2, r2, #223	@ 0xdf
 80064ca:	2a58      	cmp	r2, #88	@ 0x58
 80064cc:	d108      	bne.n	80064e0 <_strtol_l.isra.0+0x60>
 80064ce:	786c      	ldrb	r4, [r5, #1]
 80064d0:	3502      	adds	r5, #2
 80064d2:	2310      	movs	r3, #16
 80064d4:	e00a      	b.n	80064ec <_strtol_l.isra.0+0x6c>
 80064d6:	2c2b      	cmp	r4, #43	@ 0x2b
 80064d8:	bf04      	itt	eq
 80064da:	782c      	ldrbeq	r4, [r5, #0]
 80064dc:	1c95      	addeq	r5, r2, #2
 80064de:	e7ec      	b.n	80064ba <_strtol_l.isra.0+0x3a>
 80064e0:	2b00      	cmp	r3, #0
 80064e2:	d1f6      	bne.n	80064d2 <_strtol_l.isra.0+0x52>
 80064e4:	2c30      	cmp	r4, #48	@ 0x30
 80064e6:	bf14      	ite	ne
 80064e8:	230a      	movne	r3, #10
 80064ea:	2308      	moveq	r3, #8
 80064ec:	f106 4c00 	add.w	ip, r6, #2147483648	@ 0x80000000
 80064f0:	f10c 3cff 	add.w	ip, ip, #4294967295
 80064f4:	2200      	movs	r2, #0
 80064f6:	fbbc f9f3 	udiv	r9, ip, r3
 80064fa:	4610      	mov	r0, r2
 80064fc:	fb03 ca19 	mls	sl, r3, r9, ip
 8006500:	f1a4 0730 	sub.w	r7, r4, #48	@ 0x30
 8006504:	2f09      	cmp	r7, #9
 8006506:	d80f      	bhi.n	8006528 <_strtol_l.isra.0+0xa8>
 8006508:	463c      	mov	r4, r7
 800650a:	42a3      	cmp	r3, r4
 800650c:	dd1b      	ble.n	8006546 <_strtol_l.isra.0+0xc6>
 800650e:	1c57      	adds	r7, r2, #1
 8006510:	d007      	beq.n	8006522 <_strtol_l.isra.0+0xa2>
 8006512:	4581      	cmp	r9, r0
 8006514:	d314      	bcc.n	8006540 <_strtol_l.isra.0+0xc0>
 8006516:	d101      	bne.n	800651c <_strtol_l.isra.0+0x9c>
 8006518:	45a2      	cmp	sl, r4
 800651a:	db11      	blt.n	8006540 <_strtol_l.isra.0+0xc0>
 800651c:	fb00 4003 	mla	r0, r0, r3, r4
 8006520:	2201      	movs	r2, #1
 8006522:	f815 4b01 	ldrb.w	r4, [r5], #1
 8006526:	e7eb      	b.n	8006500 <_strtol_l.isra.0+0x80>
 8006528:	f1a4 0741 	sub.w	r7, r4, #65	@ 0x41
 800652c:	2f19      	cmp	r7, #25
 800652e:	d801      	bhi.n	8006534 <_strtol_l.isra.0+0xb4>
 8006530:	3c37      	subs	r4, #55	@ 0x37
 8006532:	e7ea      	b.n	800650a <_strtol_l.isra.0+0x8a>
 8006534:	f1a4 0761 	sub.w	r7, r4, #97	@ 0x61
 8006538:	2f19      	cmp	r7, #25
 800653a:	d804      	bhi.n	8006546 <_strtol_l.isra.0+0xc6>
 800653c:	3c57      	subs	r4, #87	@ 0x57
 800653e:	e7e4      	b.n	800650a <_strtol_l.isra.0+0x8a>
 8006540:	f04f 32ff 	mov.w	r2, #4294967295
 8006544:	e7ed      	b.n	8006522 <_strtol_l.isra.0+0xa2>
 8006546:	1c53      	adds	r3, r2, #1
 8006548:	d108      	bne.n	800655c <_strtol_l.isra.0+0xdc>
 800654a:	2322      	movs	r3, #34	@ 0x22
 800654c:	f8ce 3000 	str.w	r3, [lr]
 8006550:	4660      	mov	r0, ip
 8006552:	f1b8 0f00 	cmp.w	r8, #0
 8006556:	d0a0      	beq.n	800649a <_strtol_l.isra.0+0x1a>
 8006558:	1e69      	subs	r1, r5, #1
 800655a:	e006      	b.n	800656a <_strtol_l.isra.0+0xea>
 800655c:	b106      	cbz	r6, 8006560 <_strtol_l.isra.0+0xe0>
 800655e:	4240      	negs	r0, r0
 8006560:	f1b8 0f00 	cmp.w	r8, #0
 8006564:	d099      	beq.n	800649a <_strtol_l.isra.0+0x1a>
 8006566:	2a00      	cmp	r2, #0
 8006568:	d1f6      	bne.n	8006558 <_strtol_l.isra.0+0xd8>
 800656a:	f8c8 1000 	str.w	r1, [r8]
 800656e:	e794      	b.n	800649a <_strtol_l.isra.0+0x1a>
 8006570:	08008ff1 	.word	0x08008ff1

08006574 <strtol>:
 8006574:	4613      	mov	r3, r2
 8006576:	460a      	mov	r2, r1
 8006578:	4601      	mov	r1, r0
 800657a:	4802      	ldr	r0, [pc, #8]	@ (8006584 <strtol+0x10>)
 800657c:	6800      	ldr	r0, [r0, #0]
 800657e:	f7ff bf7f 	b.w	8006480 <_strtol_l.isra.0>
 8006582:	bf00      	nop
 8006584:	200001a8 	.word	0x200001a8

08006588 <std>:
 8006588:	2300      	movs	r3, #0
 800658a:	b510      	push	{r4, lr}
 800658c:	4604      	mov	r4, r0
 800658e:	e9c0 3300 	strd	r3, r3, [r0]
 8006592:	e9c0 3304 	strd	r3, r3, [r0, #16]
 8006596:	6083      	str	r3, [r0, #8]
 8006598:	8181      	strh	r1, [r0, #12]
 800659a:	6643      	str	r3, [r0, #100]	@ 0x64
 800659c:	81c2      	strh	r2, [r0, #14]
 800659e:	6183      	str	r3, [r0, #24]
 80065a0:	4619      	mov	r1, r3
 80065a2:	2208      	movs	r2, #8
 80065a4:	305c      	adds	r0, #92	@ 0x5c
 80065a6:	f000 f932 	bl	800680e <memset>
 80065aa:	4b0d      	ldr	r3, [pc, #52]	@ (80065e0 <std+0x58>)
 80065ac:	6263      	str	r3, [r4, #36]	@ 0x24
 80065ae:	4b0d      	ldr	r3, [pc, #52]	@ (80065e4 <std+0x5c>)
 80065b0:	62a3      	str	r3, [r4, #40]	@ 0x28
 80065b2:	4b0d      	ldr	r3, [pc, #52]	@ (80065e8 <std+0x60>)
 80065b4:	62e3      	str	r3, [r4, #44]	@ 0x2c
 80065b6:	4b0d      	ldr	r3, [pc, #52]	@ (80065ec <std+0x64>)
 80065b8:	6323      	str	r3, [r4, #48]	@ 0x30
 80065ba:	4b0d      	ldr	r3, [pc, #52]	@ (80065f0 <std+0x68>)
 80065bc:	6224      	str	r4, [r4, #32]
 80065be:	429c      	cmp	r4, r3
 80065c0:	d006      	beq.n	80065d0 <std+0x48>
 80065c2:	f103 0268 	add.w	r2, r3, #104	@ 0x68
 80065c6:	4294      	cmp	r4, r2
 80065c8:	d002      	beq.n	80065d0 <std+0x48>
 80065ca:	33d0      	adds	r3, #208	@ 0xd0
 80065cc:	429c      	cmp	r4, r3
 80065ce:	d105      	bne.n	80065dc <std+0x54>
 80065d0:	f104 0058 	add.w	r0, r4, #88	@ 0x58
 80065d4:	e8bd 4010 	ldmia.w	sp!, {r4, lr}
 80065d8:	f000 b9a4 	b.w	8006924 <__retarget_lock_init_recursive>
 80065dc:	bd10      	pop	{r4, pc}
 80065de:	bf00      	nop
 80065e0:	08006755 	.word	0x08006755
 80065e4:	08006777 	.word	0x08006777
 80065e8:	080067af 	.word	0x080067af
 80065ec:	080067d5 	.word	0x080067d5
 80065f0:	20000564 	.word	0x20000564

080065f4 <stdio_exit_handler>:
 80065f4:	4a02      	ldr	r2, [pc, #8]	@ (8006600 <stdio_exit_handler+0xc>)
 80065f6:	4903      	ldr	r1, [pc, #12]	@ (8006604 <stdio_exit_handler+0x10>)
 80065f8:	4803      	ldr	r0, [pc, #12]	@ (8006608 <stdio_exit_handler+0x14>)
 80065fa:	f000 b86b 	b.w	80066d4 <_fwalk_sglue>
 80065fe:	bf00      	nop
 8006600:	20000030 	.word	0x20000030
 8006604:	0800824d 	.word	0x0800824d
 8006608:	200001ac 	.word	0x200001ac

0800660c <cleanup_stdio>:
 800660c:	6841      	ldr	r1, [r0, #4]
 800660e:	4b0c      	ldr	r3, [pc, #48]	@ (8006640 <cleanup_stdio+0x34>)
 8006610:	4299      	cmp	r1, r3
 8006612:	b510      	push	{r4, lr}
 8006614:	4604      	mov	r4, r0
 8006616:	d001      	beq.n	800661c <cleanup_stdio+0x10>
 8006618:	f001 fe18 	bl	800824c <_fflush_r>
 800661c:	68a1      	ldr	r1, [r4, #8]
 800661e:	4b09      	ldr	r3, [pc, #36]	@ (8006644 <cleanup_stdio+0x38>)
 8006620:	4299      	cmp	r1, r3
 8006622:	d002      	beq.n	800662a <cleanup_stdio+0x1e>
 8006624:	4620      	mov	r0, r4
 8006626:	f001 fe11 	bl	800824c <_fflush_r>
 800662a:	68e1      	ldr	r1, [r4, #12]
 800662c:	4b06      	ldr	r3, [pc, #24]	@ (8006648 <cleanup_stdio+0x3c>)
 800662e:	4299      	cmp	r1, r3
 8006630:	d004      	beq.n	800663c <cleanup_stdio+0x30>
 8006632:	4620      	mov	r0, r4
 8006634:	e8bd 4010 	ldmia.w	sp!, {r4, lr}
 8006638:	f001 be08 	b.w	800824c <_fflush_r>
 800663c:	bd10      	pop	{r4, pc}
 800663e:	bf00      	nop
 8006640:	20000564 	.word	0x20000564
 8006644:	200005cc 	.word	0x200005cc
 8006648:	20000634 	.word	0x20000634

0800664c <global_stdio_init.part.0>:
 800664c:	4b0c      	ldr	r3, [pc, #48]	@ (8006680 <global_stdio_init.part.0+0x34>)
 800664e:	4a0d      	ldr	r2, [pc, #52]	@ (8006684 <global_stdio_init.part.0+0x38>)
 8006650:	480d      	ldr	r0, [pc, #52]	@ (8006688 <global_stdio_init.part.0+0x3c>)
 8006652:	b510      	push	{r4, lr}
 8006654:	2104      	movs	r1, #4
 8006656:	601a      	str	r2, [r3, #0]
 8006658:	2200      	movs	r2, #0
 800665a:	f7ff ff95 	bl	8006588 <std>
 800665e:	4b0a      	ldr	r3, [pc, #40]	@ (8006688 <global_stdio_init.part.0+0x3c>)
 8006660:	2201      	movs	r2, #1
 8006662:	461c      	mov	r4, r3
 8006664:	2109      	movs	r1, #9
 8006666:	f103 0068 	add.w	r0, r3, #104	@ 0x68
 800666a:	f7ff ff8d 	bl	8006588 <std>
 800666e:	f104 00d0 	add.w	r0, r4, #208	@ 0xd0
 8006672:	2202      	movs	r2, #2
 8006674:	e8bd 4010 	ldmia.w	sp!, {r4, lr}
 8006678:	2112      	movs	r1, #18
 800667a:	f7ff bf85 	b.w	8006588 <std>
 800667e:	bf00      	nop
 8006680:	2000069c 	.word	0x2000069c
 8006684:	080065f5 	.word	0x080065f5
 8006688:	20000564 	.word	0x20000564

0800668c <__sfp_lock_acquire>:
 800668c:	4801      	ldr	r0, [pc, #4]	@ (8006694 <__sfp_lock_acquire+0x8>)
 800668e:	f000 b94a 	b.w	8006926 <__retarget_lock_acquire_recursive>
 8006692:	bf00      	nop
 8006694:	200006a5 	.word	0x200006a5

08006698 <__sfp_lock_release>:
 8006698:	4801      	ldr	r0, [pc, #4]	@ (80066a0 <__sfp_lock_release+0x8>)
 800669a:	f000 b945 	b.w	8006928 <__retarget_lock_release_recursive>
 800669e:	bf00      	nop
 80066a0:	200006a5 	.word	0x200006a5

080066a4 <__sinit>:
 80066a4:	b510      	push	{r4, lr}
 80066a6:	4604      	mov	r4, r0
 80066a8:	f7ff fff0 	bl	800668c <__sfp_lock_acquire>
 80066ac:	6a23      	ldr	r3, [r4, #32]
 80066ae:	b11b      	cbz	r3, 80066b8 <__sinit+0x14>
 80066b0:	e8bd 4010 	ldmia.w	sp!, {r4, lr}
 80066b4:	f7ff bff0 	b.w	8006698 <__sfp_lock_release>
 80066b8:	4b04      	ldr	r3, [pc, #16]	@ (80066cc <__sinit+0x28>)
 80066ba:	6223      	str	r3, [r4, #32]
 80066bc:	4b04      	ldr	r3, [pc, #16]	@ (80066d0 <__sinit+0x2c>)
 80066be:	681b      	ldr	r3, [r3, #0]
 80066c0:	2b00      	cmp	r3, #0
 80066c2:	d1f5      	bne.n	80066b0 <__sinit+0xc>
 80066c4:	f7ff ffc2 	bl	800664c <global_stdio_init.part.0>
 80066c8:	e7f2      	b.n	80066b0 <__sinit+0xc>
 80066ca:	bf00      	nop
 80066cc:	0800660d 	.word	0x0800660d
 80066d0:	2000069c 	.word	0x2000069c

080066d4 <_fwalk_sglue>:
 80066d4:	e92d 43f8 	stmdb	sp!, {r3, r4, r5, r6, r7, r8, r9, lr}
 80066d8:	4607      	mov	r7, r0
 80066da:	4688      	mov	r8, r1
 80066dc:	4614      	mov	r4, r2
 80066de:	2600      	movs	r6, #0
 80066e0:	e9d4 9501 	ldrd	r9, r5, [r4, #4]
 80066e4:	f1b9 0901 	subs.w	r9, r9, #1
 80066e8:	d505      	bpl.n	80066f6 <_fwalk_sglue+0x22>
 80066ea:	6824      	ldr	r4, [r4, #0]
 80066ec:	2c00      	cmp	r4, #0
 80066ee:	d1f7      	bne.n	80066e0 <_fwalk_sglue+0xc>
 80066f0:	4630      	mov	r0, r6
 80066f2:	e8bd 83f8 	ldmia.w	sp!, {r3, r4, r5, r6, r7, r8, r9, pc}
 80066f6:	89ab      	ldrh	r3, [r5, #12]
 80066f8:	2b01      	cmp	r3, #1
 80066fa:	d907      	bls.n	800670c <_fwalk_sglue+0x38>
 80066fc:	f9b5 300e 	ldrsh.w	r3, [r5, #14]
 8006700:	3301      	adds	r3, #1
 8006702:	d003      	beq.n	800670c <_fwalk_sglue+0x38>
 8006704:	4629      	mov	r1, r5
 8006706:	4638      	mov	r0, r7
 8006708:	47c0      	blx	r8
 800670a:	4306      	orrs	r6, r0
 800670c:	3568      	adds	r5, #104	@ 0x68
 800670e:	e7e9      	b.n	80066e4 <_fwalk_sglue+0x10>

08006710 <siprintf>:
 8006710:	b40e      	push	{r1, r2, r3}
 8006712:	b510      	push	{r4, lr}
 8006714:	b09d      	sub	sp, #116	@ 0x74
 8006716:	ab1f      	add	r3, sp, #124	@ 0x7c
 8006718:	9002      	str	r0, [sp, #8]
 800671a:	9006      	str	r0, [sp, #24]
 800671c:	f06f 4100 	mvn.w	r1, #2147483648	@ 0x80000000
 8006720:	480a      	ldr	r0, [pc, #40]	@ (800674c <siprintf+0x3c>)
 8006722:	9107      	str	r1, [sp, #28]
 8006724:	9104      	str	r1, [sp, #16]
 8006726:	490a      	ldr	r1, [pc, #40]	@ (8006750 <siprintf+0x40>)
 8006728:	f853 2b04 	ldr.w	r2, [r3], #4
 800672c:	9105      	str	r1, [sp, #20]
 800672e:	2400      	movs	r4, #0
 8006730:	a902      	add	r1, sp, #8
 8006732:	6800      	ldr	r0, [r0, #0]
 8006734:	9301      	str	r3, [sp, #4]
 8006736:	941b      	str	r4, [sp, #108]	@ 0x6c
 8006738:	f001 fa7a 	bl	8007c30 <_svfiprintf_r>
 800673c:	9b02      	ldr	r3, [sp, #8]
 800673e:	701c      	strb	r4, [r3, #0]
 8006740:	b01d      	add	sp, #116	@ 0x74
 8006742:	e8bd 4010 	ldmia.w	sp!, {r4, lr}
 8006746:	b003      	add	sp, #12
 8006748:	4770      	bx	lr
 800674a:	bf00      	nop
 800674c:	200001a8 	.word	0x200001a8
 8006750:	ffff0208 	.word	0xffff0208

08006754 <__sread>:
 8006754:	b510      	push	{r4, lr}
 8006756:	460c      	mov	r4, r1
 8006758:	f9b1 100e 	ldrsh.w	r1, [r1, #14]
 800675c:	f000 f894 	bl	8006888 <_read_r>
 8006760:	2800      	cmp	r0, #0
 8006762:	bfab      	itete	ge
 8006764:	6d63      	ldrge	r3, [r4, #84]	@ 0x54
 8006766:	89a3      	ldrhlt	r3, [r4, #12]
 8006768:	181b      	addge	r3, r3, r0
 800676a:	f423 5380 	biclt.w	r3, r3, #4096	@ 0x1000
 800676e:	bfac      	ite	ge
 8006770:	6563      	strge	r3, [r4, #84]	@ 0x54
 8006772:	81a3      	strhlt	r3, [r4, #12]
 8006774:	bd10      	pop	{r4, pc}

08006776 <__swrite>:
 8006776:	e92d 41f0 	stmdb	sp!, {r4, r5, r6, r7, r8, lr}
 800677a:	461f      	mov	r7, r3
 800677c:	898b      	ldrh	r3, [r1, #12]
 800677e:	05db      	lsls	r3, r3, #23
 8006780:	4605      	mov	r5, r0
 8006782:	460c      	mov	r4, r1
 8006784:	4616      	mov	r6, r2
 8006786:	d505      	bpl.n	8006794 <__swrite+0x1e>
 8006788:	f9b1 100e 	ldrsh.w	r1, [r1, #14]
 800678c:	2302      	movs	r3, #2
 800678e:	2200      	movs	r2, #0
 8006790:	f000 f868 	bl	8006864 <_lseek_r>
 8006794:	89a3      	ldrh	r3, [r4, #12]
 8006796:	f9b4 100e 	ldrsh.w	r1, [r4, #14]
 800679a:	f423 5380 	bic.w	r3, r3, #4096	@ 0x1000
 800679e:	81a3      	strh	r3, [r4, #12]
 80067a0:	4632      	mov	r2, r6
 80067a2:	463b      	mov	r3, r7
 80067a4:	4628      	mov	r0, r5
 80067a6:	e8bd 41f0 	ldmia.w	sp!, {r4, r5, r6, r7, r8, lr}
 80067aa:	f000 b87f 	b.w	80068ac <_write_r>

080067ae <__sseek>:
 80067ae:	b510      	push	{r4, lr}
 80067b0:	460c      	mov	r4, r1
 80067b2:	f9b1 100e 	ldrsh.w	r1, [r1, #14]
 80067b6:	f000 f855 	bl	8006864 <_lseek_r>
 80067ba:	f9b4 300c 	ldrsh.w	r3, [r4, #12]
 80067be:	1c42      	adds	r2, r0, #1
 80067c0:	bf0b      	itete	eq
 80067c2:	f423 5380 	biceq.w	r3, r3, #4096	@ 0x1000
 80067c6:	f443 5380 	orrne.w	r3, r3, #4096	@ 0x1000
 80067ca:	81a3      	strheq	r3, [r4, #12]
 80067cc:	81a3      	strhne	r3, [r4, #12]
 80067ce:	bf18      	it	ne
 80067d0:	6560      	strne	r0, [r4, #84]	@ 0x54
 80067d2:	bd10      	pop	{r4, pc}

080067d4 <__sclose>:
 80067d4:	f9b1 100e 	ldrsh.w	r1, [r1, #14]
 80067d8:	f000 b834 	b.w	8006844 <_close_r>

080067dc <memmove>:
 80067dc:	4288      	cmp	r0, r1
 80067de:	b510      	push	{r4, lr}
 80067e0:	eb01 0402 	add.w	r4, r1, r2
 80067e4:	d902      	bls.n	80067ec <memmove+0x10>
 80067e6:	4284      	cmp	r4, r0
 80067e8:	4623      	mov	r3, r4
 80067ea:	d807      	bhi.n	80067fc <memmove+0x20>
 80067ec:	1e43      	subs	r3, r0, #1
 80067ee:	42a1      	cmp	r1, r4
 80067f0:	d007      	beq.n	8006802 <memmove+0x26>
 80067f2:	f811 2b01 	ldrb.w	r2, [r1], #1
 80067f6:	f803 2f01 	strb.w	r2, [r3, #1]!
 80067fa:	e7f8      	b.n	80067ee <memmove+0x12>
 80067fc:	4402      	add	r2, r0
 80067fe:	4282      	cmp	r2, r0
 8006800:	d100      	bne.n	8006804 <memmove+0x28>
 8006802:	bd10      	pop	{r4, pc}
 8006804:	f813 1d01 	ldrb.w	r1, [r3, #-1]!
 8006808:	f802 1d01 	strb.w	r1, [r2, #-1]!
 800680c:	e7f7      	b.n	80067fe <memmove+0x22>

0800680e <memset>:
 800680e:	4402      	add	r2, r0
 8006810:	4603      	mov	r3, r0
 8006812:	4293      	cmp	r3, r2
 8006814:	d100      	bne.n	8006818 <memset+0xa>
 8006816:	4770      	bx	lr
 8006818:	f803 1b01 	strb.w	r1, [r3], #1
 800681c:	e7f9      	b.n	8006812 <memset+0x4>

0800681e <strncmp>:
 800681e:	b510      	push	{r4, lr}
 8006820:	b16a      	cbz	r2, 800683e <strncmp+0x20>
 8006822:	3901      	subs	r1, #1
 8006824:	1884      	adds	r4, r0, r2
 8006826:	f810 2b01 	ldrb.w	r2, [r0], #1
 800682a:	f811 3f01 	ldrb.w	r3, [r1, #1]!
 800682e:	429a      	cmp	r2, r3
 8006830:	d103      	bne.n	800683a <strncmp+0x1c>
 8006832:	42a0      	cmp	r0, r4
 8006834:	d001      	beq.n	800683a <strncmp+0x1c>
 8006836:	2a00      	cmp	r2, #0
 8006838:	d1f5      	bne.n	8006826 <strncmp+0x8>
 800683a:	1ad0      	subs	r0, r2, r3
 800683c:	bd10      	pop	{r4, pc}
 800683e:	4610      	mov	r0, r2
 8006840:	e7fc      	b.n	800683c <strncmp+0x1e>
	...

08006844 <_close_r>:
 8006844:	b538      	push	{r3, r4, r5, lr}
 8006846:	4d06      	ldr	r5, [pc, #24]	@ (8006860 <_close_r+0x1c>)
 8006848:	2300      	movs	r3, #0
 800684a:	4604      	mov	r4, r0
 800684c:	4608      	mov	r0, r1
 800684e:	602b      	str	r3, [r5, #0]
 8006850:	f7fd fd72 	bl	8004338 <_close>
 8006854:	1c43      	adds	r3, r0, #1
 8006856:	d102      	bne.n	800685e <_close_r+0x1a>
 8006858:	682b      	ldr	r3, [r5, #0]
 800685a:	b103      	cbz	r3, 800685e <_close_r+0x1a>
 800685c:	6023      	str	r3, [r4, #0]
 800685e:	bd38      	pop	{r3, r4, r5, pc}
 8006860:	200006a0 	.word	0x200006a0

08006864 <_lseek_r>:
 8006864:	b538      	push	{r3, r4, r5, lr}
 8006866:	4d07      	ldr	r5, [pc, #28]	@ (8006884 <_lseek_r+0x20>)
 8006868:	4604      	mov	r4, r0
 800686a:	4608      	mov	r0, r1
 800686c:	4611      	mov	r1, r2
 800686e:	2200      	movs	r2, #0
 8006870:	602a      	str	r2, [r5, #0]
 8006872:	461a      	mov	r2, r3
 8006874:	f7fd fd87 	bl	8004386 <_lseek>
 8006878:	1c43      	adds	r3, r0, #1
 800687a:	d102      	bne.n	8006882 <_lseek_r+0x1e>
 800687c:	682b      	ldr	r3, [r5, #0]
 800687e:	b103      	cbz	r3, 8006882 <_lseek_r+0x1e>
 8006880:	6023      	str	r3, [r4, #0]
 8006882:	bd38      	pop	{r3, r4, r5, pc}
 8006884:	200006a0 	.word	0x200006a0

08006888 <_read_r>:
 8006888:	b538      	push	{r3, r4, r5, lr}
 800688a:	4d07      	ldr	r5, [pc, #28]	@ (80068a8 <_read_r+0x20>)
 800688c:	4604      	mov	r4, r0
 800688e:	4608      	mov	r0, r1
 8006890:	4611      	mov	r1, r2
 8006892:	2200      	movs	r2, #0
 8006894:	602a      	str	r2, [r5, #0]
 8006896:	461a      	mov	r2, r3
 8006898:	f7fd fd15 	bl	80042c6 <_read>
 800689c:	1c43      	adds	r3, r0, #1
 800689e:	d102      	bne.n	80068a6 <_read_r+0x1e>
 80068a0:	682b      	ldr	r3, [r5, #0]
 80068a2:	b103      	cbz	r3, 80068a6 <_read_r+0x1e>
 80068a4:	6023      	str	r3, [r4, #0]
 80068a6:	bd38      	pop	{r3, r4, r5, pc}
 80068a8:	200006a0 	.word	0x200006a0

080068ac <_write_r>:
 80068ac:	b538      	push	{r3, r4, r5, lr}
 80068ae:	4d07      	ldr	r5, [pc, #28]	@ (80068cc <_write_r+0x20>)
 80068b0:	4604      	mov	r4, r0
 80068b2:	4608      	mov	r0, r1
 80068b4:	4611      	mov	r1, r2
 80068b6:	2200      	movs	r2, #0
 80068b8:	602a      	str	r2, [r5, #0]
 80068ba:	461a      	mov	r2, r3
 80068bc:	f7fd fd20 	bl	8004300 <_write>
 80068c0:	1c43      	adds	r3, r0, #1
 80068c2:	d102      	bne.n	80068ca <_write_r+0x1e>
 80068c4:	682b      	ldr	r3, [r5, #0]
 80068c6:	b103      	cbz	r3, 80068ca <_write_r+0x1e>
 80068c8:	6023      	str	r3, [r4, #0]
 80068ca:	bd38      	pop	{r3, r4, r5, pc}
 80068cc:	200006a0 	.word	0x200006a0

080068d0 <__errno>:
 80068d0:	4b01      	ldr	r3, [pc, #4]	@ (80068d8 <__errno+0x8>)
 80068d2:	6818      	ldr	r0, [r3, #0]
 80068d4:	4770      	bx	lr
 80068d6:	bf00      	nop
 80068d8:	200001a8 	.word	0x200001a8

080068dc <__libc_init_array>:
 80068dc:	b570      	push	{r4, r5, r6, lr}
 80068de:	4b0d      	ldr	r3, [pc, #52]	@ (8006914 <__libc_init_array+0x38>)
 80068e0:	4d0d      	ldr	r5, [pc, #52]	@ (8006918 <__libc_init_array+0x3c>)
 80068e2:	1b5b      	subs	r3, r3, r5
 80068e4:	109c      	asrs	r4, r3, #2
 80068e6:	2600      	movs	r6, #0
 80068e8:	42a6      	cmp	r6, r4
 80068ea:	d109      	bne.n	8006900 <__libc_init_array+0x24>
 80068ec:	f002 f802 	bl	80088f4 <_init>
 80068f0:	4d0a      	ldr	r5, [pc, #40]	@ (800691c <__libc_init_array+0x40>)
 80068f2:	4b0b      	ldr	r3, [pc, #44]	@ (8006920 <__libc_init_array+0x44>)
 80068f4:	1b5b      	subs	r3, r3, r5
 80068f6:	109c      	asrs	r4, r3, #2
 80068f8:	2600      	movs	r6, #0
 80068fa:	42a6      	cmp	r6, r4
 80068fc:	d105      	bne.n	800690a <__libc_init_array+0x2e>
 80068fe:	bd70      	pop	{r4, r5, r6, pc}
 8006900:	f855 3b04 	ldr.w	r3, [r5], #4
 8006904:	4798      	blx	r3
 8006906:	3601      	adds	r6, #1
 8006908:	e7ee      	b.n	80068e8 <__libc_init_array+0xc>
 800690a:	f855 3b04 	ldr.w	r3, [r5], #4
 800690e:	4798      	blx	r3
 8006910:	3601      	adds	r6, #1
 8006912:	e7f2      	b.n	80068fa <__libc_init_array+0x1e>
 8006914:	080091f8 	.word	0x080091f8
 8006918:	080091f8 	.word	0x080091f8
 800691c:	080091f8 	.word	0x080091f8
 8006920:	080091fc 	.word	0x080091fc

08006924 <__retarget_lock_init_recursive>:
 8006924:	4770      	bx	lr

08006926 <__retarget_lock_acquire_recursive>:
 8006926:	4770      	bx	lr

08006928 <__retarget_lock_release_recursive>:
 8006928:	4770      	bx	lr

0800692a <memcpy>:
 800692a:	440a      	add	r2, r1
 800692c:	4291      	cmp	r1, r2
 800692e:	f100 33ff 	add.w	r3, r0, #4294967295
 8006932:	d100      	bne.n	8006936 <memcpy+0xc>
 8006934:	4770      	bx	lr
 8006936:	b510      	push	{r4, lr}
 8006938:	f811 4b01 	ldrb.w	r4, [r1], #1
 800693c:	f803 4f01 	strb.w	r4, [r3, #1]!
 8006940:	4291      	cmp	r1, r2
 8006942:	d1f9      	bne.n	8006938 <memcpy+0xe>
 8006944:	bd10      	pop	{r4, pc}
	...

08006948 <nan>:
 8006948:	ed9f 0b01 	vldr	d0, [pc, #4]	@ 8006950 <nan+0x8>
 800694c:	4770      	bx	lr
 800694e:	bf00      	nop
 8006950:	00000000 	.word	0x00000000
 8006954:	7ff80000 	.word	0x7ff80000

08006958 <_free_r>:
 8006958:	b538      	push	{r3, r4, r5, lr}
 800695a:	4605      	mov	r5, r0
 800695c:	2900      	cmp	r1, #0
 800695e:	d041      	beq.n	80069e4 <_free_r+0x8c>
 8006960:	f851 3c04 	ldr.w	r3, [r1, #-4]
 8006964:	1f0c      	subs	r4, r1, #4
 8006966:	2b00      	cmp	r3, #0
 8006968:	bfb8      	it	lt
 800696a:	18e4      	addlt	r4, r4, r3
 800696c:	f000 fc2e 	bl	80071cc <__malloc_lock>
 8006970:	4a1d      	ldr	r2, [pc, #116]	@ (80069e8 <_free_r+0x90>)
 8006972:	6813      	ldr	r3, [r2, #0]
 8006974:	b933      	cbnz	r3, 8006984 <_free_r+0x2c>
 8006976:	6063      	str	r3, [r4, #4]
 8006978:	6014      	str	r4, [r2, #0]
 800697a:	4628      	mov	r0, r5
 800697c:	e8bd 4038 	ldmia.w	sp!, {r3, r4, r5, lr}
 8006980:	f000 bc2a 	b.w	80071d8 <__malloc_unlock>
 8006984:	42a3      	cmp	r3, r4
 8006986:	d908      	bls.n	800699a <_free_r+0x42>
 8006988:	6820      	ldr	r0, [r4, #0]
 800698a:	1821      	adds	r1, r4, r0
 800698c:	428b      	cmp	r3, r1
 800698e:	bf01      	itttt	eq
 8006990:	6819      	ldreq	r1, [r3, #0]
 8006992:	685b      	ldreq	r3, [r3, #4]
 8006994:	1809      	addeq	r1, r1, r0
 8006996:	6021      	streq	r1, [r4, #0]
 8006998:	e7ed      	b.n	8006976 <_free_r+0x1e>
 800699a:	461a      	mov	r2, r3
 800699c:	685b      	ldr	r3, [r3, #4]
 800699e:	b10b      	cbz	r3, 80069a4 <_free_r+0x4c>
 80069a0:	42a3      	cmp	r3, r4
 80069a2:	d9fa      	bls.n	800699a <_free_r+0x42>
 80069a4:	6811      	ldr	r1, [r2, #0]
 80069a6:	1850      	adds	r0, r2, r1
 80069a8:	42a0      	cmp	r0, r4
 80069aa:	d10b      	bne.n	80069c4 <_free_r+0x6c>
 80069ac:	6820      	ldr	r0, [r4, #0]
 80069ae:	4401      	add	r1, r0
 80069b0:	1850      	adds	r0, r2, r1
 80069b2:	4283      	cmp	r3, r0
 80069b4:	6011      	str	r1, [r2, #0]
 80069b6:	d1e0      	bne.n	800697a <_free_r+0x22>
 80069b8:	6818      	ldr	r0, [r3, #0]
 80069ba:	685b      	ldr	r3, [r3, #4]
 80069bc:	6053      	str	r3, [r2, #4]
 80069be:	4408      	add	r0, r1
 80069c0:	6010      	str	r0, [r2, #0]
 80069c2:	e7da      	b.n	800697a <_free_r+0x22>
 80069c4:	d902      	bls.n	80069cc <_free_r+0x74>
 80069c6:	230c      	movs	r3, #12
 80069c8:	602b      	str	r3, [r5, #0]
 80069ca:	e7d6      	b.n	800697a <_free_r+0x22>
 80069cc:	6820      	ldr	r0, [r4, #0]
 80069ce:	1821      	adds	r1, r4, r0
 80069d0:	428b      	cmp	r3, r1
 80069d2:	bf04      	itt	eq
 80069d4:	6819      	ldreq	r1, [r3, #0]
 80069d6:	685b      	ldreq	r3, [r3, #4]
 80069d8:	6063      	str	r3, [r4, #4]
 80069da:	bf04      	itt	eq
 80069dc:	1809      	addeq	r1, r1, r0
 80069de:	6021      	streq	r1, [r4, #0]
 80069e0:	6054      	str	r4, [r2, #4]
 80069e2:	e7ca      	b.n	800697a <_free_r+0x22>
 80069e4:	bd38      	pop	{r3, r4, r5, pc}
 80069e6:	bf00      	nop
 80069e8:	200006ac 	.word	0x200006ac

080069ec <rshift>:
 80069ec:	6903      	ldr	r3, [r0, #16]
 80069ee:	ebb3 1f61 	cmp.w	r3, r1, asr #5
 80069f2:	e92d 43f0 	stmdb	sp!, {r4, r5, r6, r7, r8, r9, lr}
 80069f6:	ea4f 1261 	mov.w	r2, r1, asr #5
 80069fa:	f100 0414 	add.w	r4, r0, #20
 80069fe:	dd45      	ble.n	8006a8c <rshift+0xa0>
 8006a00:	f011 011f 	ands.w	r1, r1, #31
 8006a04:	eb04 0683 	add.w	r6, r4, r3, lsl #2
 8006a08:	eb04 0582 	add.w	r5, r4, r2, lsl #2
 8006a0c:	d10c      	bne.n	8006a28 <rshift+0x3c>
 8006a0e:	f100 0710 	add.w	r7, r0, #16
 8006a12:	4629      	mov	r1, r5
 8006a14:	42b1      	cmp	r1, r6
 8006a16:	d334      	bcc.n	8006a82 <rshift+0x96>
 8006a18:	1a9b      	subs	r3, r3, r2
 8006a1a:	009b      	lsls	r3, r3, #2
 8006a1c:	1eea      	subs	r2, r5, #3
 8006a1e:	4296      	cmp	r6, r2
 8006a20:	bf38      	it	cc
 8006a22:	2300      	movcc	r3, #0
 8006a24:	4423      	add	r3, r4
 8006a26:	e015      	b.n	8006a54 <rshift+0x68>
 8006a28:	f854 7022 	ldr.w	r7, [r4, r2, lsl #2]
 8006a2c:	f1c1 0820 	rsb	r8, r1, #32
 8006a30:	40cf      	lsrs	r7, r1
 8006a32:	f105 0e04 	add.w	lr, r5, #4
 8006a36:	46a1      	mov	r9, r4
 8006a38:	4576      	cmp	r6, lr
 8006a3a:	46f4      	mov	ip, lr
 8006a3c:	d815      	bhi.n	8006a6a <rshift+0x7e>
 8006a3e:	1a9a      	subs	r2, r3, r2
 8006a40:	0092      	lsls	r2, r2, #2
 8006a42:	3a04      	subs	r2, #4
 8006a44:	3501      	adds	r5, #1
 8006a46:	42ae      	cmp	r6, r5
 8006a48:	bf38      	it	cc
 8006a4a:	2200      	movcc	r2, #0
 8006a4c:	18a3      	adds	r3, r4, r2
 8006a4e:	50a7      	str	r7, [r4, r2]
 8006a50:	b107      	cbz	r7, 8006a54 <rshift+0x68>
 8006a52:	3304      	adds	r3, #4
 8006a54:	1b1a      	subs	r2, r3, r4
 8006a56:	42a3      	cmp	r3, r4
 8006a58:	ea4f 02a2 	mov.w	r2, r2, asr #2
 8006a5c:	bf08      	it	eq
 8006a5e:	2300      	moveq	r3, #0
 8006a60:	6102      	str	r2, [r0, #16]
 8006a62:	bf08      	it	eq
 8006a64:	6143      	streq	r3, [r0, #20]
 8006a66:	e8bd 83f0 	ldmia.w	sp!, {r4, r5, r6, r7, r8, r9, pc}
 8006a6a:	f8dc c000 	ldr.w	ip, [ip]
 8006a6e:	fa0c fc08 	lsl.w	ip, ip, r8
 8006a72:	ea4c 0707 	orr.w	r7, ip, r7
 8006a76:	f849 7b04 	str.w	r7, [r9], #4
 8006a7a:	f85e 7b04 	ldr.w	r7, [lr], #4
 8006a7e:	40cf      	lsrs	r7, r1
 8006a80:	e7da      	b.n	8006a38 <rshift+0x4c>
 8006a82:	f851 cb04 	ldr.w	ip, [r1], #4
 8006a86:	f847 cf04 	str.w	ip, [r7, #4]!
 8006a8a:	e7c3      	b.n	8006a14 <rshift+0x28>
 8006a8c:	4623      	mov	r3, r4
 8006a8e:	e7e1      	b.n	8006a54 <rshift+0x68>

08006a90 <__hexdig_fun>:
 8006a90:	f1a0 0330 	sub.w	r3, r0, #48	@ 0x30
 8006a94:	2b09      	cmp	r3, #9
 8006a96:	d802      	bhi.n	8006a9e <__hexdig_fun+0xe>
 8006a98:	3820      	subs	r0, #32
 8006a9a:	b2c0      	uxtb	r0, r0
 8006a9c:	4770      	bx	lr
 8006a9e:	f1a0 0361 	sub.w	r3, r0, #97	@ 0x61
 8006aa2:	2b05      	cmp	r3, #5
 8006aa4:	d801      	bhi.n	8006aaa <__hexdig_fun+0x1a>
 8006aa6:	3847      	subs	r0, #71	@ 0x47
 8006aa8:	e7f7      	b.n	8006a9a <__hexdig_fun+0xa>
 8006aaa:	f1a0 0341 	sub.w	r3, r0, #65	@ 0x41
 8006aae:	2b05      	cmp	r3, #5
 8006ab0:	d801      	bhi.n	8006ab6 <__hexdig_fun+0x26>
 8006ab2:	3827      	subs	r0, #39	@ 0x27
 8006ab4:	e7f1      	b.n	8006a9a <__hexdig_fun+0xa>
 8006ab6:	2000      	movs	r0, #0
 8006ab8:	4770      	bx	lr
	...

08006abc <__gethex>:
 8006abc:	e92d 4ff0 	stmdb	sp!, {r4, r5, r6, r7, r8, r9, sl, fp, lr}
 8006ac0:	b085      	sub	sp, #20
 8006ac2:	468a      	mov	sl, r1
 8006ac4:	9302      	str	r3, [sp, #8]
 8006ac6:	680b      	ldr	r3, [r1, #0]
 8006ac8:	9001      	str	r0, [sp, #4]
 8006aca:	4690      	mov	r8, r2
 8006acc:	1c9c      	adds	r4, r3, #2
 8006ace:	46a1      	mov	r9, r4
 8006ad0:	f814 0b01 	ldrb.w	r0, [r4], #1
 8006ad4:	2830      	cmp	r0, #48	@ 0x30
 8006ad6:	d0fa      	beq.n	8006ace <__gethex+0x12>
 8006ad8:	eba9 0303 	sub.w	r3, r9, r3
 8006adc:	f1a3 0b02 	sub.w	fp, r3, #2
 8006ae0:	f7ff ffd6 	bl	8006a90 <__hexdig_fun>
 8006ae4:	4605      	mov	r5, r0
 8006ae6:	2800      	cmp	r0, #0
 8006ae8:	d168      	bne.n	8006bbc <__gethex+0x100>
 8006aea:	49a0      	ldr	r1, [pc, #640]	@ (8006d6c <__gethex+0x2b0>)
 8006aec:	2201      	movs	r2, #1
 8006aee:	4648      	mov	r0, r9
 8006af0:	f7ff fe95 	bl	800681e <strncmp>
 8006af4:	4607      	mov	r7, r0
 8006af6:	2800      	cmp	r0, #0
 8006af8:	d167      	bne.n	8006bca <__gethex+0x10e>
 8006afa:	f899 0001 	ldrb.w	r0, [r9, #1]
 8006afe:	4626      	mov	r6, r4
 8006b00:	f7ff ffc6 	bl	8006a90 <__hexdig_fun>
 8006b04:	2800      	cmp	r0, #0
 8006b06:	d062      	beq.n	8006bce <__gethex+0x112>
 8006b08:	4623      	mov	r3, r4
 8006b0a:	7818      	ldrb	r0, [r3, #0]
 8006b0c:	2830      	cmp	r0, #48	@ 0x30
 8006b0e:	4699      	mov	r9, r3
 8006b10:	f103 0301 	add.w	r3, r3, #1
 8006b14:	d0f9      	beq.n	8006b0a <__gethex+0x4e>
 8006b16:	f7ff ffbb 	bl	8006a90 <__hexdig_fun>
 8006b1a:	fab0 f580 	clz	r5, r0
 8006b1e:	096d      	lsrs	r5, r5, #5
 8006b20:	f04f 0b01 	mov.w	fp, #1
 8006b24:	464a      	mov	r2, r9
 8006b26:	4616      	mov	r6, r2
 8006b28:	3201      	adds	r2, #1
 8006b2a:	7830      	ldrb	r0, [r6, #0]
 8006b2c:	f7ff ffb0 	bl	8006a90 <__hexdig_fun>
 8006b30:	2800      	cmp	r0, #0
 8006b32:	d1f8      	bne.n	8006b26 <__gethex+0x6a>
 8006b34:	498d      	ldr	r1, [pc, #564]	@ (8006d6c <__gethex+0x2b0>)
 8006b36:	2201      	movs	r2, #1
 8006b38:	4630      	mov	r0, r6
 8006b3a:	f7ff fe70 	bl	800681e <strncmp>
 8006b3e:	2800      	cmp	r0, #0
 8006b40:	d13f      	bne.n	8006bc2 <__gethex+0x106>
 8006b42:	b944      	cbnz	r4, 8006b56 <__gethex+0x9a>
 8006b44:	1c74      	adds	r4, r6, #1
 8006b46:	4622      	mov	r2, r4
 8006b48:	4616      	mov	r6, r2
 8006b4a:	3201      	adds	r2, #1
 8006b4c:	7830      	ldrb	r0, [r6, #0]
 8006b4e:	f7ff ff9f 	bl	8006a90 <__hexdig_fun>
 8006b52:	2800      	cmp	r0, #0
 8006b54:	d1f8      	bne.n	8006b48 <__gethex+0x8c>
 8006b56:	1ba4      	subs	r4, r4, r6
 8006b58:	00a7      	lsls	r7, r4, #2
 8006b5a:	7833      	ldrb	r3, [r6, #0]
 8006b5c:	f003 03df 	and.w	r3, r3, #223	@ 0xdf
 8006b60:	2b50      	cmp	r3, #80	@ 0x50
 8006b62:	d13e      	bne.n	8006be2 <__gethex+0x126>
 8006b64:	7873      	ldrb	r3, [r6, #1]
 8006b66:	2b2b      	cmp	r3, #43	@ 0x2b
 8006b68:	d033      	beq.n	8006bd2 <__gethex+0x116>
 8006b6a:	2b2d      	cmp	r3, #45	@ 0x2d
 8006b6c:	d034      	beq.n	8006bd8 <__gethex+0x11c>
 8006b6e:	1c71      	adds	r1, r6, #1
 8006b70:	2400      	movs	r4, #0
 8006b72:	7808      	ldrb	r0, [r1, #0]
 8006b74:	f7ff ff8c 	bl	8006a90 <__hexdig_fun>
 8006b78:	1e43      	subs	r3, r0, #1
 8006b7a:	b2db      	uxtb	r3, r3
 8006b7c:	2b18      	cmp	r3, #24
 8006b7e:	d830      	bhi.n	8006be2 <__gethex+0x126>
 8006b80:	f1a0 0210 	sub.w	r2, r0, #16
 8006b84:	f811 0f01 	ldrb.w	r0, [r1, #1]!
 8006b88:	f7ff ff82 	bl	8006a90 <__hexdig_fun>
 8006b8c:	f100 3cff 	add.w	ip, r0, #4294967295
 8006b90:	fa5f fc8c 	uxtb.w	ip, ip
 8006b94:	f1bc 0f18 	cmp.w	ip, #24
 8006b98:	f04f 030a 	mov.w	r3, #10
 8006b9c:	d91e      	bls.n	8006bdc <__gethex+0x120>
 8006b9e:	b104      	cbz	r4, 8006ba2 <__gethex+0xe6>
 8006ba0:	4252      	negs	r2, r2
 8006ba2:	4417      	add	r7, r2
 8006ba4:	f8ca 1000 	str.w	r1, [sl]
 8006ba8:	b1ed      	cbz	r5, 8006be6 <__gethex+0x12a>
 8006baa:	f1bb 0f00 	cmp.w	fp, #0
 8006bae:	bf0c      	ite	eq
 8006bb0:	2506      	moveq	r5, #6
 8006bb2:	2500      	movne	r5, #0
 8006bb4:	4628      	mov	r0, r5
 8006bb6:	b005      	add	sp, #20
 8006bb8:	e8bd 8ff0 	ldmia.w	sp!, {r4, r5, r6, r7, r8, r9, sl, fp, pc}
 8006bbc:	2500      	movs	r5, #0
 8006bbe:	462c      	mov	r4, r5
 8006bc0:	e7b0      	b.n	8006b24 <__gethex+0x68>
 8006bc2:	2c00      	cmp	r4, #0
 8006bc4:	d1c7      	bne.n	8006b56 <__gethex+0x9a>
 8006bc6:	4627      	mov	r7, r4
 8006bc8:	e7c7      	b.n	8006b5a <__gethex+0x9e>
 8006bca:	464e      	mov	r6, r9
 8006bcc:	462f      	mov	r7, r5
 8006bce:	2501      	movs	r5, #1
 8006bd0:	e7c3      	b.n	8006b5a <__gethex+0x9e>
 8006bd2:	2400      	movs	r4, #0
 8006bd4:	1cb1      	adds	r1, r6, #2
 8006bd6:	e7cc      	b.n	8006b72 <__gethex+0xb6>
 8006bd8:	2401      	movs	r4, #1
 8006bda:	e7fb      	b.n	8006bd4 <__gethex+0x118>
 8006bdc:	fb03 0002 	mla	r0, r3, r2, r0
 8006be0:	e7ce      	b.n	8006b80 <__gethex+0xc4>
 8006be2:	4631      	mov	r1, r6
 8006be4:	e7de      	b.n	8006ba4 <__gethex+0xe8>
 8006be6:	eba6 0309 	sub.w	r3, r6, r9
 8006bea:	3b01      	subs	r3, #1
 8006bec:	4629      	mov	r1, r5
 8006bee:	2b07      	cmp	r3, #7
 8006bf0:	dc0a      	bgt.n	8006c08 <__gethex+0x14c>
 8006bf2:	9801      	ldr	r0, [sp, #4]
 8006bf4:	f000 faf6 	bl	80071e4 <_Balloc>
 8006bf8:	4604      	mov	r4, r0
 8006bfa:	b940      	cbnz	r0, 8006c0e <__gethex+0x152>
 8006bfc:	4b5c      	ldr	r3, [pc, #368]	@ (8006d70 <__gethex+0x2b4>)
 8006bfe:	4602      	mov	r2, r0
 8006c00:	21e4      	movs	r1, #228	@ 0xe4
 8006c02:	485c      	ldr	r0, [pc, #368]	@ (8006d74 <__gethex+0x2b8>)
 8006c04:	f001 fb5a 	bl	80082bc <__assert_func>
 8006c08:	3101      	adds	r1, #1
 8006c0a:	105b      	asrs	r3, r3, #1
 8006c0c:	e7ef      	b.n	8006bee <__gethex+0x132>
 8006c0e:	f100 0a14 	add.w	sl, r0, #20
 8006c12:	2300      	movs	r3, #0
 8006c14:	4655      	mov	r5, sl
 8006c16:	469b      	mov	fp, r3
 8006c18:	45b1      	cmp	r9, r6
 8006c1a:	d337      	bcc.n	8006c8c <__gethex+0x1d0>
 8006c1c:	f845 bb04 	str.w	fp, [r5], #4
 8006c20:	eba5 050a 	sub.w	r5, r5, sl
 8006c24:	10ad      	asrs	r5, r5, #2
 8006c26:	6125      	str	r5, [r4, #16]
 8006c28:	4658      	mov	r0, fp
 8006c2a:	f000 fbcb 	bl	80073c4 <__hi0bits>
 8006c2e:	016d      	lsls	r5, r5, #5
 8006c30:	f8d8 6000 	ldr.w	r6, [r8]
 8006c34:	1a2d      	subs	r5, r5, r0
 8006c36:	42b5      	cmp	r5, r6
 8006c38:	dd54      	ble.n	8006ce4 <__gethex+0x228>
 8006c3a:	1bad      	subs	r5, r5, r6
 8006c3c:	4629      	mov	r1, r5
 8006c3e:	4620      	mov	r0, r4
 8006c40:	f000 ff67 	bl	8007b12 <__any_on>
 8006c44:	4681      	mov	r9, r0
 8006c46:	b178      	cbz	r0, 8006c68 <__gethex+0x1ac>
 8006c48:	1e6b      	subs	r3, r5, #1
 8006c4a:	1159      	asrs	r1, r3, #5
 8006c4c:	f003 021f 	and.w	r2, r3, #31
 8006c50:	f85a 1021 	ldr.w	r1, [sl, r1, lsl #2]
 8006c54:	f04f 0901 	mov.w	r9, #1
 8006c58:	fa09 f202 	lsl.w	r2, r9, r2
 8006c5c:	420a      	tst	r2, r1
 8006c5e:	d003      	beq.n	8006c68 <__gethex+0x1ac>
 8006c60:	454b      	cmp	r3, r9
 8006c62:	dc36      	bgt.n	8006cd2 <__gethex+0x216>
 8006c64:	f04f 0902 	mov.w	r9, #2
 8006c68:	4629      	mov	r1, r5
 8006c6a:	4620      	mov	r0, r4
 8006c6c:	f7ff febe 	bl	80069ec <rshift>
 8006c70:	442f      	add	r7, r5
 8006c72:	f8d8 3008 	ldr.w	r3, [r8, #8]
 8006c76:	42bb      	cmp	r3, r7
 8006c78:	da42      	bge.n	8006d00 <__gethex+0x244>
 8006c7a:	9801      	ldr	r0, [sp, #4]
 8006c7c:	4621      	mov	r1, r4
 8006c7e:	f000 faef 	bl	8007260 <_Bfree>
 8006c82:	9a0e      	ldr	r2, [sp, #56]	@ 0x38
 8006c84:	2300      	movs	r3, #0
 8006c86:	6013      	str	r3, [r2, #0]
 8006c88:	25a3      	movs	r5, #163	@ 0xa3
 8006c8a:	e793      	b.n	8006bb4 <__gethex+0xf8>
 8006c8c:	f816 2d01 	ldrb.w	r2, [r6, #-1]!
 8006c90:	2a2e      	cmp	r2, #46	@ 0x2e
 8006c92:	d012      	beq.n	8006cba <__gethex+0x1fe>
 8006c94:	2b20      	cmp	r3, #32
 8006c96:	d104      	bne.n	8006ca2 <__gethex+0x1e6>
 8006c98:	f845 bb04 	str.w	fp, [r5], #4
 8006c9c:	f04f 0b00 	mov.w	fp, #0
 8006ca0:	465b      	mov	r3, fp
 8006ca2:	7830      	ldrb	r0, [r6, #0]
 8006ca4:	9303      	str	r3, [sp, #12]
 8006ca6:	f7ff fef3 	bl	8006a90 <__hexdig_fun>
 8006caa:	9b03      	ldr	r3, [sp, #12]
 8006cac:	f000 000f 	and.w	r0, r0, #15
 8006cb0:	4098      	lsls	r0, r3
 8006cb2:	ea4b 0b00 	orr.w	fp, fp, r0
 8006cb6:	3304      	adds	r3, #4
 8006cb8:	e7ae      	b.n	8006c18 <__gethex+0x15c>
 8006cba:	45b1      	cmp	r9, r6
 8006cbc:	d8ea      	bhi.n	8006c94 <__gethex+0x1d8>
 8006cbe:	492b      	ldr	r1, [pc, #172]	@ (8006d6c <__gethex+0x2b0>)
 8006cc0:	9303      	str	r3, [sp, #12]
 8006cc2:	2201      	movs	r2, #1
 8006cc4:	4630      	mov	r0, r6
 8006cc6:	f7ff fdaa 	bl	800681e <strncmp>
 8006cca:	9b03      	ldr	r3, [sp, #12]
 8006ccc:	2800      	cmp	r0, #0
 8006cce:	d1e1      	bne.n	8006c94 <__gethex+0x1d8>
 8006cd0:	e7a2      	b.n	8006c18 <__gethex+0x15c>
 8006cd2:	1ea9      	subs	r1, r5, #2
 8006cd4:	4620      	mov	r0, r4
 8006cd6:	f000 ff1c 	bl	8007b12 <__any_on>
 8006cda:	2800      	cmp	r0, #0
 8006cdc:	d0c2      	beq.n	8006c64 <__gethex+0x1a8>
 8006cde:	f04f 0903 	mov.w	r9, #3
 8006ce2:	e7c1      	b.n	8006c68 <__gethex+0x1ac>
 8006ce4:	da09      	bge.n	8006cfa <__gethex+0x23e>
 8006ce6:	1b75      	subs	r5, r6, r5
 8006ce8:	4621      	mov	r1, r4
 8006cea:	9801      	ldr	r0, [sp, #4]
 8006cec:	462a      	mov	r2, r5
 8006cee:	f000 fcd1 	bl	8007694 <__lshift>
 8006cf2:	1b7f      	subs	r7, r7, r5
 8006cf4:	4604      	mov	r4, r0
 8006cf6:	f100 0a14 	add.w	sl, r0, #20
 8006cfa:	f04f 0900 	mov.w	r9, #0
 8006cfe:	e7b8      	b.n	8006c72 <__gethex+0x1b6>
 8006d00:	f8d8 5004 	ldr.w	r5, [r8, #4]
 8006d04:	42bd      	cmp	r5, r7
 8006d06:	dd6f      	ble.n	8006de8 <__gethex+0x32c>
 8006d08:	1bed      	subs	r5, r5, r7
 8006d0a:	42ae      	cmp	r6, r5
 8006d0c:	dc34      	bgt.n	8006d78 <__gethex+0x2bc>
 8006d0e:	f8d8 300c 	ldr.w	r3, [r8, #12]
 8006d12:	2b02      	cmp	r3, #2
 8006d14:	d022      	beq.n	8006d5c <__gethex+0x2a0>
 8006d16:	2b03      	cmp	r3, #3
 8006d18:	d024      	beq.n	8006d64 <__gethex+0x2a8>
 8006d1a:	2b01      	cmp	r3, #1
 8006d1c:	d115      	bne.n	8006d4a <__gethex+0x28e>
 8006d1e:	42ae      	cmp	r6, r5
 8006d20:	d113      	bne.n	8006d4a <__gethex+0x28e>
 8006d22:	2e01      	cmp	r6, #1
 8006d24:	d10b      	bne.n	8006d3e <__gethex+0x282>
 8006d26:	9a02      	ldr	r2, [sp, #8]
 8006d28:	f8d8 3004 	ldr.w	r3, [r8, #4]
 8006d2c:	6013      	str	r3, [r2, #0]
 8006d2e:	2301      	movs	r3, #1
 8006d30:	6123      	str	r3, [r4, #16]
 8006d32:	f8ca 3000 	str.w	r3, [sl]
 8006d36:	9b0e      	ldr	r3, [sp, #56]	@ 0x38
 8006d38:	2562      	movs	r5, #98	@ 0x62
 8006d3a:	601c      	str	r4, [r3, #0]
 8006d3c:	e73a      	b.n	8006bb4 <__gethex+0xf8>
 8006d3e:	1e71      	subs	r1, r6, #1
 8006d40:	4620      	mov	r0, r4
 8006d42:	f000 fee6 	bl	8007b12 <__any_on>
 8006d46:	2800      	cmp	r0, #0
 8006d48:	d1ed      	bne.n	8006d26 <__gethex+0x26a>
 8006d4a:	9801      	ldr	r0, [sp, #4]
 8006d4c:	4621      	mov	r1, r4
 8006d4e:	f000 fa87 	bl	8007260 <_Bfree>
 8006d52:	9a0e      	ldr	r2, [sp, #56]	@ 0x38
 8006d54:	2300      	movs	r3, #0
 8006d56:	6013      	str	r3, [r2, #0]
 8006d58:	2550      	movs	r5, #80	@ 0x50
 8006d5a:	e72b      	b.n	8006bb4 <__gethex+0xf8>
 8006d5c:	9b0f      	ldr	r3, [sp, #60]	@ 0x3c
 8006d5e:	2b00      	cmp	r3, #0
 8006d60:	d1f3      	bne.n	8006d4a <__gethex+0x28e>
 8006d62:	e7e0      	b.n	8006d26 <__gethex+0x26a>
 8006d64:	9b0f      	ldr	r3, [sp, #60]	@ 0x3c
 8006d66:	2b00      	cmp	r3, #0
 8006d68:	d1dd      	bne.n	8006d26 <__gethex+0x26a>
 8006d6a:	e7ee      	b.n	8006d4a <__gethex+0x28e>
 8006d6c:	08008e38 	.word	0x08008e38
 8006d70:	08008e4e 	.word	0x08008e4e
 8006d74:	08008e5f 	.word	0x08008e5f
 8006d78:	1e6f      	subs	r7, r5, #1
 8006d7a:	f1b9 0f00 	cmp.w	r9, #0
 8006d7e:	d130      	bne.n	8006de2 <__gethex+0x326>
 8006d80:	b127      	cbz	r7, 8006d8c <__gethex+0x2d0>
 8006d82:	4639      	mov	r1, r7
 8006d84:	4620      	mov	r0, r4
 8006d86:	f000 fec4 	bl	8007b12 <__any_on>
 8006d8a:	4681      	mov	r9, r0
 8006d8c:	117a      	asrs	r2, r7, #5
 8006d8e:	2301      	movs	r3, #1
 8006d90:	f85a 2022 	ldr.w	r2, [sl, r2, lsl #2]
 8006d94:	f007 071f 	and.w	r7, r7, #31
 8006d98:	40bb      	lsls	r3, r7
 8006d9a:	4213      	tst	r3, r2
 8006d9c:	4629      	mov	r1, r5
 8006d9e:	4620      	mov	r0, r4
 8006da0:	bf18      	it	ne
 8006da2:	f049 0902 	orrne.w	r9, r9, #2
 8006da6:	f7ff fe21 	bl	80069ec <rshift>
 8006daa:	f8d8 7004 	ldr.w	r7, [r8, #4]
 8006dae:	1b76      	subs	r6, r6, r5
 8006db0:	2502      	movs	r5, #2
 8006db2:	f1b9 0f00 	cmp.w	r9, #0
 8006db6:	d047      	beq.n	8006e48 <__gethex+0x38c>
 8006db8:	f8d8 300c 	ldr.w	r3, [r8, #12]
 8006dbc:	2b02      	cmp	r3, #2
 8006dbe:	d015      	beq.n	8006dec <__gethex+0x330>
 8006dc0:	2b03      	cmp	r3, #3
 8006dc2:	d017      	beq.n	8006df4 <__gethex+0x338>
 8006dc4:	2b01      	cmp	r3, #1
 8006dc6:	d109      	bne.n	8006ddc <__gethex+0x320>
 8006dc8:	f019 0f02 	tst.w	r9, #2
 8006dcc:	d006      	beq.n	8006ddc <__gethex+0x320>
 8006dce:	f8da 3000 	ldr.w	r3, [sl]
 8006dd2:	ea49 0903 	orr.w	r9, r9, r3
 8006dd6:	f019 0f01 	tst.w	r9, #1
 8006dda:	d10e      	bne.n	8006dfa <__gethex+0x33e>
 8006ddc:	f045 0510 	orr.w	r5, r5, #16
 8006de0:	e032      	b.n	8006e48 <__gethex+0x38c>
 8006de2:	f04f 0901 	mov.w	r9, #1
 8006de6:	e7d1      	b.n	8006d8c <__gethex+0x2d0>
 8006de8:	2501      	movs	r5, #1
 8006dea:	e7e2      	b.n	8006db2 <__gethex+0x2f6>
 8006dec:	9b0f      	ldr	r3, [sp, #60]	@ 0x3c
 8006dee:	f1c3 0301 	rsb	r3, r3, #1
 8006df2:	930f      	str	r3, [sp, #60]	@ 0x3c
 8006df4:	9b0f      	ldr	r3, [sp, #60]	@ 0x3c
 8006df6:	2b00      	cmp	r3, #0
 8006df8:	d0f0      	beq.n	8006ddc <__gethex+0x320>
 8006dfa:	f8d4 b010 	ldr.w	fp, [r4, #16]
 8006dfe:	f104 0314 	add.w	r3, r4, #20
 8006e02:	ea4f 0a8b 	mov.w	sl, fp, lsl #2
 8006e06:	eb03 018b 	add.w	r1, r3, fp, lsl #2
 8006e0a:	f04f 0c00 	mov.w	ip, #0
 8006e0e:	4618      	mov	r0, r3
 8006e10:	f853 2b04 	ldr.w	r2, [r3], #4
 8006e14:	f1b2 3fff 	cmp.w	r2, #4294967295
 8006e18:	d01b      	beq.n	8006e52 <__gethex+0x396>
 8006e1a:	3201      	adds	r2, #1
 8006e1c:	6002      	str	r2, [r0, #0]
 8006e1e:	2d02      	cmp	r5, #2
 8006e20:	f104 0314 	add.w	r3, r4, #20
 8006e24:	d13c      	bne.n	8006ea0 <__gethex+0x3e4>
 8006e26:	f8d8 2000 	ldr.w	r2, [r8]
 8006e2a:	3a01      	subs	r2, #1
 8006e2c:	42b2      	cmp	r2, r6
 8006e2e:	d109      	bne.n	8006e44 <__gethex+0x388>
 8006e30:	1171      	asrs	r1, r6, #5
 8006e32:	2201      	movs	r2, #1
 8006e34:	f853 3021 	ldr.w	r3, [r3, r1, lsl #2]
 8006e38:	f006 061f 	and.w	r6, r6, #31
 8006e3c:	fa02 f606 	lsl.w	r6, r2, r6
 8006e40:	421e      	tst	r6, r3
 8006e42:	d13a      	bne.n	8006eba <__gethex+0x3fe>
 8006e44:	f045 0520 	orr.w	r5, r5, #32
 8006e48:	9b0e      	ldr	r3, [sp, #56]	@ 0x38
 8006e4a:	601c      	str	r4, [r3, #0]
 8006e4c:	9b02      	ldr	r3, [sp, #8]
 8006e4e:	601f      	str	r7, [r3, #0]
 8006e50:	e6b0      	b.n	8006bb4 <__gethex+0xf8>
 8006e52:	4299      	cmp	r1, r3
 8006e54:	f843 cc04 	str.w	ip, [r3, #-4]
 8006e58:	d8d9      	bhi.n	8006e0e <__gethex+0x352>
 8006e5a:	68a3      	ldr	r3, [r4, #8]
 8006e5c:	459b      	cmp	fp, r3
 8006e5e:	db17      	blt.n	8006e90 <__gethex+0x3d4>
 8006e60:	6861      	ldr	r1, [r4, #4]
 8006e62:	9801      	ldr	r0, [sp, #4]
 8006e64:	3101      	adds	r1, #1
 8006e66:	f000 f9bd 	bl	80071e4 <_Balloc>
 8006e6a:	4681      	mov	r9, r0
 8006e6c:	b918      	cbnz	r0, 8006e76 <__gethex+0x3ba>
 8006e6e:	4b1a      	ldr	r3, [pc, #104]	@ (8006ed8 <__gethex+0x41c>)
 8006e70:	4602      	mov	r2, r0
 8006e72:	2184      	movs	r1, #132	@ 0x84
 8006e74:	e6c5      	b.n	8006c02 <__gethex+0x146>
 8006e76:	6922      	ldr	r2, [r4, #16]
 8006e78:	3202      	adds	r2, #2
 8006e7a:	f104 010c 	add.w	r1, r4, #12
 8006e7e:	0092      	lsls	r2, r2, #2
 8006e80:	300c      	adds	r0, #12
 8006e82:	f7ff fd52 	bl	800692a <memcpy>
 8006e86:	4621      	mov	r1, r4
 8006e88:	9801      	ldr	r0, [sp, #4]
 8006e8a:	f000 f9e9 	bl	8007260 <_Bfree>
 8006e8e:	464c      	mov	r4, r9
 8006e90:	6923      	ldr	r3, [r4, #16]
 8006e92:	1c5a      	adds	r2, r3, #1
 8006e94:	eb04 0383 	add.w	r3, r4, r3, lsl #2
 8006e98:	6122      	str	r2, [r4, #16]
 8006e9a:	2201      	movs	r2, #1
 8006e9c:	615a      	str	r2, [r3, #20]
 8006e9e:	e7be      	b.n	8006e1e <__gethex+0x362>
 8006ea0:	6922      	ldr	r2, [r4, #16]
 8006ea2:	455a      	cmp	r2, fp
 8006ea4:	dd0b      	ble.n	8006ebe <__gethex+0x402>
 8006ea6:	2101      	movs	r1, #1
 8006ea8:	4620      	mov	r0, r4
 8006eaa:	f7ff fd9f 	bl	80069ec <rshift>
 8006eae:	f8d8 3008 	ldr.w	r3, [r8, #8]
 8006eb2:	3701      	adds	r7, #1
 8006eb4:	42bb      	cmp	r3, r7
 8006eb6:	f6ff aee0 	blt.w	8006c7a <__gethex+0x1be>
 8006eba:	2501      	movs	r5, #1
 8006ebc:	e7c2      	b.n	8006e44 <__gethex+0x388>
 8006ebe:	f016 061f 	ands.w	r6, r6, #31
 8006ec2:	d0fa      	beq.n	8006eba <__gethex+0x3fe>
 8006ec4:	4453      	add	r3, sl
 8006ec6:	f1c6 0620 	rsb	r6, r6, #32
 8006eca:	f853 0c04 	ldr.w	r0, [r3, #-4]
 8006ece:	f000 fa79 	bl	80073c4 <__hi0bits>
 8006ed2:	42b0      	cmp	r0, r6
 8006ed4:	dbe7      	blt.n	8006ea6 <__gethex+0x3ea>
 8006ed6:	e7f0      	b.n	8006eba <__gethex+0x3fe>
 8006ed8:	08008e4e 	.word	0x08008e4e

08006edc <L_shift>:
 8006edc:	f1c2 0208 	rsb	r2, r2, #8
 8006ee0:	0092      	lsls	r2, r2, #2
 8006ee2:	b570      	push	{r4, r5, r6, lr}
 8006ee4:	f1c2 0620 	rsb	r6, r2, #32
 8006ee8:	6843      	ldr	r3, [r0, #4]
 8006eea:	6804      	ldr	r4, [r0, #0]
 8006eec:	fa03 f506 	lsl.w	r5, r3, r6
 8006ef0:	432c      	orrs	r4, r5
 8006ef2:	40d3      	lsrs	r3, r2
 8006ef4:	6004      	str	r4, [r0, #0]
 8006ef6:	f840 3f04 	str.w	r3, [r0, #4]!
 8006efa:	4288      	cmp	r0, r1
 8006efc:	d3f4      	bcc.n	8006ee8 <L_shift+0xc>
 8006efe:	bd70      	pop	{r4, r5, r6, pc}

08006f00 <__match>:
 8006f00:	b530      	push	{r4, r5, lr}
 8006f02:	6803      	ldr	r3, [r0, #0]
 8006f04:	3301      	adds	r3, #1
 8006f06:	f811 4b01 	ldrb.w	r4, [r1], #1
 8006f0a:	b914      	cbnz	r4, 8006f12 <__match+0x12>
 8006f0c:	6003      	str	r3, [r0, #0]
 8006f0e:	2001      	movs	r0, #1
 8006f10:	bd30      	pop	{r4, r5, pc}
 8006f12:	f813 2b01 	ldrb.w	r2, [r3], #1
 8006f16:	f1a2 0541 	sub.w	r5, r2, #65	@ 0x41
 8006f1a:	2d19      	cmp	r5, #25
 8006f1c:	bf98      	it	ls
 8006f1e:	3220      	addls	r2, #32
 8006f20:	42a2      	cmp	r2, r4
 8006f22:	d0f0      	beq.n	8006f06 <__match+0x6>
 8006f24:	2000      	movs	r0, #0
 8006f26:	e7f3      	b.n	8006f10 <__match+0x10>

08006f28 <__hexnan>:
 8006f28:	e92d 4ff0 	stmdb	sp!, {r4, r5, r6, r7, r8, r9, sl, fp, lr}
 8006f2c:	680b      	ldr	r3, [r1, #0]
 8006f2e:	6801      	ldr	r1, [r0, #0]
 8006f30:	115e      	asrs	r6, r3, #5
 8006f32:	eb02 0686 	add.w	r6, r2, r6, lsl #2
 8006f36:	f013 031f 	ands.w	r3, r3, #31
 8006f3a:	b087      	sub	sp, #28
 8006f3c:	bf18      	it	ne
 8006f3e:	3604      	addne	r6, #4
 8006f40:	2500      	movs	r5, #0
 8006f42:	1f37      	subs	r7, r6, #4
 8006f44:	4682      	mov	sl, r0
 8006f46:	4690      	mov	r8, r2
 8006f48:	9301      	str	r3, [sp, #4]
 8006f4a:	f846 5c04 	str.w	r5, [r6, #-4]
 8006f4e:	46b9      	mov	r9, r7
 8006f50:	463c      	mov	r4, r7
 8006f52:	9502      	str	r5, [sp, #8]
 8006f54:	46ab      	mov	fp, r5
 8006f56:	784a      	ldrb	r2, [r1, #1]
 8006f58:	1c4b      	adds	r3, r1, #1
 8006f5a:	9303      	str	r3, [sp, #12]
 8006f5c:	b342      	cbz	r2, 8006fb0 <__hexnan+0x88>
 8006f5e:	4610      	mov	r0, r2
 8006f60:	9105      	str	r1, [sp, #20]
 8006f62:	9204      	str	r2, [sp, #16]
 8006f64:	f7ff fd94 	bl	8006a90 <__hexdig_fun>
 8006f68:	2800      	cmp	r0, #0
 8006f6a:	d153      	bne.n	8007014 <__hexnan+0xec>
 8006f6c:	9a04      	ldr	r2, [sp, #16]
 8006f6e:	9905      	ldr	r1, [sp, #20]
 8006f70:	2a20      	cmp	r2, #32
 8006f72:	d818      	bhi.n	8006fa6 <__hexnan+0x7e>
 8006f74:	9b02      	ldr	r3, [sp, #8]
 8006f76:	459b      	cmp	fp, r3
 8006f78:	dd13      	ble.n	8006fa2 <__hexnan+0x7a>
 8006f7a:	454c      	cmp	r4, r9
 8006f7c:	d206      	bcs.n	8006f8c <__hexnan+0x64>
 8006f7e:	2d07      	cmp	r5, #7
 8006f80:	dc04      	bgt.n	8006f8c <__hexnan+0x64>
 8006f82:	462a      	mov	r2, r5
 8006f84:	4649      	mov	r1, r9
 8006f86:	4620      	mov	r0, r4
 8006f88:	f7ff ffa8 	bl	8006edc <L_shift>
 8006f8c:	4544      	cmp	r4, r8
 8006f8e:	d954      	bls.n	800703a <__hexnan+0x112>
 8006f90:	2300      	movs	r3, #0
 8006f92:	f1a4 0904 	sub.w	r9, r4, #4
 8006f96:	f844 3c04 	str.w	r3, [r4, #-4]
 8006f9a:	f8cd b008 	str.w	fp, [sp, #8]
 8006f9e:	464c      	mov	r4, r9
 8006fa0:	461d      	mov	r5, r3
 8006fa2:	9903      	ldr	r1, [sp, #12]
 8006fa4:	e7d7      	b.n	8006f56 <__hexnan+0x2e>
 8006fa6:	2a29      	cmp	r2, #41	@ 0x29
 8006fa8:	d159      	bne.n	800705e <__hexnan+0x136>
 8006faa:	3102      	adds	r1, #2
 8006fac:	f8ca 1000 	str.w	r1, [sl]
 8006fb0:	f1bb 0f00 	cmp.w	fp, #0
 8006fb4:	d053      	beq.n	800705e <__hexnan+0x136>
 8006fb6:	454c      	cmp	r4, r9
 8006fb8:	d206      	bcs.n	8006fc8 <__hexnan+0xa0>
 8006fba:	2d07      	cmp	r5, #7
 8006fbc:	dc04      	bgt.n	8006fc8 <__hexnan+0xa0>
 8006fbe:	462a      	mov	r2, r5
 8006fc0:	4649      	mov	r1, r9
 8006fc2:	4620      	mov	r0, r4
 8006fc4:	f7ff ff8a 	bl	8006edc <L_shift>
 8006fc8:	4544      	cmp	r4, r8
 8006fca:	d938      	bls.n	800703e <__hexnan+0x116>
 8006fcc:	f1a8 0204 	sub.w	r2, r8, #4
 8006fd0:	4623      	mov	r3, r4
 8006fd2:	f853 1b04 	ldr.w	r1, [r3], #4
 8006fd6:	f842 1f04 	str.w	r1, [r2, #4]!
 8006fda:	429f      	cmp	r7, r3
 8006fdc:	d2f9      	bcs.n	8006fd2 <__hexnan+0xaa>
 8006fde:	1b3b      	subs	r3, r7, r4
 8006fe0:	f023 0303 	bic.w	r3, r3, #3
 8006fe4:	3401      	adds	r4, #1
 8006fe6:	3e03      	subs	r6, #3
 8006fe8:	42b4      	cmp	r4, r6
 8006fea:	bf88      	it	hi
 8006fec:	2300      	movhi	r3, #0
 8006fee:	f108 0204 	add.w	r2, r8, #4
 8006ff2:	4413      	add	r3, r2
 8006ff4:	2100      	movs	r1, #0
 8006ff6:	461a      	mov	r2, r3
 8006ff8:	3304      	adds	r3, #4
 8006ffa:	429f      	cmp	r7, r3
 8006ffc:	6011      	str	r1, [r2, #0]
 8006ffe:	d2fa      	bcs.n	8006ff6 <__hexnan+0xce>
 8007000:	683b      	ldr	r3, [r7, #0]
 8007002:	b91b      	cbnz	r3, 800700c <__hexnan+0xe4>
 8007004:	4547      	cmp	r7, r8
 8007006:	d128      	bne.n	800705a <__hexnan+0x132>
 8007008:	2301      	movs	r3, #1
 800700a:	603b      	str	r3, [r7, #0]
 800700c:	2005      	movs	r0, #5
 800700e:	b007      	add	sp, #28
 8007010:	e8bd 8ff0 	ldmia.w	sp!, {r4, r5, r6, r7, r8, r9, sl, fp, pc}
 8007014:	3501      	adds	r5, #1
 8007016:	2d08      	cmp	r5, #8
 8007018:	f10b 0b01 	add.w	fp, fp, #1
 800701c:	dd06      	ble.n	800702c <__hexnan+0x104>
 800701e:	4544      	cmp	r4, r8
 8007020:	d9bf      	bls.n	8006fa2 <__hexnan+0x7a>
 8007022:	2300      	movs	r3, #0
 8007024:	f844 3c04 	str.w	r3, [r4, #-4]
 8007028:	2501      	movs	r5, #1
 800702a:	3c04      	subs	r4, #4
 800702c:	6822      	ldr	r2, [r4, #0]
 800702e:	f000 000f 	and.w	r0, r0, #15
 8007032:	ea40 1002 	orr.w	r0, r0, r2, lsl #4
 8007036:	6020      	str	r0, [r4, #0]
 8007038:	e7b3      	b.n	8006fa2 <__hexnan+0x7a>
 800703a:	2508      	movs	r5, #8
 800703c:	e7b1      	b.n	8006fa2 <__hexnan+0x7a>
 800703e:	9b01      	ldr	r3, [sp, #4]
 8007040:	2b00      	cmp	r3, #0
 8007042:	d0dd      	beq.n	8007000 <__hexnan+0xd8>
 8007044:	f1c3 0320 	rsb	r3, r3, #32
 8007048:	f04f 32ff 	mov.w	r2, #4294967295
 800704c:	40da      	lsrs	r2, r3
 800704e:	f856 3c04 	ldr.w	r3, [r6, #-4]
 8007052:	4013      	ands	r3, r2
 8007054:	f846 3c04 	str.w	r3, [r6, #-4]
 8007058:	e7d2      	b.n	8007000 <__hexnan+0xd8>
 800705a:	3f04      	subs	r7, #4
 800705c:	e7d0      	b.n	8007000 <__hexnan+0xd8>
 800705e:	2004      	movs	r0, #4
 8007060:	e7d5      	b.n	800700e <__hexnan+0xe6>
	...

08007064 <sbrk_aligned>:
 8007064:	b570      	push	{r4, r5, r6, lr}
 8007066:	4e0f      	ldr	r6, [pc, #60]	@ (80070a4 <sbrk_aligned+0x40>)
 8007068:	460c      	mov	r4, r1
 800706a:	6831      	ldr	r1, [r6, #0]
 800706c:	4605      	mov	r5, r0
 800706e:	b911      	cbnz	r1, 8007076 <sbrk_aligned+0x12>
 8007070:	f001 f914 	bl	800829c <_sbrk_r>
 8007074:	6030      	str	r0, [r6, #0]
 8007076:	4621      	mov	r1, r4
 8007078:	4628      	mov	r0, r5
 800707a:	f001 f90f 	bl	800829c <_sbrk_r>
 800707e:	1c43      	adds	r3, r0, #1
 8007080:	d103      	bne.n	800708a <sbrk_aligned+0x26>
 8007082:	f04f 34ff 	mov.w	r4, #4294967295
 8007086:	4620      	mov	r0, r4
 8007088:	bd70      	pop	{r4, r5, r6, pc}
 800708a:	1cc4      	adds	r4, r0, #3
 800708c:	f024 0403 	bic.w	r4, r4, #3
 8007090:	42a0      	cmp	r0, r4
 8007092:	d0f8      	beq.n	8007086 <sbrk_aligned+0x22>
 8007094:	1a21      	subs	r1, r4, r0
 8007096:	4628      	mov	r0, r5
 8007098:	f001 f900 	bl	800829c <_sbrk_r>
 800709c:	3001      	adds	r0, #1
 800709e:	d1f2      	bne.n	8007086 <sbrk_aligned+0x22>
 80070a0:	e7ef      	b.n	8007082 <sbrk_aligned+0x1e>
 80070a2:	bf00      	nop
 80070a4:	200006a8 	.word	0x200006a8

080070a8 <_malloc_r>:
 80070a8:	e92d 43f8 	stmdb	sp!, {r3, r4, r5, r6, r7, r8, r9, lr}
 80070ac:	1ccd      	adds	r5, r1, #3
 80070ae:	f025 0503 	bic.w	r5, r5, #3
 80070b2:	3508      	adds	r5, #8
 80070b4:	2d0c      	cmp	r5, #12
 80070b6:	bf38      	it	cc
 80070b8:	250c      	movcc	r5, #12
 80070ba:	2d00      	cmp	r5, #0
 80070bc:	4606      	mov	r6, r0
 80070be:	db01      	blt.n	80070c4 <_malloc_r+0x1c>
 80070c0:	42a9      	cmp	r1, r5
 80070c2:	d904      	bls.n	80070ce <_malloc_r+0x26>
 80070c4:	230c      	movs	r3, #12
 80070c6:	6033      	str	r3, [r6, #0]
 80070c8:	2000      	movs	r0, #0
 80070ca:	e8bd 83f8 	ldmia.w	sp!, {r3, r4, r5, r6, r7, r8, r9, pc}
 80070ce:	f8df 80d4 	ldr.w	r8, [pc, #212]	@ 80071a4 <_malloc_r+0xfc>
 80070d2:	f000 f87b 	bl	80071cc <__malloc_lock>
 80070d6:	f8d8 3000 	ldr.w	r3, [r8]
 80070da:	461c      	mov	r4, r3
 80070dc:	bb44      	cbnz	r4, 8007130 <_malloc_r+0x88>
 80070de:	4629      	mov	r1, r5
 80070e0:	4630      	mov	r0, r6
 80070e2:	f7ff ffbf 	bl	8007064 <sbrk_aligned>
 80070e6:	1c43      	adds	r3, r0, #1
 80070e8:	4604      	mov	r4, r0
 80070ea:	d158      	bne.n	800719e <_malloc_r+0xf6>
 80070ec:	f8d8 4000 	ldr.w	r4, [r8]
 80070f0:	4627      	mov	r7, r4
 80070f2:	2f00      	cmp	r7, #0
 80070f4:	d143      	bne.n	800717e <_malloc_r+0xd6>
 80070f6:	2c00      	cmp	r4, #0
 80070f8:	d04b      	beq.n	8007192 <_malloc_r+0xea>
 80070fa:	6823      	ldr	r3, [r4, #0]
 80070fc:	4639      	mov	r1, r7
 80070fe:	4630      	mov	r0, r6
 8007100:	eb04 0903 	add.w	r9, r4, r3
 8007104:	f001 f8ca 	bl	800829c <_sbrk_r>
 8007108:	4581      	cmp	r9, r0
 800710a:	d142      	bne.n	8007192 <_malloc_r+0xea>
 800710c:	6821      	ldr	r1, [r4, #0]
 800710e:	1a6d      	subs	r5, r5, r1
 8007110:	4629      	mov	r1, r5
 8007112:	4630      	mov	r0, r6
 8007114:	f7ff ffa6 	bl	8007064 <sbrk_aligned>
 8007118:	3001      	adds	r0, #1
 800711a:	d03a      	beq.n	8007192 <_malloc_r+0xea>
 800711c:	6823      	ldr	r3, [r4, #0]
 800711e:	442b      	add	r3, r5
 8007120:	6023      	str	r3, [r4, #0]
 8007122:	f8d8 3000 	ldr.w	r3, [r8]
 8007126:	685a      	ldr	r2, [r3, #4]
 8007128:	bb62      	cbnz	r2, 8007184 <_malloc_r+0xdc>
 800712a:	f8c8 7000 	str.w	r7, [r8]
 800712e:	e00f      	b.n	8007150 <_malloc_r+0xa8>
 8007130:	6822      	ldr	r2, [r4, #0]
 8007132:	1b52      	subs	r2, r2, r5
 8007134:	d420      	bmi.n	8007178 <_malloc_r+0xd0>
 8007136:	2a0b      	cmp	r2, #11
 8007138:	d917      	bls.n	800716a <_malloc_r+0xc2>
 800713a:	1961      	adds	r1, r4, r5
 800713c:	42a3      	cmp	r3, r4
 800713e:	6025      	str	r5, [r4, #0]
 8007140:	bf18      	it	ne
 8007142:	6059      	strne	r1, [r3, #4]
 8007144:	6863      	ldr	r3, [r4, #4]
 8007146:	bf08      	it	eq
 8007148:	f8c8 1000 	streq.w	r1, [r8]
 800714c:	5162      	str	r2, [r4, r5]
 800714e:	604b      	str	r3, [r1, #4]
 8007150:	4630      	mov	r0, r6
 8007152:	f000 f841 	bl	80071d8 <__malloc_unlock>
 8007156:	f104 000b 	add.w	r0, r4, #11
 800715a:	1d23      	adds	r3, r4, #4
 800715c:	f020 0007 	bic.w	r0, r0, #7
 8007160:	1ac2      	subs	r2, r0, r3
 8007162:	bf1c      	itt	ne
 8007164:	1a1b      	subne	r3, r3, r0
 8007166:	50a3      	strne	r3, [r4, r2]
 8007168:	e7af      	b.n	80070ca <_malloc_r+0x22>
 800716a:	6862      	ldr	r2, [r4, #4]
 800716c:	42a3      	cmp	r3, r4
 800716e:	bf0c      	ite	eq
 8007170:	f8c8 2000 	streq.w	r2, [r8]
 8007174:	605a      	strne	r2, [r3, #4]
 8007176:	e7eb      	b.n	8007150 <_malloc_r+0xa8>
 8007178:	4623      	mov	r3, r4
 800717a:	6864      	ldr	r4, [r4, #4]
 800717c:	e7ae      	b.n	80070dc <_malloc_r+0x34>
 800717e:	463c      	mov	r4, r7
 8007180:	687f      	ldr	r7, [r7, #4]
 8007182:	e7b6      	b.n	80070f2 <_malloc_r+0x4a>
 8007184:	461a      	mov	r2, r3
 8007186:	685b      	ldr	r3, [r3, #4]
 8007188:	42a3      	cmp	r3, r4
 800718a:	d1fb      	bne.n	8007184 <_malloc_r+0xdc>
 800718c:	2300      	movs	r3, #0
 800718e:	6053      	str	r3, [r2, #4]
 8007190:	e7de      	b.n	8007150 <_malloc_r+0xa8>
 8007192:	230c      	movs	r3, #12
 8007194:	6033      	str	r3, [r6, #0]
 8007196:	4630      	mov	r0, r6
 8007198:	f000 f81e 	bl	80071d8 <__malloc_unlock>
 800719c:	e794      	b.n	80070c8 <_malloc_r+0x20>
 800719e:	6005      	str	r5, [r0, #0]
 80071a0:	e7d6      	b.n	8007150 <_malloc_r+0xa8>
 80071a2:	bf00      	nop
 80071a4:	200006ac 	.word	0x200006ac

080071a8 <__ascii_mbtowc>:
 80071a8:	b082      	sub	sp, #8
 80071aa:	b901      	cbnz	r1, 80071ae <__ascii_mbtowc+0x6>
 80071ac:	a901      	add	r1, sp, #4
 80071ae:	b142      	cbz	r2, 80071c2 <__ascii_mbtowc+0x1a>
 80071b0:	b14b      	cbz	r3, 80071c6 <__ascii_mbtowc+0x1e>
 80071b2:	7813      	ldrb	r3, [r2, #0]
 80071b4:	600b      	str	r3, [r1, #0]
 80071b6:	7812      	ldrb	r2, [r2, #0]
 80071b8:	1e10      	subs	r0, r2, #0
 80071ba:	bf18      	it	ne
 80071bc:	2001      	movne	r0, #1
 80071be:	b002      	add	sp, #8
 80071c0:	4770      	bx	lr
 80071c2:	4610      	mov	r0, r2
 80071c4:	e7fb      	b.n	80071be <__ascii_mbtowc+0x16>
 80071c6:	f06f 0001 	mvn.w	r0, #1
 80071ca:	e7f8      	b.n	80071be <__ascii_mbtowc+0x16>

080071cc <__malloc_lock>:
 80071cc:	4801      	ldr	r0, [pc, #4]	@ (80071d4 <__malloc_lock+0x8>)
 80071ce:	f7ff bbaa 	b.w	8006926 <__retarget_lock_acquire_recursive>
 80071d2:	bf00      	nop
 80071d4:	200006a4 	.word	0x200006a4

080071d8 <__malloc_unlock>:
 80071d8:	4801      	ldr	r0, [pc, #4]	@ (80071e0 <__malloc_unlock+0x8>)
 80071da:	f7ff bba5 	b.w	8006928 <__retarget_lock_release_recursive>
 80071de:	bf00      	nop
 80071e0:	200006a4 	.word	0x200006a4

080071e4 <_Balloc>:
 80071e4:	b570      	push	{r4, r5, r6, lr}
 80071e6:	69c4      	ldr	r4, [r0, #28]
 80071e8:	4605      	mov	r5, r0
 80071ea:	460e      	mov	r6, r1
 80071ec:	b984      	cbnz	r4, 8007210 <_Balloc+0x2c>
 80071ee:	2010      	movs	r0, #16
 80071f0:	f001 f896 	bl	8008320 <malloc>
 80071f4:	4604      	mov	r4, r0
 80071f6:	61e8      	str	r0, [r5, #28]
 80071f8:	b928      	cbnz	r0, 8007206 <_Balloc+0x22>
 80071fa:	4602      	mov	r2, r0
 80071fc:	4b16      	ldr	r3, [pc, #88]	@ (8007258 <_Balloc+0x74>)
 80071fe:	4817      	ldr	r0, [pc, #92]	@ (800725c <_Balloc+0x78>)
 8007200:	216b      	movs	r1, #107	@ 0x6b
 8007202:	f001 f85b 	bl	80082bc <__assert_func>
 8007206:	2300      	movs	r3, #0
 8007208:	e9c0 3301 	strd	r3, r3, [r0, #4]
 800720c:	6003      	str	r3, [r0, #0]
 800720e:	60c3      	str	r3, [r0, #12]
 8007210:	68e3      	ldr	r3, [r4, #12]
 8007212:	b953      	cbnz	r3, 800722a <_Balloc+0x46>
 8007214:	2221      	movs	r2, #33	@ 0x21
 8007216:	2104      	movs	r1, #4
 8007218:	4628      	mov	r0, r5
 800721a:	f001 f86d 	bl	80082f8 <_calloc_r>
 800721e:	69eb      	ldr	r3, [r5, #28]
 8007220:	60e0      	str	r0, [r4, #12]
 8007222:	68db      	ldr	r3, [r3, #12]
 8007224:	b90b      	cbnz	r3, 800722a <_Balloc+0x46>
 8007226:	2000      	movs	r0, #0
 8007228:	bd70      	pop	{r4, r5, r6, pc}
 800722a:	f853 0026 	ldr.w	r0, [r3, r6, lsl #2]
 800722e:	b130      	cbz	r0, 800723e <_Balloc+0x5a>
 8007230:	6802      	ldr	r2, [r0, #0]
 8007232:	f843 2026 	str.w	r2, [r3, r6, lsl #2]
 8007236:	2300      	movs	r3, #0
 8007238:	e9c0 3303 	strd	r3, r3, [r0, #12]
 800723c:	e7f4      	b.n	8007228 <_Balloc+0x44>
 800723e:	2101      	movs	r1, #1
 8007240:	fa01 f406 	lsl.w	r4, r1, r6
 8007244:	1d62      	adds	r2, r4, #5
 8007246:	0092      	lsls	r2, r2, #2
 8007248:	4628      	mov	r0, r5
 800724a:	f001 f855 	bl	80082f8 <_calloc_r>
 800724e:	2800      	cmp	r0, #0
 8007250:	d0e9      	beq.n	8007226 <_Balloc+0x42>
 8007252:	e9c0 6401 	strd	r6, r4, [r0, #4]
 8007256:	e7ee      	b.n	8007236 <_Balloc+0x52>
 8007258:	08008ebf 	.word	0x08008ebf
 800725c:	08008ed6 	.word	0x08008ed6

08007260 <_Bfree>:
 8007260:	b570      	push	{r4, r5, r6, lr}
 8007262:	69c6      	ldr	r6, [r0, #28]
 8007264:	4605      	mov	r5, r0
 8007266:	460c      	mov	r4, r1
 8007268:	b976      	cbnz	r6, 8007288 <_Bfree+0x28>
 800726a:	2010      	movs	r0, #16
 800726c:	f001 f858 	bl	8008320 <malloc>
 8007270:	4602      	mov	r2, r0
 8007272:	61e8      	str	r0, [r5, #28]
 8007274:	b920      	cbnz	r0, 8007280 <_Bfree+0x20>
 8007276:	4b09      	ldr	r3, [pc, #36]	@ (800729c <_Bfree+0x3c>)
 8007278:	4809      	ldr	r0, [pc, #36]	@ (80072a0 <_Bfree+0x40>)
 800727a:	218f      	movs	r1, #143	@ 0x8f
 800727c:	f001 f81e 	bl	80082bc <__assert_func>
 8007280:	e9c0 6601 	strd	r6, r6, [r0, #4]
 8007284:	6006      	str	r6, [r0, #0]
 8007286:	60c6      	str	r6, [r0, #12]
 8007288:	b13c      	cbz	r4, 800729a <_Bfree+0x3a>
 800728a:	69eb      	ldr	r3, [r5, #28]
 800728c:	6862      	ldr	r2, [r4, #4]
 800728e:	68db      	ldr	r3, [r3, #12]
 8007290:	f853 1022 	ldr.w	r1, [r3, r2, lsl #2]
 8007294:	6021      	str	r1, [r4, #0]
 8007296:	f843 4022 	str.w	r4, [r3, r2, lsl #2]
 800729a:	bd70      	pop	{r4, r5, r6, pc}
 800729c:	08008ebf 	.word	0x08008ebf
 80072a0:	08008ed6 	.word	0x08008ed6

080072a4 <__multadd>:
 80072a4:	e92d 41f0 	stmdb	sp!, {r4, r5, r6, r7, r8, lr}
 80072a8:	690d      	ldr	r5, [r1, #16]
 80072aa:	4607      	mov	r7, r0
 80072ac:	460c      	mov	r4, r1
 80072ae:	461e      	mov	r6, r3
 80072b0:	f101 0c14 	add.w	ip, r1, #20
 80072b4:	2000      	movs	r0, #0
 80072b6:	f8dc 3000 	ldr.w	r3, [ip]
 80072ba:	b299      	uxth	r1, r3
 80072bc:	fb02 6101 	mla	r1, r2, r1, r6
 80072c0:	0c1e      	lsrs	r6, r3, #16
 80072c2:	0c0b      	lsrs	r3, r1, #16
 80072c4:	fb02 3306 	mla	r3, r2, r6, r3
 80072c8:	b289      	uxth	r1, r1
 80072ca:	3001      	adds	r0, #1
 80072cc:	eb01 4103 	add.w	r1, r1, r3, lsl #16
 80072d0:	4285      	cmp	r5, r0
 80072d2:	f84c 1b04 	str.w	r1, [ip], #4
 80072d6:	ea4f 4613 	mov.w	r6, r3, lsr #16
 80072da:	dcec      	bgt.n	80072b6 <__multadd+0x12>
 80072dc:	b30e      	cbz	r6, 8007322 <__multadd+0x7e>
 80072de:	68a3      	ldr	r3, [r4, #8]
 80072e0:	42ab      	cmp	r3, r5
 80072e2:	dc19      	bgt.n	8007318 <__multadd+0x74>
 80072e4:	6861      	ldr	r1, [r4, #4]
 80072e6:	4638      	mov	r0, r7
 80072e8:	3101      	adds	r1, #1
 80072ea:	f7ff ff7b 	bl	80071e4 <_Balloc>
 80072ee:	4680      	mov	r8, r0
 80072f0:	b928      	cbnz	r0, 80072fe <__multadd+0x5a>
 80072f2:	4602      	mov	r2, r0
 80072f4:	4b0c      	ldr	r3, [pc, #48]	@ (8007328 <__multadd+0x84>)
 80072f6:	480d      	ldr	r0, [pc, #52]	@ (800732c <__multadd+0x88>)
 80072f8:	21ba      	movs	r1, #186	@ 0xba
 80072fa:	f000 ffdf 	bl	80082bc <__assert_func>
 80072fe:	6922      	ldr	r2, [r4, #16]
 8007300:	3202      	adds	r2, #2
 8007302:	f104 010c 	add.w	r1, r4, #12
 8007306:	0092      	lsls	r2, r2, #2
 8007308:	300c      	adds	r0, #12
 800730a:	f7ff fb0e 	bl	800692a <memcpy>
 800730e:	4621      	mov	r1, r4
 8007310:	4638      	mov	r0, r7
 8007312:	f7ff ffa5 	bl	8007260 <_Bfree>
 8007316:	4644      	mov	r4, r8
 8007318:	eb04 0385 	add.w	r3, r4, r5, lsl #2
 800731c:	3501      	adds	r5, #1
 800731e:	615e      	str	r6, [r3, #20]
 8007320:	6125      	str	r5, [r4, #16]
 8007322:	4620      	mov	r0, r4
 8007324:	e8bd 81f0 	ldmia.w	sp!, {r4, r5, r6, r7, r8, pc}
 8007328:	08008e4e 	.word	0x08008e4e
 800732c:	08008ed6 	.word	0x08008ed6

08007330 <__s2b>:
 8007330:	e92d 43f8 	stmdb	sp!, {r3, r4, r5, r6, r7, r8, r9, lr}
 8007334:	460c      	mov	r4, r1
 8007336:	4615      	mov	r5, r2
 8007338:	461f      	mov	r7, r3
 800733a:	2209      	movs	r2, #9
 800733c:	3308      	adds	r3, #8
 800733e:	4606      	mov	r6, r0
 8007340:	fb93 f3f2 	sdiv	r3, r3, r2
 8007344:	2100      	movs	r1, #0
 8007346:	2201      	movs	r2, #1
 8007348:	429a      	cmp	r2, r3
 800734a:	db09      	blt.n	8007360 <__s2b+0x30>
 800734c:	4630      	mov	r0, r6
 800734e:	f7ff ff49 	bl	80071e4 <_Balloc>
 8007352:	b940      	cbnz	r0, 8007366 <__s2b+0x36>
 8007354:	4602      	mov	r2, r0
 8007356:	4b19      	ldr	r3, [pc, #100]	@ (80073bc <__s2b+0x8c>)
 8007358:	4819      	ldr	r0, [pc, #100]	@ (80073c0 <__s2b+0x90>)
 800735a:	21d3      	movs	r1, #211	@ 0xd3
 800735c:	f000 ffae 	bl	80082bc <__assert_func>
 8007360:	0052      	lsls	r2, r2, #1
 8007362:	3101      	adds	r1, #1
 8007364:	e7f0      	b.n	8007348 <__s2b+0x18>
 8007366:	9b08      	ldr	r3, [sp, #32]
 8007368:	6143      	str	r3, [r0, #20]
 800736a:	2d09      	cmp	r5, #9
 800736c:	f04f 0301 	mov.w	r3, #1
 8007370:	6103      	str	r3, [r0, #16]
 8007372:	dd16      	ble.n	80073a2 <__s2b+0x72>
 8007374:	f104 0809 	add.w	r8, r4, #9
 8007378:	46c1      	mov	r9, r8
 800737a:	442c      	add	r4, r5
 800737c:	f819 3b01 	ldrb.w	r3, [r9], #1
 8007380:	4601      	mov	r1, r0
 8007382:	3b30      	subs	r3, #48	@ 0x30
 8007384:	220a      	movs	r2, #10
 8007386:	4630      	mov	r0, r6
 8007388:	f7ff ff8c 	bl	80072a4 <__multadd>
 800738c:	45a1      	cmp	r9, r4
 800738e:	d1f5      	bne.n	800737c <__s2b+0x4c>
 8007390:	44a8      	add	r8, r5
 8007392:	f1a8 0408 	sub.w	r4, r8, #8
 8007396:	1b2d      	subs	r5, r5, r4
 8007398:	1963      	adds	r3, r4, r5
 800739a:	429f      	cmp	r7, r3
 800739c:	dc04      	bgt.n	80073a8 <__s2b+0x78>
 800739e:	e8bd 83f8 	ldmia.w	sp!, {r3, r4, r5, r6, r7, r8, r9, pc}
 80073a2:	340a      	adds	r4, #10
 80073a4:	2509      	movs	r5, #9
 80073a6:	e7f6      	b.n	8007396 <__s2b+0x66>
 80073a8:	f814 3b01 	ldrb.w	r3, [r4], #1
 80073ac:	4601      	mov	r1, r0
 80073ae:	3b30      	subs	r3, #48	@ 0x30
 80073b0:	220a      	movs	r2, #10
 80073b2:	4630      	mov	r0, r6
 80073b4:	f7ff ff76 	bl	80072a4 <__multadd>
 80073b8:	e7ee      	b.n	8007398 <__s2b+0x68>
 80073ba:	bf00      	nop
 80073bc:	08008e4e 	.word	0x08008e4e
 80073c0:	08008ed6 	.word	0x08008ed6

080073c4 <__hi0bits>:
 80073c4:	f5b0 3f80 	cmp.w	r0, #65536	@ 0x10000
 80073c8:	4603      	mov	r3, r0
 80073ca:	bf36      	itet	cc
 80073cc:	0403      	lslcc	r3, r0, #16
 80073ce:	2000      	movcs	r0, #0
 80073d0:	2010      	movcc	r0, #16
 80073d2:	f1b3 7f80 	cmp.w	r3, #16777216	@ 0x1000000
 80073d6:	bf3c      	itt	cc
 80073d8:	021b      	lslcc	r3, r3, #8
 80073da:	3008      	addcc	r0, #8
 80073dc:	f1b3 5f80 	cmp.w	r3, #268435456	@ 0x10000000
 80073e0:	bf3c      	itt	cc
 80073e2:	011b      	lslcc	r3, r3, #4
 80073e4:	3004      	addcc	r0, #4
 80073e6:	f1b3 4f80 	cmp.w	r3, #1073741824	@ 0x40000000
 80073ea:	bf3c      	itt	cc
 80073ec:	009b      	lslcc	r3, r3, #2
 80073ee:	3002      	addcc	r0, #2
 80073f0:	2b00      	cmp	r3, #0
 80073f2:	db05      	blt.n	8007400 <__hi0bits+0x3c>
 80073f4:	f013 4f80 	tst.w	r3, #1073741824	@ 0x40000000
 80073f8:	f100 0001 	add.w	r0, r0, #1
 80073fc:	bf08      	it	eq
 80073fe:	2020      	moveq	r0, #32
 8007400:	4770      	bx	lr

08007402 <__lo0bits>:
 8007402:	6803      	ldr	r3, [r0, #0]
 8007404:	4602      	mov	r2, r0
 8007406:	f013 0007 	ands.w	r0, r3, #7
 800740a:	d00b      	beq.n	8007424 <__lo0bits+0x22>
 800740c:	07d9      	lsls	r1, r3, #31
 800740e:	d421      	bmi.n	8007454 <__lo0bits+0x52>
 8007410:	0798      	lsls	r0, r3, #30
 8007412:	bf49      	itett	mi
 8007414:	085b      	lsrmi	r3, r3, #1
 8007416:	089b      	lsrpl	r3, r3, #2
 8007418:	2001      	movmi	r0, #1
 800741a:	6013      	strmi	r3, [r2, #0]
 800741c:	bf5c      	itt	pl
 800741e:	6013      	strpl	r3, [r2, #0]
 8007420:	2002      	movpl	r0, #2
 8007422:	4770      	bx	lr
 8007424:	b299      	uxth	r1, r3
 8007426:	b909      	cbnz	r1, 800742c <__lo0bits+0x2a>
 8007428:	0c1b      	lsrs	r3, r3, #16
 800742a:	2010      	movs	r0, #16
 800742c:	b2d9      	uxtb	r1, r3
 800742e:	b909      	cbnz	r1, 8007434 <__lo0bits+0x32>
 8007430:	3008      	adds	r0, #8
 8007432:	0a1b      	lsrs	r3, r3, #8
 8007434:	0719      	lsls	r1, r3, #28
 8007436:	bf04      	itt	eq
 8007438:	091b      	lsreq	r3, r3, #4
 800743a:	3004      	addeq	r0, #4
 800743c:	0799      	lsls	r1, r3, #30
 800743e:	bf04      	itt	eq
 8007440:	089b      	lsreq	r3, r3, #2
 8007442:	3002      	addeq	r0, #2
 8007444:	07d9      	lsls	r1, r3, #31
 8007446:	d403      	bmi.n	8007450 <__lo0bits+0x4e>
 8007448:	085b      	lsrs	r3, r3, #1
 800744a:	f100 0001 	add.w	r0, r0, #1
 800744e:	d003      	beq.n	8007458 <__lo0bits+0x56>
 8007450:	6013      	str	r3, [r2, #0]
 8007452:	4770      	bx	lr
 8007454:	2000      	movs	r0, #0
 8007456:	4770      	bx	lr
 8007458:	2020      	movs	r0, #32
 800745a:	4770      	bx	lr

0800745c <__i2b>:
 800745c:	b510      	push	{r4, lr}
 800745e:	460c      	mov	r4, r1
 8007460:	2101      	movs	r1, #1
 8007462:	f7ff febf 	bl	80071e4 <_Balloc>
 8007466:	4602      	mov	r2, r0
 8007468:	b928      	cbnz	r0, 8007476 <__i2b+0x1a>
 800746a:	4b05      	ldr	r3, [pc, #20]	@ (8007480 <__i2b+0x24>)
 800746c:	4805      	ldr	r0, [pc, #20]	@ (8007484 <__i2b+0x28>)
 800746e:	f240 1145 	movw	r1, #325	@ 0x145
 8007472:	f000 ff23 	bl	80082bc <__assert_func>
 8007476:	2301      	movs	r3, #1
 8007478:	6144      	str	r4, [r0, #20]
 800747a:	6103      	str	r3, [r0, #16]
 800747c:	bd10      	pop	{r4, pc}
 800747e:	bf00      	nop
 8007480:	08008e4e 	.word	0x08008e4e
 8007484:	08008ed6 	.word	0x08008ed6

08007488 <__multiply>:
 8007488:	e92d 4ff0 	stmdb	sp!, {r4, r5, r6, r7, r8, r9, sl, fp, lr}
 800748c:	f8d1 9010 	ldr.w	r9, [r1, #16]
 8007490:	f8d2 a010 	ldr.w	sl, [r2, #16]
 8007494:	45d1      	cmp	r9, sl
 8007496:	b085      	sub	sp, #20
 8007498:	4688      	mov	r8, r1
 800749a:	4614      	mov	r4, r2
 800749c:	db04      	blt.n	80074a8 <__multiply+0x20>
 800749e:	4653      	mov	r3, sl
 80074a0:	460c      	mov	r4, r1
 80074a2:	46ca      	mov	sl, r9
 80074a4:	4690      	mov	r8, r2
 80074a6:	4699      	mov	r9, r3
 80074a8:	68a3      	ldr	r3, [r4, #8]
 80074aa:	6861      	ldr	r1, [r4, #4]
 80074ac:	eb0a 0609 	add.w	r6, sl, r9
 80074b0:	42b3      	cmp	r3, r6
 80074b2:	bfb8      	it	lt
 80074b4:	3101      	addlt	r1, #1
 80074b6:	f7ff fe95 	bl	80071e4 <_Balloc>
 80074ba:	b930      	cbnz	r0, 80074ca <__multiply+0x42>
 80074bc:	4602      	mov	r2, r0
 80074be:	4b45      	ldr	r3, [pc, #276]	@ (80075d4 <__multiply+0x14c>)
 80074c0:	4845      	ldr	r0, [pc, #276]	@ (80075d8 <__multiply+0x150>)
 80074c2:	f44f 71b1 	mov.w	r1, #354	@ 0x162
 80074c6:	f000 fef9 	bl	80082bc <__assert_func>
 80074ca:	f100 0514 	add.w	r5, r0, #20
 80074ce:	eb05 0786 	add.w	r7, r5, r6, lsl #2
 80074d2:	462b      	mov	r3, r5
 80074d4:	2200      	movs	r2, #0
 80074d6:	42bb      	cmp	r3, r7
 80074d8:	d31f      	bcc.n	800751a <__multiply+0x92>
 80074da:	f104 0c14 	add.w	ip, r4, #20
 80074de:	f108 0114 	add.w	r1, r8, #20
 80074e2:	eb0c 038a 	add.w	r3, ip, sl, lsl #2
 80074e6:	eb01 0289 	add.w	r2, r1, r9, lsl #2
 80074ea:	9202      	str	r2, [sp, #8]
 80074ec:	1b1a      	subs	r2, r3, r4
 80074ee:	3a15      	subs	r2, #21
 80074f0:	f022 0203 	bic.w	r2, r2, #3
 80074f4:	3415      	adds	r4, #21
 80074f6:	429c      	cmp	r4, r3
 80074f8:	bf88      	it	hi
 80074fa:	2200      	movhi	r2, #0
 80074fc:	9201      	str	r2, [sp, #4]
 80074fe:	9a02      	ldr	r2, [sp, #8]
 8007500:	9103      	str	r1, [sp, #12]
 8007502:	428a      	cmp	r2, r1
 8007504:	d80c      	bhi.n	8007520 <__multiply+0x98>
 8007506:	2e00      	cmp	r6, #0
 8007508:	dd03      	ble.n	8007512 <__multiply+0x8a>
 800750a:	f857 3d04 	ldr.w	r3, [r7, #-4]!
 800750e:	2b00      	cmp	r3, #0
 8007510:	d05d      	beq.n	80075ce <__multiply+0x146>
 8007512:	6106      	str	r6, [r0, #16]
 8007514:	b005      	add	sp, #20
 8007516:	e8bd 8ff0 	ldmia.w	sp!, {r4, r5, r6, r7, r8, r9, sl, fp, pc}
 800751a:	f843 2b04 	str.w	r2, [r3], #4
 800751e:	e7da      	b.n	80074d6 <__multiply+0x4e>
 8007520:	f8b1 a000 	ldrh.w	sl, [r1]
 8007524:	f1ba 0f00 	cmp.w	sl, #0
 8007528:	d024      	beq.n	8007574 <__multiply+0xec>
 800752a:	46e0      	mov	r8, ip
 800752c:	46a9      	mov	r9, r5
 800752e:	f04f 0e00 	mov.w	lr, #0
 8007532:	f858 2b04 	ldr.w	r2, [r8], #4
 8007536:	f8d9 4000 	ldr.w	r4, [r9]
 800753a:	fa1f fb82 	uxth.w	fp, r2
 800753e:	b2a4      	uxth	r4, r4
 8007540:	fb0a 440b 	mla	r4, sl, fp, r4
 8007544:	ea4f 4b12 	mov.w	fp, r2, lsr #16
 8007548:	f8d9 2000 	ldr.w	r2, [r9]
 800754c:	4474      	add	r4, lr
 800754e:	ea4f 4e12 	mov.w	lr, r2, lsr #16
 8007552:	fb0a e20b 	mla	r2, sl, fp, lr
 8007556:	eb02 4214 	add.w	r2, r2, r4, lsr #16
 800755a:	b2a4      	uxth	r4, r4
 800755c:	ea44 4402 	orr.w	r4, r4, r2, lsl #16
 8007560:	4543      	cmp	r3, r8
 8007562:	f849 4b04 	str.w	r4, [r9], #4
 8007566:	ea4f 4e12 	mov.w	lr, r2, lsr #16
 800756a:	d8e2      	bhi.n	8007532 <__multiply+0xaa>
 800756c:	9a01      	ldr	r2, [sp, #4]
 800756e:	18aa      	adds	r2, r5, r2
 8007570:	f8c2 e004 	str.w	lr, [r2, #4]
 8007574:	9a03      	ldr	r2, [sp, #12]
 8007576:	f8b2 8002 	ldrh.w	r8, [r2, #2]
 800757a:	3104      	adds	r1, #4
 800757c:	f1b8 0f00 	cmp.w	r8, #0
 8007580:	d023      	beq.n	80075ca <__multiply+0x142>
 8007582:	682a      	ldr	r2, [r5, #0]
 8007584:	46e6      	mov	lr, ip
 8007586:	4691      	mov	r9, r2
 8007588:	46aa      	mov	sl, r5
 800758a:	f04f 0b00 	mov.w	fp, #0
 800758e:	f8be 4000 	ldrh.w	r4, [lr]
 8007592:	fb08 b404 	mla	r4, r8, r4, fp
 8007596:	eb04 4419 	add.w	r4, r4, r9, lsr #16
 800759a:	b292      	uxth	r2, r2
 800759c:	ea42 4204 	orr.w	r2, r2, r4, lsl #16
 80075a0:	f84a 2b04 	str.w	r2, [sl], #4
 80075a4:	f85e 2b04 	ldr.w	r2, [lr], #4
 80075a8:	f8da 9000 	ldr.w	r9, [sl]
 80075ac:	ea4f 4b12 	mov.w	fp, r2, lsr #16
 80075b0:	fa1f f289 	uxth.w	r2, r9
 80075b4:	fb08 220b 	mla	r2, r8, fp, r2
 80075b8:	eb02 4214 	add.w	r2, r2, r4, lsr #16
 80075bc:	4573      	cmp	r3, lr
 80075be:	ea4f 4b12 	mov.w	fp, r2, lsr #16
 80075c2:	d8e4      	bhi.n	800758e <__multiply+0x106>
 80075c4:	9c01      	ldr	r4, [sp, #4]
 80075c6:	192c      	adds	r4, r5, r4
 80075c8:	6062      	str	r2, [r4, #4]
 80075ca:	3504      	adds	r5, #4
 80075cc:	e797      	b.n	80074fe <__multiply+0x76>
 80075ce:	3e01      	subs	r6, #1
 80075d0:	e799      	b.n	8007506 <__multiply+0x7e>
 80075d2:	bf00      	nop
 80075d4:	08008e4e 	.word	0x08008e4e
 80075d8:	08008ed6 	.word	0x08008ed6

080075dc <__pow5mult>:
 80075dc:	e92d 43f8 	stmdb	sp!, {r3, r4, r5, r6, r7, r8, r9, lr}
 80075e0:	4617      	mov	r7, r2
 80075e2:	f012 0203 	ands.w	r2, r2, #3
 80075e6:	4680      	mov	r8, r0
 80075e8:	460d      	mov	r5, r1
 80075ea:	d007      	beq.n	80075fc <__pow5mult+0x20>
 80075ec:	4c26      	ldr	r4, [pc, #152]	@ (8007688 <__pow5mult+0xac>)
 80075ee:	3a01      	subs	r2, #1
 80075f0:	2300      	movs	r3, #0
 80075f2:	f854 2022 	ldr.w	r2, [r4, r2, lsl #2]
 80075f6:	f7ff fe55 	bl	80072a4 <__multadd>
 80075fa:	4605      	mov	r5, r0
 80075fc:	10bf      	asrs	r7, r7, #2
 80075fe:	d03f      	beq.n	8007680 <__pow5mult+0xa4>
 8007600:	f8d8 401c 	ldr.w	r4, [r8, #28]
 8007604:	b994      	cbnz	r4, 800762c <__pow5mult+0x50>
 8007606:	2010      	movs	r0, #16
 8007608:	f000 fe8a 	bl	8008320 <malloc>
 800760c:	4604      	mov	r4, r0
 800760e:	f8c8 001c 	str.w	r0, [r8, #28]
 8007612:	b930      	cbnz	r0, 8007622 <__pow5mult+0x46>
 8007614:	4602      	mov	r2, r0
 8007616:	4b1d      	ldr	r3, [pc, #116]	@ (800768c <__pow5mult+0xb0>)
 8007618:	481d      	ldr	r0, [pc, #116]	@ (8007690 <__pow5mult+0xb4>)
 800761a:	f240 11b3 	movw	r1, #435	@ 0x1b3
 800761e:	f000 fe4d 	bl	80082bc <__assert_func>
 8007622:	2300      	movs	r3, #0
 8007624:	e9c0 3301 	strd	r3, r3, [r0, #4]
 8007628:	6003      	str	r3, [r0, #0]
 800762a:	60c3      	str	r3, [r0, #12]
 800762c:	68a6      	ldr	r6, [r4, #8]
 800762e:	b946      	cbnz	r6, 8007642 <__pow5mult+0x66>
 8007630:	f240 2171 	movw	r1, #625	@ 0x271
 8007634:	4640      	mov	r0, r8
 8007636:	f7ff ff11 	bl	800745c <__i2b>
 800763a:	2300      	movs	r3, #0
 800763c:	60a0      	str	r0, [r4, #8]
 800763e:	4606      	mov	r6, r0
 8007640:	6003      	str	r3, [r0, #0]
 8007642:	462c      	mov	r4, r5
 8007644:	f04f 0900 	mov.w	r9, #0
 8007648:	f007 0301 	and.w	r3, r7, #1
 800764c:	107f      	asrs	r7, r7, #1
 800764e:	b153      	cbz	r3, 8007666 <__pow5mult+0x8a>
 8007650:	4629      	mov	r1, r5
 8007652:	4632      	mov	r2, r6
 8007654:	4640      	mov	r0, r8
 8007656:	f7ff ff17 	bl	8007488 <__multiply>
 800765a:	4621      	mov	r1, r4
 800765c:	4605      	mov	r5, r0
 800765e:	4640      	mov	r0, r8
 8007660:	f7ff fdfe 	bl	8007260 <_Bfree>
 8007664:	b167      	cbz	r7, 8007680 <__pow5mult+0xa4>
 8007666:	6830      	ldr	r0, [r6, #0]
 8007668:	b938      	cbnz	r0, 800767a <__pow5mult+0x9e>
 800766a:	4632      	mov	r2, r6
 800766c:	4631      	mov	r1, r6
 800766e:	4640      	mov	r0, r8
 8007670:	f7ff ff0a 	bl	8007488 <__multiply>
 8007674:	6030      	str	r0, [r6, #0]
 8007676:	f8c0 9000 	str.w	r9, [r0]
 800767a:	4606      	mov	r6, r0
 800767c:	462c      	mov	r4, r5
 800767e:	e7e3      	b.n	8007648 <__pow5mult+0x6c>
 8007680:	4628      	mov	r0, r5
 8007682:	e8bd 83f8 	ldmia.w	sp!, {r3, r4, r5, r6, r7, r8, r9, pc}
 8007686:	bf00      	nop
 8007688:	080090f4 	.word	0x080090f4
 800768c:	08008ebf 	.word	0x08008ebf
 8007690:	08008ed6 	.word	0x08008ed6

08007694 <__lshift>:
 8007694:	e92d 4ff8 	stmdb	sp!, {r3, r4, r5, r6, r7, r8, r9, sl, fp, lr}
 8007698:	460c      	mov	r4, r1
 800769a:	6849      	ldr	r1, [r1, #4]
 800769c:	6923      	ldr	r3, [r4, #16]
 800769e:	eb03 1862 	add.w	r8, r3, r2, asr #5
 80076a2:	68a3      	ldr	r3, [r4, #8]
 80076a4:	4607      	mov	r7, r0
 80076a6:	4615      	mov	r5, r2
 80076a8:	ea4f 1a62 	mov.w	sl, r2, asr #5
 80076ac:	f108 0901 	add.w	r9, r8, #1
 80076b0:	454b      	cmp	r3, r9
 80076b2:	db0b      	blt.n	80076cc <__lshift+0x38>
 80076b4:	4638      	mov	r0, r7
 80076b6:	f7ff fd95 	bl	80071e4 <_Balloc>
 80076ba:	4606      	mov	r6, r0
 80076bc:	b948      	cbnz	r0, 80076d2 <__lshift+0x3e>
 80076be:	4602      	mov	r2, r0
 80076c0:	4b29      	ldr	r3, [pc, #164]	@ (8007768 <__lshift+0xd4>)
 80076c2:	482a      	ldr	r0, [pc, #168]	@ (800776c <__lshift+0xd8>)
 80076c4:	f44f 71ef 	mov.w	r1, #478	@ 0x1de
 80076c8:	f000 fdf8 	bl	80082bc <__assert_func>
 80076cc:	3101      	adds	r1, #1
 80076ce:	005b      	lsls	r3, r3, #1
 80076d0:	e7ee      	b.n	80076b0 <__lshift+0x1c>
 80076d2:	2300      	movs	r3, #0
 80076d4:	f100 0c14 	add.w	ip, r0, #20
 80076d8:	f100 0210 	add.w	r2, r0, #16
 80076dc:	4619      	mov	r1, r3
 80076de:	4553      	cmp	r3, sl
 80076e0:	db35      	blt.n	800774e <__lshift+0xba>
 80076e2:	6922      	ldr	r2, [r4, #16]
 80076e4:	ea2a 7aea 	bic.w	sl, sl, sl, asr #31
 80076e8:	eb0c 0c8a 	add.w	ip, ip, sl, lsl #2
 80076ec:	f104 0314 	add.w	r3, r4, #20
 80076f0:	f015 0e1f 	ands.w	lr, r5, #31
 80076f4:	4661      	mov	r1, ip
 80076f6:	eb03 0282 	add.w	r2, r3, r2, lsl #2
 80076fa:	d02c      	beq.n	8007756 <__lshift+0xc2>
 80076fc:	f1ce 0a20 	rsb	sl, lr, #32
 8007700:	2500      	movs	r5, #0
 8007702:	6818      	ldr	r0, [r3, #0]
 8007704:	468b      	mov	fp, r1
 8007706:	fa00 f00e 	lsl.w	r0, r0, lr
 800770a:	4328      	orrs	r0, r5
 800770c:	f8cb 0000 	str.w	r0, [fp]
 8007710:	f853 5b04 	ldr.w	r5, [r3], #4
 8007714:	429a      	cmp	r2, r3
 8007716:	f101 0104 	add.w	r1, r1, #4
 800771a:	fa25 f50a 	lsr.w	r5, r5, sl
 800771e:	d8f0      	bhi.n	8007702 <__lshift+0x6e>
 8007720:	1b13      	subs	r3, r2, r4
 8007722:	3b15      	subs	r3, #21
 8007724:	f023 0303 	bic.w	r3, r3, #3
 8007728:	f104 0115 	add.w	r1, r4, #21
 800772c:	428a      	cmp	r2, r1
 800772e:	bf38      	it	cc
 8007730:	2300      	movcc	r3, #0
 8007732:	449c      	add	ip, r3
 8007734:	f8cc 5004 	str.w	r5, [ip, #4]
 8007738:	b905      	cbnz	r5, 800773c <__lshift+0xa8>
 800773a:	46c1      	mov	r9, r8
 800773c:	4638      	mov	r0, r7
 800773e:	f8c6 9010 	str.w	r9, [r6, #16]
 8007742:	4621      	mov	r1, r4
 8007744:	f7ff fd8c 	bl	8007260 <_Bfree>
 8007748:	4630      	mov	r0, r6
 800774a:	e8bd 8ff8 	ldmia.w	sp!, {r3, r4, r5, r6, r7, r8, r9, sl, fp, pc}
 800774e:	f842 1f04 	str.w	r1, [r2, #4]!
 8007752:	3301      	adds	r3, #1
 8007754:	e7c3      	b.n	80076de <__lshift+0x4a>
 8007756:	f853 5b04 	ldr.w	r5, [r3], #4
 800775a:	600d      	str	r5, [r1, #0]
 800775c:	429a      	cmp	r2, r3
 800775e:	f101 0104 	add.w	r1, r1, #4
 8007762:	d8f8      	bhi.n	8007756 <__lshift+0xc2>
 8007764:	e7e9      	b.n	800773a <__lshift+0xa6>
 8007766:	bf00      	nop
 8007768:	08008e4e 	.word	0x08008e4e
 800776c:	08008ed6 	.word	0x08008ed6

08007770 <__mcmp>:
 8007770:	690a      	ldr	r2, [r1, #16]
 8007772:	4603      	mov	r3, r0
 8007774:	6900      	ldr	r0, [r0, #16]
 8007776:	1a80      	subs	r0, r0, r2
 8007778:	b530      	push	{r4, r5, lr}
 800777a:	d10e      	bne.n	800779a <__mcmp+0x2a>
 800777c:	3314      	adds	r3, #20
 800777e:	3114      	adds	r1, #20
 8007780:	eb03 0482 	add.w	r4, r3, r2, lsl #2
 8007784:	eb01 0182 	add.w	r1, r1, r2, lsl #2
 8007788:	f854 5d04 	ldr.w	r5, [r4, #-4]!
 800778c:	f851 2d04 	ldr.w	r2, [r1, #-4]!
 8007790:	4295      	cmp	r5, r2
 8007792:	d003      	beq.n	800779c <__mcmp+0x2c>
 8007794:	d205      	bcs.n	80077a2 <__mcmp+0x32>
 8007796:	f04f 30ff 	mov.w	r0, #4294967295
 800779a:	bd30      	pop	{r4, r5, pc}
 800779c:	42a3      	cmp	r3, r4
 800779e:	d3f3      	bcc.n	8007788 <__mcmp+0x18>
 80077a0:	e7fb      	b.n	800779a <__mcmp+0x2a>
 80077a2:	2001      	movs	r0, #1
 80077a4:	e7f9      	b.n	800779a <__mcmp+0x2a>
	...

080077a8 <__mdiff>:
 80077a8:	e92d 4ff7 	stmdb	sp!, {r0, r1, r2, r4, r5, r6, r7, r8, r9, sl, fp, lr}
 80077ac:	468a      	mov	sl, r1
 80077ae:	4606      	mov	r6, r0
 80077b0:	4611      	mov	r1, r2
 80077b2:	4650      	mov	r0, sl
 80077b4:	4614      	mov	r4, r2
 80077b6:	f7ff ffdb 	bl	8007770 <__mcmp>
 80077ba:	1e05      	subs	r5, r0, #0
 80077bc:	d112      	bne.n	80077e4 <__mdiff+0x3c>
 80077be:	4629      	mov	r1, r5
 80077c0:	4630      	mov	r0, r6
 80077c2:	f7ff fd0f 	bl	80071e4 <_Balloc>
 80077c6:	4602      	mov	r2, r0
 80077c8:	b928      	cbnz	r0, 80077d6 <__mdiff+0x2e>
 80077ca:	4b41      	ldr	r3, [pc, #260]	@ (80078d0 <__mdiff+0x128>)
 80077cc:	f240 2137 	movw	r1, #567	@ 0x237
 80077d0:	4840      	ldr	r0, [pc, #256]	@ (80078d4 <__mdiff+0x12c>)
 80077d2:	f000 fd73 	bl	80082bc <__assert_func>
 80077d6:	2301      	movs	r3, #1
 80077d8:	e9c0 3504 	strd	r3, r5, [r0, #16]
 80077dc:	4610      	mov	r0, r2
 80077de:	b003      	add	sp, #12
 80077e0:	e8bd 8ff0 	ldmia.w	sp!, {r4, r5, r6, r7, r8, r9, sl, fp, pc}
 80077e4:	bfbc      	itt	lt
 80077e6:	4653      	movlt	r3, sl
 80077e8:	46a2      	movlt	sl, r4
 80077ea:	4630      	mov	r0, r6
 80077ec:	f8da 1004 	ldr.w	r1, [sl, #4]
 80077f0:	bfba      	itte	lt
 80077f2:	461c      	movlt	r4, r3
 80077f4:	2501      	movlt	r5, #1
 80077f6:	2500      	movge	r5, #0
 80077f8:	f7ff fcf4 	bl	80071e4 <_Balloc>
 80077fc:	4602      	mov	r2, r0
 80077fe:	b918      	cbnz	r0, 8007808 <__mdiff+0x60>
 8007800:	4b33      	ldr	r3, [pc, #204]	@ (80078d0 <__mdiff+0x128>)
 8007802:	f240 2145 	movw	r1, #581	@ 0x245
 8007806:	e7e3      	b.n	80077d0 <__mdiff+0x28>
 8007808:	f8da 7010 	ldr.w	r7, [sl, #16]
 800780c:	6926      	ldr	r6, [r4, #16]
 800780e:	60c5      	str	r5, [r0, #12]
 8007810:	f10a 0914 	add.w	r9, sl, #20
 8007814:	f104 0e14 	add.w	lr, r4, #20
 8007818:	f100 0514 	add.w	r5, r0, #20
 800781c:	f10a 0310 	add.w	r3, sl, #16
 8007820:	eb09 0887 	add.w	r8, r9, r7, lsl #2
 8007824:	eb0e 0686 	add.w	r6, lr, r6, lsl #2
 8007828:	9301      	str	r3, [sp, #4]
 800782a:	46ab      	mov	fp, r5
 800782c:	f04f 0c00 	mov.w	ip, #0
 8007830:	9b01      	ldr	r3, [sp, #4]
 8007832:	f85e 0b04 	ldr.w	r0, [lr], #4
 8007836:	f853 af04 	ldr.w	sl, [r3, #4]!
 800783a:	9301      	str	r3, [sp, #4]
 800783c:	fa1f f38a 	uxth.w	r3, sl
 8007840:	4619      	mov	r1, r3
 8007842:	b283      	uxth	r3, r0
 8007844:	1acb      	subs	r3, r1, r3
 8007846:	0c00      	lsrs	r0, r0, #16
 8007848:	4463      	add	r3, ip
 800784a:	ebc0 401a 	rsb	r0, r0, sl, lsr #16
 800784e:	eb00 4023 	add.w	r0, r0, r3, asr #16
 8007852:	b29b      	uxth	r3, r3
 8007854:	ea43 4300 	orr.w	r3, r3, r0, lsl #16
 8007858:	4576      	cmp	r6, lr
 800785a:	f84b 3b04 	str.w	r3, [fp], #4
 800785e:	ea4f 4c20 	mov.w	ip, r0, asr #16
 8007862:	d8e5      	bhi.n	8007830 <__mdiff+0x88>
 8007864:	1b33      	subs	r3, r6, r4
 8007866:	3b15      	subs	r3, #21
 8007868:	3415      	adds	r4, #21
 800786a:	f023 0303 	bic.w	r3, r3, #3
 800786e:	42a6      	cmp	r6, r4
 8007870:	bf38      	it	cc
 8007872:	2300      	movcc	r3, #0
 8007874:	18e8      	adds	r0, r5, r3
 8007876:	444b      	add	r3, r9
 8007878:	1d1c      	adds	r4, r3, #4
 800787a:	3004      	adds	r0, #4
 800787c:	4626      	mov	r6, r4
 800787e:	eba5 0509 	sub.w	r5, r5, r9
 8007882:	4546      	cmp	r6, r8
 8007884:	eb06 0e05 	add.w	lr, r6, r5
 8007888:	d30e      	bcc.n	80078a8 <__mdiff+0x100>
 800788a:	f108 0103 	add.w	r1, r8, #3
 800788e:	1b09      	subs	r1, r1, r4
 8007890:	f021 0103 	bic.w	r1, r1, #3
 8007894:	3301      	adds	r3, #1
 8007896:	4598      	cmp	r8, r3
 8007898:	bf38      	it	cc
 800789a:	2100      	movcc	r1, #0
 800789c:	4401      	add	r1, r0
 800789e:	f851 3d04 	ldr.w	r3, [r1, #-4]!
 80078a2:	b19b      	cbz	r3, 80078cc <__mdiff+0x124>
 80078a4:	6117      	str	r7, [r2, #16]
 80078a6:	e799      	b.n	80077dc <__mdiff+0x34>
 80078a8:	f856 1b04 	ldr.w	r1, [r6], #4
 80078ac:	46e2      	mov	sl, ip
 80078ae:	ea4f 4911 	mov.w	r9, r1, lsr #16
 80078b2:	fa1c fc81 	uxtah	ip, ip, r1
 80078b6:	4451      	add	r1, sl
 80078b8:	eb09 492c 	add.w	r9, r9, ip, asr #16
 80078bc:	b289      	uxth	r1, r1
 80078be:	ea41 4109 	orr.w	r1, r1, r9, lsl #16
 80078c2:	ea4f 4c29 	mov.w	ip, r9, asr #16
 80078c6:	f8ce 1000 	str.w	r1, [lr]
 80078ca:	e7da      	b.n	8007882 <__mdiff+0xda>
 80078cc:	3f01      	subs	r7, #1
 80078ce:	e7e6      	b.n	800789e <__mdiff+0xf6>
 80078d0:	08008e4e 	.word	0x08008e4e
 80078d4:	08008ed6 	.word	0x08008ed6

080078d8 <__ulp>:
 80078d8:	b082      	sub	sp, #8
 80078da:	ed8d 0b00 	vstr	d0, [sp]
 80078de:	9a01      	ldr	r2, [sp, #4]
 80078e0:	4b0f      	ldr	r3, [pc, #60]	@ (8007920 <__ulp+0x48>)
 80078e2:	4013      	ands	r3, r2
 80078e4:	f1a3 7350 	sub.w	r3, r3, #54525952	@ 0x3400000
 80078e8:	2b00      	cmp	r3, #0
 80078ea:	dc08      	bgt.n	80078fe <__ulp+0x26>
 80078ec:	425b      	negs	r3, r3
 80078ee:	f1b3 7fa0 	cmp.w	r3, #20971520	@ 0x1400000
 80078f2:	ea4f 5223 	mov.w	r2, r3, asr #20
 80078f6:	da04      	bge.n	8007902 <__ulp+0x2a>
 80078f8:	f44f 2300 	mov.w	r3, #524288	@ 0x80000
 80078fc:	4113      	asrs	r3, r2
 80078fe:	2200      	movs	r2, #0
 8007900:	e008      	b.n	8007914 <__ulp+0x3c>
 8007902:	f1a2 0314 	sub.w	r3, r2, #20
 8007906:	2b1e      	cmp	r3, #30
 8007908:	bfda      	itte	le
 800790a:	f04f 4200 	movle.w	r2, #2147483648	@ 0x80000000
 800790e:	40da      	lsrle	r2, r3
 8007910:	2201      	movgt	r2, #1
 8007912:	2300      	movs	r3, #0
 8007914:	4619      	mov	r1, r3
 8007916:	4610      	mov	r0, r2
 8007918:	ec41 0b10 	vmov	d0, r0, r1
 800791c:	b002      	add	sp, #8
 800791e:	4770      	bx	lr
 8007920:	7ff00000 	.word	0x7ff00000

08007924 <__b2d>:
 8007924:	e92d 41f0 	stmdb	sp!, {r4, r5, r6, r7, r8, lr}
 8007928:	6906      	ldr	r6, [r0, #16]
 800792a:	f100 0814 	add.w	r8, r0, #20
 800792e:	eb08 0686 	add.w	r6, r8, r6, lsl #2
 8007932:	1f37      	subs	r7, r6, #4
 8007934:	f856 2c04 	ldr.w	r2, [r6, #-4]
 8007938:	4610      	mov	r0, r2
 800793a:	f7ff fd43 	bl	80073c4 <__hi0bits>
 800793e:	f1c0 0320 	rsb	r3, r0, #32
 8007942:	280a      	cmp	r0, #10
 8007944:	600b      	str	r3, [r1, #0]
 8007946:	491b      	ldr	r1, [pc, #108]	@ (80079b4 <__b2d+0x90>)
 8007948:	dc15      	bgt.n	8007976 <__b2d+0x52>
 800794a:	f1c0 0c0b 	rsb	ip, r0, #11
 800794e:	fa22 f30c 	lsr.w	r3, r2, ip
 8007952:	45b8      	cmp	r8, r7
 8007954:	ea43 0501 	orr.w	r5, r3, r1
 8007958:	bf34      	ite	cc
 800795a:	f856 3c08 	ldrcc.w	r3, [r6, #-8]
 800795e:	2300      	movcs	r3, #0
 8007960:	3015      	adds	r0, #21
 8007962:	fa02 f000 	lsl.w	r0, r2, r0
 8007966:	fa23 f30c 	lsr.w	r3, r3, ip
 800796a:	4303      	orrs	r3, r0
 800796c:	461c      	mov	r4, r3
 800796e:	ec45 4b10 	vmov	d0, r4, r5
 8007972:	e8bd 81f0 	ldmia.w	sp!, {r4, r5, r6, r7, r8, pc}
 8007976:	45b8      	cmp	r8, r7
 8007978:	bf3a      	itte	cc
 800797a:	f856 3c08 	ldrcc.w	r3, [r6, #-8]
 800797e:	f1a6 0708 	subcc.w	r7, r6, #8
 8007982:	2300      	movcs	r3, #0
 8007984:	380b      	subs	r0, #11
 8007986:	d012      	beq.n	80079ae <__b2d+0x8a>
 8007988:	f1c0 0120 	rsb	r1, r0, #32
 800798c:	fa23 f401 	lsr.w	r4, r3, r1
 8007990:	4082      	lsls	r2, r0
 8007992:	4322      	orrs	r2, r4
 8007994:	4547      	cmp	r7, r8
 8007996:	f042 557f 	orr.w	r5, r2, #1069547520	@ 0x3fc00000
 800799a:	bf8c      	ite	hi
 800799c:	f857 2c04 	ldrhi.w	r2, [r7, #-4]
 80079a0:	2200      	movls	r2, #0
 80079a2:	4083      	lsls	r3, r0
 80079a4:	40ca      	lsrs	r2, r1
 80079a6:	f445 1540 	orr.w	r5, r5, #3145728	@ 0x300000
 80079aa:	4313      	orrs	r3, r2
 80079ac:	e7de      	b.n	800796c <__b2d+0x48>
 80079ae:	ea42 0501 	orr.w	r5, r2, r1
 80079b2:	e7db      	b.n	800796c <__b2d+0x48>
 80079b4:	3ff00000 	.word	0x3ff00000

080079b8 <__d2b>:
 80079b8:	e92d 43f7 	stmdb	sp!, {r0, r1, r2, r4, r5, r6, r7, r8, r9, lr}
 80079bc:	460f      	mov	r7, r1
 80079be:	2101      	movs	r1, #1
 80079c0:	ec59 8b10 	vmov	r8, r9, d0
 80079c4:	4616      	mov	r6, r2
 80079c6:	f7ff fc0d 	bl	80071e4 <_Balloc>
 80079ca:	4604      	mov	r4, r0
 80079cc:	b930      	cbnz	r0, 80079dc <__d2b+0x24>
 80079ce:	4602      	mov	r2, r0
 80079d0:	4b23      	ldr	r3, [pc, #140]	@ (8007a60 <__d2b+0xa8>)
 80079d2:	4824      	ldr	r0, [pc, #144]	@ (8007a64 <__d2b+0xac>)
 80079d4:	f240 310f 	movw	r1, #783	@ 0x30f
 80079d8:	f000 fc70 	bl	80082bc <__assert_func>
 80079dc:	f3c9 550a 	ubfx	r5, r9, #20, #11
 80079e0:	f3c9 0313 	ubfx	r3, r9, #0, #20
 80079e4:	b10d      	cbz	r5, 80079ea <__d2b+0x32>
 80079e6:	f443 1380 	orr.w	r3, r3, #1048576	@ 0x100000
 80079ea:	9301      	str	r3, [sp, #4]
 80079ec:	f1b8 0300 	subs.w	r3, r8, #0
 80079f0:	d023      	beq.n	8007a3a <__d2b+0x82>
 80079f2:	4668      	mov	r0, sp
 80079f4:	9300      	str	r3, [sp, #0]
 80079f6:	f7ff fd04 	bl	8007402 <__lo0bits>
 80079fa:	9900      	ldr	r1, [sp, #0]
 80079fc:	b1d8      	cbz	r0, 8007a36 <__d2b+0x7e>
 80079fe:	9a01      	ldr	r2, [sp, #4]
 8007a00:	f1c0 0320 	rsb	r3, r0, #32
 8007a04:	fa02 f303 	lsl.w	r3, r2, r3
 8007a08:	430b      	orrs	r3, r1
 8007a0a:	40c2      	lsrs	r2, r0
 8007a0c:	6163      	str	r3, [r4, #20]
 8007a0e:	9201      	str	r2, [sp, #4]
 8007a10:	9b01      	ldr	r3, [sp, #4]
 8007a12:	61a3      	str	r3, [r4, #24]
 8007a14:	2b00      	cmp	r3, #0
 8007a16:	bf0c      	ite	eq
 8007a18:	2201      	moveq	r2, #1
 8007a1a:	2202      	movne	r2, #2
 8007a1c:	6122      	str	r2, [r4, #16]
 8007a1e:	b1a5      	cbz	r5, 8007a4a <__d2b+0x92>
 8007a20:	f2a5 4533 	subw	r5, r5, #1075	@ 0x433
 8007a24:	4405      	add	r5, r0
 8007a26:	603d      	str	r5, [r7, #0]
 8007a28:	f1c0 0035 	rsb	r0, r0, #53	@ 0x35
 8007a2c:	6030      	str	r0, [r6, #0]
 8007a2e:	4620      	mov	r0, r4
 8007a30:	b003      	add	sp, #12
 8007a32:	e8bd 83f0 	ldmia.w	sp!, {r4, r5, r6, r7, r8, r9, pc}
 8007a36:	6161      	str	r1, [r4, #20]
 8007a38:	e7ea      	b.n	8007a10 <__d2b+0x58>
 8007a3a:	a801      	add	r0, sp, #4
 8007a3c:	f7ff fce1 	bl	8007402 <__lo0bits>
 8007a40:	9b01      	ldr	r3, [sp, #4]
 8007a42:	6163      	str	r3, [r4, #20]
 8007a44:	3020      	adds	r0, #32
 8007a46:	2201      	movs	r2, #1
 8007a48:	e7e8      	b.n	8007a1c <__d2b+0x64>
 8007a4a:	eb04 0382 	add.w	r3, r4, r2, lsl #2
 8007a4e:	f2a0 4032 	subw	r0, r0, #1074	@ 0x432
 8007a52:	6038      	str	r0, [r7, #0]
 8007a54:	6918      	ldr	r0, [r3, #16]
 8007a56:	f7ff fcb5 	bl	80073c4 <__hi0bits>
 8007a5a:	ebc0 1042 	rsb	r0, r0, r2, lsl #5
 8007a5e:	e7e5      	b.n	8007a2c <__d2b+0x74>
 8007a60:	08008e4e 	.word	0x08008e4e
 8007a64:	08008ed6 	.word	0x08008ed6

08007a68 <__ratio>:
 8007a68:	e92d 4ff0 	stmdb	sp!, {r4, r5, r6, r7, r8, r9, sl, fp, lr}
 8007a6c:	b085      	sub	sp, #20
 8007a6e:	e9cd 1000 	strd	r1, r0, [sp]
 8007a72:	a902      	add	r1, sp, #8
 8007a74:	f7ff ff56 	bl	8007924 <__b2d>
 8007a78:	9800      	ldr	r0, [sp, #0]
 8007a7a:	a903      	add	r1, sp, #12
 8007a7c:	ec55 4b10 	vmov	r4, r5, d0
 8007a80:	f7ff ff50 	bl	8007924 <__b2d>
 8007a84:	9b01      	ldr	r3, [sp, #4]
 8007a86:	6919      	ldr	r1, [r3, #16]
 8007a88:	9b00      	ldr	r3, [sp, #0]
 8007a8a:	691b      	ldr	r3, [r3, #16]
 8007a8c:	1ac9      	subs	r1, r1, r3
 8007a8e:	e9dd 3202 	ldrd	r3, r2, [sp, #8]
 8007a92:	1a9b      	subs	r3, r3, r2
 8007a94:	ec5b ab10 	vmov	sl, fp, d0
 8007a98:	eb03 1341 	add.w	r3, r3, r1, lsl #5
 8007a9c:	2b00      	cmp	r3, #0
 8007a9e:	bfce      	itee	gt
 8007aa0:	462a      	movgt	r2, r5
 8007aa2:	ebc3 3303 	rsble	r3, r3, r3, lsl #12
 8007aa6:	465a      	movle	r2, fp
 8007aa8:	462f      	mov	r7, r5
 8007aaa:	46d9      	mov	r9, fp
 8007aac:	bfcc      	ite	gt
 8007aae:	eb02 5703 	addgt.w	r7, r2, r3, lsl #20
 8007ab2:	eb02 5903 	addle.w	r9, r2, r3, lsl #20
 8007ab6:	464b      	mov	r3, r9
 8007ab8:	4652      	mov	r2, sl
 8007aba:	4620      	mov	r0, r4
 8007abc:	4639      	mov	r1, r7
 8007abe:	f7f8 fee5 	bl	800088c <__aeabi_ddiv>
 8007ac2:	ec41 0b10 	vmov	d0, r0, r1
 8007ac6:	b005      	add	sp, #20
 8007ac8:	e8bd 8ff0 	ldmia.w	sp!, {r4, r5, r6, r7, r8, r9, sl, fp, pc}

08007acc <__copybits>:
 8007acc:	3901      	subs	r1, #1
 8007ace:	b570      	push	{r4, r5, r6, lr}
 8007ad0:	1149      	asrs	r1, r1, #5
 8007ad2:	6914      	ldr	r4, [r2, #16]
 8007ad4:	3101      	adds	r1, #1
 8007ad6:	f102 0314 	add.w	r3, r2, #20
 8007ada:	eb00 0181 	add.w	r1, r0, r1, lsl #2
 8007ade:	eb03 0484 	add.w	r4, r3, r4, lsl #2
 8007ae2:	1f05      	subs	r5, r0, #4
 8007ae4:	42a3      	cmp	r3, r4
 8007ae6:	d30c      	bcc.n	8007b02 <__copybits+0x36>
 8007ae8:	1aa3      	subs	r3, r4, r2
 8007aea:	3b11      	subs	r3, #17
 8007aec:	f023 0303 	bic.w	r3, r3, #3
 8007af0:	3211      	adds	r2, #17
 8007af2:	4294      	cmp	r4, r2
 8007af4:	bf38      	it	cc
 8007af6:	2300      	movcc	r3, #0
 8007af8:	4418      	add	r0, r3
 8007afa:	2300      	movs	r3, #0
 8007afc:	4288      	cmp	r0, r1
 8007afe:	d305      	bcc.n	8007b0c <__copybits+0x40>
 8007b00:	bd70      	pop	{r4, r5, r6, pc}
 8007b02:	f853 6b04 	ldr.w	r6, [r3], #4
 8007b06:	f845 6f04 	str.w	r6, [r5, #4]!
 8007b0a:	e7eb      	b.n	8007ae4 <__copybits+0x18>
 8007b0c:	f840 3b04 	str.w	r3, [r0], #4
 8007b10:	e7f4      	b.n	8007afc <__copybits+0x30>

08007b12 <__any_on>:
 8007b12:	f100 0214 	add.w	r2, r0, #20
 8007b16:	6900      	ldr	r0, [r0, #16]
 8007b18:	114b      	asrs	r3, r1, #5
 8007b1a:	4298      	cmp	r0, r3
 8007b1c:	b510      	push	{r4, lr}
 8007b1e:	db11      	blt.n	8007b44 <__any_on+0x32>
 8007b20:	dd0a      	ble.n	8007b38 <__any_on+0x26>
 8007b22:	f011 011f 	ands.w	r1, r1, #31
 8007b26:	d007      	beq.n	8007b38 <__any_on+0x26>
 8007b28:	f852 4023 	ldr.w	r4, [r2, r3, lsl #2]
 8007b2c:	fa24 f001 	lsr.w	r0, r4, r1
 8007b30:	fa00 f101 	lsl.w	r1, r0, r1
 8007b34:	428c      	cmp	r4, r1
 8007b36:	d10b      	bne.n	8007b50 <__any_on+0x3e>
 8007b38:	eb02 0383 	add.w	r3, r2, r3, lsl #2
 8007b3c:	4293      	cmp	r3, r2
 8007b3e:	d803      	bhi.n	8007b48 <__any_on+0x36>
 8007b40:	2000      	movs	r0, #0
 8007b42:	bd10      	pop	{r4, pc}
 8007b44:	4603      	mov	r3, r0
 8007b46:	e7f7      	b.n	8007b38 <__any_on+0x26>
 8007b48:	f853 1d04 	ldr.w	r1, [r3, #-4]!
 8007b4c:	2900      	cmp	r1, #0
 8007b4e:	d0f5      	beq.n	8007b3c <__any_on+0x2a>
 8007b50:	2001      	movs	r0, #1
 8007b52:	e7f6      	b.n	8007b42 <__any_on+0x30>

08007b54 <__ascii_wctomb>:
 8007b54:	4603      	mov	r3, r0
 8007b56:	4608      	mov	r0, r1
 8007b58:	b141      	cbz	r1, 8007b6c <__ascii_wctomb+0x18>
 8007b5a:	2aff      	cmp	r2, #255	@ 0xff
 8007b5c:	d904      	bls.n	8007b68 <__ascii_wctomb+0x14>
 8007b5e:	228a      	movs	r2, #138	@ 0x8a
 8007b60:	601a      	str	r2, [r3, #0]
 8007b62:	f04f 30ff 	mov.w	r0, #4294967295
 8007b66:	4770      	bx	lr
 8007b68:	700a      	strb	r2, [r1, #0]
 8007b6a:	2001      	movs	r0, #1
 8007b6c:	4770      	bx	lr

08007b6e <__ssputs_r>:
 8007b6e:	e92d 47f0 	stmdb	sp!, {r4, r5, r6, r7, r8, r9, sl, lr}
 8007b72:	688e      	ldr	r6, [r1, #8]
 8007b74:	461f      	mov	r7, r3
 8007b76:	42be      	cmp	r6, r7
 8007b78:	4682      	mov	sl, r0
 8007b7a:	460c      	mov	r4, r1
 8007b7c:	4690      	mov	r8, r2
 8007b7e:	4633      	mov	r3, r6
 8007b80:	d853      	bhi.n	8007c2a <__ssputs_r+0xbc>
 8007b82:	f9b1 000c 	ldrsh.w	r0, [r1, #12]
 8007b86:	f410 6f90 	tst.w	r0, #1152	@ 0x480
 8007b8a:	d02b      	beq.n	8007be4 <__ssputs_r+0x76>
 8007b8c:	6965      	ldr	r5, [r4, #20]
 8007b8e:	6823      	ldr	r3, [r4, #0]
 8007b90:	6909      	ldr	r1, [r1, #16]
 8007b92:	eb05 0545 	add.w	r5, r5, r5, lsl #1
 8007b96:	eba3 0901 	sub.w	r9, r3, r1
 8007b9a:	eb05 75d5 	add.w	r5, r5, r5, lsr #31
 8007b9e:	1c7b      	adds	r3, r7, #1
 8007ba0:	106d      	asrs	r5, r5, #1
 8007ba2:	444b      	add	r3, r9
 8007ba4:	42ab      	cmp	r3, r5
 8007ba6:	462a      	mov	r2, r5
 8007ba8:	bf84      	itt	hi
 8007baa:	461d      	movhi	r5, r3
 8007bac:	462a      	movhi	r2, r5
 8007bae:	0543      	lsls	r3, r0, #21
 8007bb0:	d527      	bpl.n	8007c02 <__ssputs_r+0x94>
 8007bb2:	4611      	mov	r1, r2
 8007bb4:	4650      	mov	r0, sl
 8007bb6:	f7ff fa77 	bl	80070a8 <_malloc_r>
 8007bba:	4606      	mov	r6, r0
 8007bbc:	b358      	cbz	r0, 8007c16 <__ssputs_r+0xa8>
 8007bbe:	6921      	ldr	r1, [r4, #16]
 8007bc0:	464a      	mov	r2, r9
 8007bc2:	f7fe feb2 	bl	800692a <memcpy>
 8007bc6:	89a3      	ldrh	r3, [r4, #12]
 8007bc8:	f423 6390 	bic.w	r3, r3, #1152	@ 0x480
 8007bcc:	f043 0380 	orr.w	r3, r3, #128	@ 0x80
 8007bd0:	81a3      	strh	r3, [r4, #12]
 8007bd2:	6126      	str	r6, [r4, #16]
 8007bd4:	6165      	str	r5, [r4, #20]
 8007bd6:	444e      	add	r6, r9
 8007bd8:	eba5 0509 	sub.w	r5, r5, r9
 8007bdc:	6026      	str	r6, [r4, #0]
 8007bde:	60a5      	str	r5, [r4, #8]
 8007be0:	463e      	mov	r6, r7
 8007be2:	463b      	mov	r3, r7
 8007be4:	461f      	mov	r7, r3
 8007be6:	6820      	ldr	r0, [r4, #0]
 8007be8:	463a      	mov	r2, r7
 8007bea:	4641      	mov	r1, r8
 8007bec:	f7fe fdf6 	bl	80067dc <memmove>
 8007bf0:	68a3      	ldr	r3, [r4, #8]
 8007bf2:	1b9b      	subs	r3, r3, r6
 8007bf4:	60a3      	str	r3, [r4, #8]
 8007bf6:	6823      	ldr	r3, [r4, #0]
 8007bf8:	443b      	add	r3, r7
 8007bfa:	6023      	str	r3, [r4, #0]
 8007bfc:	2000      	movs	r0, #0
 8007bfe:	e8bd 87f0 	ldmia.w	sp!, {r4, r5, r6, r7, r8, r9, sl, pc}
 8007c02:	4650      	mov	r0, sl
 8007c04:	f000 fb94 	bl	8008330 <_realloc_r>
 8007c08:	4606      	mov	r6, r0
 8007c0a:	2800      	cmp	r0, #0
 8007c0c:	d1e1      	bne.n	8007bd2 <__ssputs_r+0x64>
 8007c0e:	6921      	ldr	r1, [r4, #16]
 8007c10:	4650      	mov	r0, sl
 8007c12:	f7fe fea1 	bl	8006958 <_free_r>
 8007c16:	230c      	movs	r3, #12
 8007c18:	f8ca 3000 	str.w	r3, [sl]
 8007c1c:	89a3      	ldrh	r3, [r4, #12]
 8007c1e:	f043 0340 	orr.w	r3, r3, #64	@ 0x40
 8007c22:	81a3      	strh	r3, [r4, #12]
 8007c24:	f04f 30ff 	mov.w	r0, #4294967295
 8007c28:	e7e9      	b.n	8007bfe <__ssputs_r+0x90>
 8007c2a:	463e      	mov	r6, r7
 8007c2c:	e7db      	b.n	8007be6 <__ssputs_r+0x78>
	...

08007c30 <_svfiprintf_r>:
 8007c30:	e92d 47f0 	stmdb	sp!, {r4, r5, r6, r7, r8, r9, sl, lr}
 8007c34:	461f      	mov	r7, r3
 8007c36:	898b      	ldrh	r3, [r1, #12]
 8007c38:	061b      	lsls	r3, r3, #24
 8007c3a:	b09c      	sub	sp, #112	@ 0x70
 8007c3c:	4606      	mov	r6, r0
 8007c3e:	460d      	mov	r5, r1
 8007c40:	4614      	mov	r4, r2
 8007c42:	d510      	bpl.n	8007c66 <_svfiprintf_r+0x36>
 8007c44:	690b      	ldr	r3, [r1, #16]
 8007c46:	b973      	cbnz	r3, 8007c66 <_svfiprintf_r+0x36>
 8007c48:	2140      	movs	r1, #64	@ 0x40
 8007c4a:	f7ff fa2d 	bl	80070a8 <_malloc_r>
 8007c4e:	6028      	str	r0, [r5, #0]
 8007c50:	6128      	str	r0, [r5, #16]
 8007c52:	b930      	cbnz	r0, 8007c62 <_svfiprintf_r+0x32>
 8007c54:	230c      	movs	r3, #12
 8007c56:	6033      	str	r3, [r6, #0]
 8007c58:	f04f 30ff 	mov.w	r0, #4294967295
 8007c5c:	b01c      	add	sp, #112	@ 0x70
 8007c5e:	e8bd 87f0 	ldmia.w	sp!, {r4, r5, r6, r7, r8, r9, sl, pc}
 8007c62:	2340      	movs	r3, #64	@ 0x40
 8007c64:	616b      	str	r3, [r5, #20]
 8007c66:	2300      	movs	r3, #0
 8007c68:	9309      	str	r3, [sp, #36]	@ 0x24
 8007c6a:	2320      	movs	r3, #32
 8007c6c:	f88d 3029 	strb.w	r3, [sp, #41]	@ 0x29
 8007c70:	9703      	str	r7, [sp, #12]
 8007c72:	2330      	movs	r3, #48	@ 0x30
 8007c74:	4f65      	ldr	r7, [pc, #404]	@ (8007e0c <_svfiprintf_r+0x1dc>)
 8007c76:	f88d 302a 	strb.w	r3, [sp, #42]	@ 0x2a
 8007c7a:	f04f 0801 	mov.w	r8, #1
 8007c7e:	4623      	mov	r3, r4
 8007c80:	4699      	mov	r9, r3
 8007c82:	f813 2b01 	ldrb.w	r2, [r3], #1
 8007c86:	b10a      	cbz	r2, 8007c8c <_svfiprintf_r+0x5c>
 8007c88:	2a25      	cmp	r2, #37	@ 0x25
 8007c8a:	d1f9      	bne.n	8007c80 <_svfiprintf_r+0x50>
 8007c8c:	ebb9 0a04 	subs.w	sl, r9, r4
 8007c90:	d00b      	beq.n	8007caa <_svfiprintf_r+0x7a>
 8007c92:	4653      	mov	r3, sl
 8007c94:	4622      	mov	r2, r4
 8007c96:	4629      	mov	r1, r5
 8007c98:	4630      	mov	r0, r6
 8007c9a:	f7ff ff68 	bl	8007b6e <__ssputs_r>
 8007c9e:	3001      	adds	r0, #1
 8007ca0:	f000 80a4 	beq.w	8007dec <_svfiprintf_r+0x1bc>
 8007ca4:	9a09      	ldr	r2, [sp, #36]	@ 0x24
 8007ca6:	4452      	add	r2, sl
 8007ca8:	9209      	str	r2, [sp, #36]	@ 0x24
 8007caa:	f899 3000 	ldrb.w	r3, [r9]
 8007cae:	2b00      	cmp	r3, #0
 8007cb0:	f000 809c 	beq.w	8007dec <_svfiprintf_r+0x1bc>
 8007cb4:	2300      	movs	r3, #0
 8007cb6:	f04f 32ff 	mov.w	r2, #4294967295
 8007cba:	e9cd 2305 	strd	r2, r3, [sp, #20]
 8007cbe:	f109 0901 	add.w	r9, r9, #1
 8007cc2:	9304      	str	r3, [sp, #16]
 8007cc4:	9307      	str	r3, [sp, #28]
 8007cc6:	f88d 3053 	strb.w	r3, [sp, #83]	@ 0x53
 8007cca:	931a      	str	r3, [sp, #104]	@ 0x68
 8007ccc:	464c      	mov	r4, r9
 8007cce:	484f      	ldr	r0, [pc, #316]	@ (8007e0c <_svfiprintf_r+0x1dc>)
 8007cd0:	f814 1b01 	ldrb.w	r1, [r4], #1
 8007cd4:	2205      	movs	r2, #5
 8007cd6:	f7f8 faa3 	bl	8000220 <memchr>
 8007cda:	9b04      	ldr	r3, [sp, #16]
 8007cdc:	b9d0      	cbnz	r0, 8007d14 <_svfiprintf_r+0xe4>
 8007cde:	06d8      	lsls	r0, r3, #27
 8007ce0:	bf44      	itt	mi
 8007ce2:	2220      	movmi	r2, #32
 8007ce4:	f88d 2053 	strbmi.w	r2, [sp, #83]	@ 0x53
 8007ce8:	0719      	lsls	r1, r3, #28
 8007cea:	bf44      	itt	mi
 8007cec:	222b      	movmi	r2, #43	@ 0x2b
 8007cee:	f88d 2053 	strbmi.w	r2, [sp, #83]	@ 0x53
 8007cf2:	f899 2000 	ldrb.w	r2, [r9]
 8007cf6:	2a2a      	cmp	r2, #42	@ 0x2a
 8007cf8:	d013      	beq.n	8007d22 <_svfiprintf_r+0xf2>
 8007cfa:	9a07      	ldr	r2, [sp, #28]
 8007cfc:	464c      	mov	r4, r9
 8007cfe:	2000      	movs	r0, #0
 8007d00:	f04f 0c0a 	mov.w	ip, #10
 8007d04:	4621      	mov	r1, r4
 8007d06:	f811 3b01 	ldrb.w	r3, [r1], #1
 8007d0a:	3b30      	subs	r3, #48	@ 0x30
 8007d0c:	2b09      	cmp	r3, #9
 8007d0e:	d949      	bls.n	8007da4 <_svfiprintf_r+0x174>
 8007d10:	b968      	cbnz	r0, 8007d2e <_svfiprintf_r+0xfe>
 8007d12:	e013      	b.n	8007d3c <_svfiprintf_r+0x10c>
 8007d14:	1bc0      	subs	r0, r0, r7
 8007d16:	fa08 f000 	lsl.w	r0, r8, r0
 8007d1a:	4318      	orrs	r0, r3
 8007d1c:	9004      	str	r0, [sp, #16]
 8007d1e:	46a1      	mov	r9, r4
 8007d20:	e7d4      	b.n	8007ccc <_svfiprintf_r+0x9c>
 8007d22:	9a03      	ldr	r2, [sp, #12]
 8007d24:	1d11      	adds	r1, r2, #4
 8007d26:	6812      	ldr	r2, [r2, #0]
 8007d28:	9103      	str	r1, [sp, #12]
 8007d2a:	2a00      	cmp	r2, #0
 8007d2c:	db01      	blt.n	8007d32 <_svfiprintf_r+0x102>
 8007d2e:	9207      	str	r2, [sp, #28]
 8007d30:	e004      	b.n	8007d3c <_svfiprintf_r+0x10c>
 8007d32:	4252      	negs	r2, r2
 8007d34:	f043 0302 	orr.w	r3, r3, #2
 8007d38:	9207      	str	r2, [sp, #28]
 8007d3a:	9304      	str	r3, [sp, #16]
 8007d3c:	7823      	ldrb	r3, [r4, #0]
 8007d3e:	2b2e      	cmp	r3, #46	@ 0x2e
 8007d40:	d10a      	bne.n	8007d58 <_svfiprintf_r+0x128>
 8007d42:	7863      	ldrb	r3, [r4, #1]
 8007d44:	2b2a      	cmp	r3, #42	@ 0x2a
 8007d46:	d132      	bne.n	8007dae <_svfiprintf_r+0x17e>
 8007d48:	9b03      	ldr	r3, [sp, #12]
 8007d4a:	1d1a      	adds	r2, r3, #4
 8007d4c:	681b      	ldr	r3, [r3, #0]
 8007d4e:	9203      	str	r2, [sp, #12]
 8007d50:	ea43 73e3 	orr.w	r3, r3, r3, asr #31
 8007d54:	3402      	adds	r4, #2
 8007d56:	9305      	str	r3, [sp, #20]
 8007d58:	f8df 90c0 	ldr.w	r9, [pc, #192]	@ 8007e1c <_svfiprintf_r+0x1ec>
 8007d5c:	7821      	ldrb	r1, [r4, #0]
 8007d5e:	2203      	movs	r2, #3
 8007d60:	4648      	mov	r0, r9
 8007d62:	f7f8 fa5d 	bl	8000220 <memchr>
 8007d66:	b138      	cbz	r0, 8007d78 <_svfiprintf_r+0x148>
 8007d68:	9b04      	ldr	r3, [sp, #16]
 8007d6a:	eba0 0009 	sub.w	r0, r0, r9
 8007d6e:	2240      	movs	r2, #64	@ 0x40
 8007d70:	4082      	lsls	r2, r0
 8007d72:	4313      	orrs	r3, r2
 8007d74:	3401      	adds	r4, #1
 8007d76:	9304      	str	r3, [sp, #16]
 8007d78:	f814 1b01 	ldrb.w	r1, [r4], #1
 8007d7c:	4824      	ldr	r0, [pc, #144]	@ (8007e10 <_svfiprintf_r+0x1e0>)
 8007d7e:	f88d 1028 	strb.w	r1, [sp, #40]	@ 0x28
 8007d82:	2206      	movs	r2, #6
 8007d84:	f7f8 fa4c 	bl	8000220 <memchr>
 8007d88:	2800      	cmp	r0, #0
 8007d8a:	d035      	beq.n	8007df8 <_svfiprintf_r+0x1c8>
 8007d8c:	4821      	ldr	r0, [pc, #132]	@ (8007e14 <_svfiprintf_r+0x1e4>)
 8007d8e:	bb18      	cbnz	r0, 8007dd8 <_svfiprintf_r+0x1a8>
 8007d90:	9b03      	ldr	r3, [sp, #12]
 8007d92:	3307      	adds	r3, #7
 8007d94:	f023 0307 	bic.w	r3, r3, #7
 8007d98:	3308      	adds	r3, #8
 8007d9a:	9303      	str	r3, [sp, #12]
 8007d9c:	9b09      	ldr	r3, [sp, #36]	@ 0x24
 8007d9e:	4403      	add	r3, r0
 8007da0:	9309      	str	r3, [sp, #36]	@ 0x24
 8007da2:	e76c      	b.n	8007c7e <_svfiprintf_r+0x4e>
 8007da4:	fb0c 3202 	mla	r2, ip, r2, r3
 8007da8:	460c      	mov	r4, r1
 8007daa:	2001      	movs	r0, #1
 8007dac:	e7aa      	b.n	8007d04 <_svfiprintf_r+0xd4>
 8007dae:	2300      	movs	r3, #0
 8007db0:	3401      	adds	r4, #1
 8007db2:	9305      	str	r3, [sp, #20]
 8007db4:	4619      	mov	r1, r3
 8007db6:	f04f 0c0a 	mov.w	ip, #10
 8007dba:	4620      	mov	r0, r4
 8007dbc:	f810 2b01 	ldrb.w	r2, [r0], #1
 8007dc0:	3a30      	subs	r2, #48	@ 0x30
 8007dc2:	2a09      	cmp	r2, #9
 8007dc4:	d903      	bls.n	8007dce <_svfiprintf_r+0x19e>
 8007dc6:	2b00      	cmp	r3, #0
 8007dc8:	d0c6      	beq.n	8007d58 <_svfiprintf_r+0x128>
 8007dca:	9105      	str	r1, [sp, #20]
 8007dcc:	e7c4      	b.n	8007d58 <_svfiprintf_r+0x128>
 8007dce:	fb0c 2101 	mla	r1, ip, r1, r2
 8007dd2:	4604      	mov	r4, r0
 8007dd4:	2301      	movs	r3, #1
 8007dd6:	e7f0      	b.n	8007dba <_svfiprintf_r+0x18a>
 8007dd8:	ab03      	add	r3, sp, #12
 8007dda:	9300      	str	r3, [sp, #0]
 8007ddc:	462a      	mov	r2, r5
 8007dde:	4b0e      	ldr	r3, [pc, #56]	@ (8007e18 <_svfiprintf_r+0x1e8>)
 8007de0:	a904      	add	r1, sp, #16
 8007de2:	4630      	mov	r0, r6
 8007de4:	f3af 8000 	nop.w
 8007de8:	1c42      	adds	r2, r0, #1
 8007dea:	d1d7      	bne.n	8007d9c <_svfiprintf_r+0x16c>
 8007dec:	89ab      	ldrh	r3, [r5, #12]
 8007dee:	065b      	lsls	r3, r3, #25
 8007df0:	f53f af32 	bmi.w	8007c58 <_svfiprintf_r+0x28>
 8007df4:	9809      	ldr	r0, [sp, #36]	@ 0x24
 8007df6:	e731      	b.n	8007c5c <_svfiprintf_r+0x2c>
 8007df8:	ab03      	add	r3, sp, #12
 8007dfa:	9300      	str	r3, [sp, #0]
 8007dfc:	462a      	mov	r2, r5
 8007dfe:	4b06      	ldr	r3, [pc, #24]	@ (8007e18 <_svfiprintf_r+0x1e8>)
 8007e00:	a904      	add	r1, sp, #16
 8007e02:	4630      	mov	r0, r6
 8007e04:	f000 f87a 	bl	8007efc <_printf_i>
 8007e08:	e7ee      	b.n	8007de8 <_svfiprintf_r+0x1b8>
 8007e0a:	bf00      	nop
 8007e0c:	08008f2f 	.word	0x08008f2f
 8007e10:	08008f39 	.word	0x08008f39
 8007e14:	00000000 	.word	0x00000000
 8007e18:	08007b6f 	.word	0x08007b6f
 8007e1c:	08008f35 	.word	0x08008f35

08007e20 <_printf_common>:
 8007e20:	e92d 47f0 	stmdb	sp!, {r4, r5, r6, r7, r8, r9, sl, lr}
 8007e24:	4616      	mov	r6, r2
 8007e26:	4698      	mov	r8, r3
 8007e28:	688a      	ldr	r2, [r1, #8]
 8007e2a:	690b      	ldr	r3, [r1, #16]
 8007e2c:	f8dd 9020 	ldr.w	r9, [sp, #32]
 8007e30:	4293      	cmp	r3, r2
 8007e32:	bfb8      	it	lt
 8007e34:	4613      	movlt	r3, r2
 8007e36:	6033      	str	r3, [r6, #0]
 8007e38:	f891 2043 	ldrb.w	r2, [r1, #67]	@ 0x43
 8007e3c:	4607      	mov	r7, r0
 8007e3e:	460c      	mov	r4, r1
 8007e40:	b10a      	cbz	r2, 8007e46 <_printf_common+0x26>
 8007e42:	3301      	adds	r3, #1
 8007e44:	6033      	str	r3, [r6, #0]
 8007e46:	6823      	ldr	r3, [r4, #0]
 8007e48:	0699      	lsls	r1, r3, #26
 8007e4a:	bf42      	ittt	mi
 8007e4c:	6833      	ldrmi	r3, [r6, #0]
 8007e4e:	3302      	addmi	r3, #2
 8007e50:	6033      	strmi	r3, [r6, #0]
 8007e52:	6825      	ldr	r5, [r4, #0]
 8007e54:	f015 0506 	ands.w	r5, r5, #6
 8007e58:	d106      	bne.n	8007e68 <_printf_common+0x48>
 8007e5a:	f104 0a19 	add.w	sl, r4, #25
 8007e5e:	68e3      	ldr	r3, [r4, #12]
 8007e60:	6832      	ldr	r2, [r6, #0]
 8007e62:	1a9b      	subs	r3, r3, r2
 8007e64:	42ab      	cmp	r3, r5
 8007e66:	dc26      	bgt.n	8007eb6 <_printf_common+0x96>
 8007e68:	f894 3043 	ldrb.w	r3, [r4, #67]	@ 0x43
 8007e6c:	6822      	ldr	r2, [r4, #0]
 8007e6e:	3b00      	subs	r3, #0
 8007e70:	bf18      	it	ne
 8007e72:	2301      	movne	r3, #1
 8007e74:	0692      	lsls	r2, r2, #26
 8007e76:	d42b      	bmi.n	8007ed0 <_printf_common+0xb0>
 8007e78:	f104 0243 	add.w	r2, r4, #67	@ 0x43
 8007e7c:	4641      	mov	r1, r8
 8007e7e:	4638      	mov	r0, r7
 8007e80:	47c8      	blx	r9
 8007e82:	3001      	adds	r0, #1
 8007e84:	d01e      	beq.n	8007ec4 <_printf_common+0xa4>
 8007e86:	6823      	ldr	r3, [r4, #0]
 8007e88:	6922      	ldr	r2, [r4, #16]
 8007e8a:	f003 0306 	and.w	r3, r3, #6
 8007e8e:	2b04      	cmp	r3, #4
 8007e90:	bf02      	ittt	eq
 8007e92:	68e5      	ldreq	r5, [r4, #12]
 8007e94:	6833      	ldreq	r3, [r6, #0]
 8007e96:	1aed      	subeq	r5, r5, r3
 8007e98:	68a3      	ldr	r3, [r4, #8]
 8007e9a:	bf0c      	ite	eq
 8007e9c:	ea25 75e5 	biceq.w	r5, r5, r5, asr #31
 8007ea0:	2500      	movne	r5, #0
 8007ea2:	4293      	cmp	r3, r2
 8007ea4:	bfc4      	itt	gt
 8007ea6:	1a9b      	subgt	r3, r3, r2
 8007ea8:	18ed      	addgt	r5, r5, r3
 8007eaa:	2600      	movs	r6, #0
 8007eac:	341a      	adds	r4, #26
 8007eae:	42b5      	cmp	r5, r6
 8007eb0:	d11a      	bne.n	8007ee8 <_printf_common+0xc8>
 8007eb2:	2000      	movs	r0, #0
 8007eb4:	e008      	b.n	8007ec8 <_printf_common+0xa8>
 8007eb6:	2301      	movs	r3, #1
 8007eb8:	4652      	mov	r2, sl
 8007eba:	4641      	mov	r1, r8
 8007ebc:	4638      	mov	r0, r7
 8007ebe:	47c8      	blx	r9
 8007ec0:	3001      	adds	r0, #1
 8007ec2:	d103      	bne.n	8007ecc <_printf_common+0xac>
 8007ec4:	f04f 30ff 	mov.w	r0, #4294967295
 8007ec8:	e8bd 87f0 	ldmia.w	sp!, {r4, r5, r6, r7, r8, r9, sl, pc}
 8007ecc:	3501      	adds	r5, #1
 8007ece:	e7c6      	b.n	8007e5e <_printf_common+0x3e>
 8007ed0:	18e1      	adds	r1, r4, r3
 8007ed2:	1c5a      	adds	r2, r3, #1
 8007ed4:	2030      	movs	r0, #48	@ 0x30
 8007ed6:	f881 0043 	strb.w	r0, [r1, #67]	@ 0x43
 8007eda:	4422      	add	r2, r4
 8007edc:	f894 1045 	ldrb.w	r1, [r4, #69]	@ 0x45
 8007ee0:	f882 1043 	strb.w	r1, [r2, #67]	@ 0x43
 8007ee4:	3302      	adds	r3, #2
 8007ee6:	e7c7      	b.n	8007e78 <_printf_common+0x58>
 8007ee8:	2301      	movs	r3, #1
 8007eea:	4622      	mov	r2, r4
 8007eec:	4641      	mov	r1, r8
 8007eee:	4638      	mov	r0, r7
 8007ef0:	47c8      	blx	r9
 8007ef2:	3001      	adds	r0, #1
 8007ef4:	d0e6      	beq.n	8007ec4 <_printf_common+0xa4>
 8007ef6:	3601      	adds	r6, #1
 8007ef8:	e7d9      	b.n	8007eae <_printf_common+0x8e>
	...

08007efc <_printf_i>:
 8007efc:	e92d 43f0 	stmdb	sp!, {r4, r5, r6, r7, r8, r9, lr}
 8007f00:	7e0d      	ldrb	r5, [r1, #24]
 8007f02:	b085      	sub	sp, #20
 8007f04:	2d78      	cmp	r5, #120	@ 0x78
 8007f06:	4690      	mov	r8, r2
 8007f08:	9e0c      	ldr	r6, [sp, #48]	@ 0x30
 8007f0a:	4607      	mov	r7, r0
 8007f0c:	460c      	mov	r4, r1
 8007f0e:	4699      	mov	r9, r3
 8007f10:	f101 0243 	add.w	r2, r1, #67	@ 0x43
 8007f14:	d807      	bhi.n	8007f26 <_printf_i+0x2a>
 8007f16:	2d62      	cmp	r5, #98	@ 0x62
 8007f18:	d80a      	bhi.n	8007f30 <_printf_i+0x34>
 8007f1a:	2d00      	cmp	r5, #0
 8007f1c:	f000 80d7 	beq.w	80080ce <_printf_i+0x1d2>
 8007f20:	2d58      	cmp	r5, #88	@ 0x58
 8007f22:	f000 80bc 	beq.w	800809e <_printf_i+0x1a2>
 8007f26:	f104 0642 	add.w	r6, r4, #66	@ 0x42
 8007f2a:	f884 5042 	strb.w	r5, [r4, #66]	@ 0x42
 8007f2e:	e03b      	b.n	8007fa8 <_printf_i+0xac>
 8007f30:	f1a5 0363 	sub.w	r3, r5, #99	@ 0x63
 8007f34:	2b15      	cmp	r3, #21
 8007f36:	d8f6      	bhi.n	8007f26 <_printf_i+0x2a>
 8007f38:	a101      	add	r1, pc, #4	@ (adr r1, 8007f40 <_printf_i+0x44>)
 8007f3a:	f851 f023 	ldr.w	pc, [r1, r3, lsl #2]
 8007f3e:	bf00      	nop
 8007f40:	08007f99 	.word	0x08007f99
 8007f44:	08007fad 	.word	0x08007fad
 8007f48:	08007f27 	.word	0x08007f27
 8007f4c:	08007f27 	.word	0x08007f27
 8007f50:	08007f27 	.word	0x08007f27
 8007f54:	08007f27 	.word	0x08007f27
 8007f58:	08007fad 	.word	0x08007fad
 8007f5c:	08007f27 	.word	0x08007f27
 8007f60:	08007f27 	.word	0x08007f27
 8007f64:	08007f27 	.word	0x08007f27
 8007f68:	08007f27 	.word	0x08007f27
 8007f6c:	080080b5 	.word	0x080080b5
 8007f70:	08007fd7 	.word	0x08007fd7
 8007f74:	08008067 	.word	0x08008067
 8007f78:	08007f27 	.word	0x08007f27
 8007f7c:	08007f27 	.word	0x08007f27
 8007f80:	080080d7 	.word	0x080080d7
 8007f84:	08007f27 	.word	0x08007f27
 8007f88:	08007fd7 	.word	0x08007fd7
 8007f8c:	08007f27 	.word	0x08007f27
 8007f90:	08007f27 	.word	0x08007f27
 8007f94:	0800806f 	.word	0x0800806f
 8007f98:	6833      	ldr	r3, [r6, #0]
 8007f9a:	1d1a      	adds	r2, r3, #4
 8007f9c:	681b      	ldr	r3, [r3, #0]
 8007f9e:	6032      	str	r2, [r6, #0]
 8007fa0:	f104 0642 	add.w	r6, r4, #66	@ 0x42
 8007fa4:	f884 3042 	strb.w	r3, [r4, #66]	@ 0x42
 8007fa8:	2301      	movs	r3, #1
 8007faa:	e0a1      	b.n	80080f0 <_printf_i+0x1f4>
 8007fac:	6833      	ldr	r3, [r6, #0]
 8007fae:	6820      	ldr	r0, [r4, #0]
 8007fb0:	1d19      	adds	r1, r3, #4
 8007fb2:	6031      	str	r1, [r6, #0]
 8007fb4:	0606      	lsls	r6, r0, #24
 8007fb6:	d501      	bpl.n	8007fbc <_printf_i+0xc0>
 8007fb8:	681d      	ldr	r5, [r3, #0]
 8007fba:	e003      	b.n	8007fc4 <_printf_i+0xc8>
 8007fbc:	0645      	lsls	r5, r0, #25
 8007fbe:	d5fb      	bpl.n	8007fb8 <_printf_i+0xbc>
 8007fc0:	f9b3 5000 	ldrsh.w	r5, [r3]
 8007fc4:	2d00      	cmp	r5, #0
 8007fc6:	da03      	bge.n	8007fd0 <_printf_i+0xd4>
 8007fc8:	232d      	movs	r3, #45	@ 0x2d
 8007fca:	426d      	negs	r5, r5
 8007fcc:	f884 3043 	strb.w	r3, [r4, #67]	@ 0x43
 8007fd0:	485b      	ldr	r0, [pc, #364]	@ (8008140 <_printf_i+0x244>)
 8007fd2:	230a      	movs	r3, #10
 8007fd4:	e011      	b.n	8007ffa <_printf_i+0xfe>
 8007fd6:	6821      	ldr	r1, [r4, #0]
 8007fd8:	6833      	ldr	r3, [r6, #0]
 8007fda:	0608      	lsls	r0, r1, #24
 8007fdc:	f853 5b04 	ldr.w	r5, [r3], #4
 8007fe0:	d402      	bmi.n	8007fe8 <_printf_i+0xec>
 8007fe2:	0649      	lsls	r1, r1, #25
 8007fe4:	bf48      	it	mi
 8007fe6:	b2ad      	uxthmi	r5, r5
 8007fe8:	6033      	str	r3, [r6, #0]
 8007fea:	7e23      	ldrb	r3, [r4, #24]
 8007fec:	4854      	ldr	r0, [pc, #336]	@ (8008140 <_printf_i+0x244>)
 8007fee:	2b6f      	cmp	r3, #111	@ 0x6f
 8007ff0:	d15c      	bne.n	80080ac <_printf_i+0x1b0>
 8007ff2:	2308      	movs	r3, #8
 8007ff4:	2100      	movs	r1, #0
 8007ff6:	f884 1043 	strb.w	r1, [r4, #67]	@ 0x43
 8007ffa:	6866      	ldr	r6, [r4, #4]
 8007ffc:	60a6      	str	r6, [r4, #8]
 8007ffe:	2e00      	cmp	r6, #0
 8008000:	db05      	blt.n	800800e <_printf_i+0x112>
 8008002:	6821      	ldr	r1, [r4, #0]
 8008004:	432e      	orrs	r6, r5
 8008006:	f021 0104 	bic.w	r1, r1, #4
 800800a:	6021      	str	r1, [r4, #0]
 800800c:	d050      	beq.n	80080b0 <_printf_i+0x1b4>
 800800e:	4616      	mov	r6, r2
 8008010:	fbb5 f1f3 	udiv	r1, r5, r3
 8008014:	fb03 5c11 	mls	ip, r3, r1, r5
 8008018:	f810 c00c 	ldrb.w	ip, [r0, ip]
 800801c:	f806 cd01 	strb.w	ip, [r6, #-1]!
 8008020:	46ac      	mov	ip, r5
 8008022:	4563      	cmp	r3, ip
 8008024:	460d      	mov	r5, r1
 8008026:	d9f3      	bls.n	8008010 <_printf_i+0x114>
 8008028:	2b08      	cmp	r3, #8
 800802a:	d10b      	bne.n	8008044 <_printf_i+0x148>
 800802c:	6823      	ldr	r3, [r4, #0]
 800802e:	07db      	lsls	r3, r3, #31
 8008030:	d508      	bpl.n	8008044 <_printf_i+0x148>
 8008032:	6923      	ldr	r3, [r4, #16]
 8008034:	6861      	ldr	r1, [r4, #4]
 8008036:	4299      	cmp	r1, r3
 8008038:	bfde      	ittt	le
 800803a:	2330      	movle	r3, #48	@ 0x30
 800803c:	f806 3c01 	strble.w	r3, [r6, #-1]
 8008040:	f106 36ff 	addle.w	r6, r6, #4294967295
 8008044:	1b92      	subs	r2, r2, r6
 8008046:	6122      	str	r2, [r4, #16]
 8008048:	f8cd 9000 	str.w	r9, [sp]
 800804c:	4643      	mov	r3, r8
 800804e:	aa03      	add	r2, sp, #12
 8008050:	4621      	mov	r1, r4
 8008052:	4638      	mov	r0, r7
 8008054:	f7ff fee4 	bl	8007e20 <_printf_common>
 8008058:	3001      	adds	r0, #1
 800805a:	d14e      	bne.n	80080fa <_printf_i+0x1fe>
 800805c:	f04f 30ff 	mov.w	r0, #4294967295
 8008060:	b005      	add	sp, #20
 8008062:	e8bd 83f0 	ldmia.w	sp!, {r4, r5, r6, r7, r8, r9, pc}
 8008066:	6823      	ldr	r3, [r4, #0]
 8008068:	f043 0320 	orr.w	r3, r3, #32
 800806c:	6023      	str	r3, [r4, #0]
 800806e:	4835      	ldr	r0, [pc, #212]	@ (8008144 <_printf_i+0x248>)
 8008070:	2578      	movs	r5, #120	@ 0x78
 8008072:	f884 5045 	strb.w	r5, [r4, #69]	@ 0x45
 8008076:	6823      	ldr	r3, [r4, #0]
 8008078:	6831      	ldr	r1, [r6, #0]
 800807a:	f013 0f80 	tst.w	r3, #128	@ 0x80
 800807e:	f851 5b04 	ldr.w	r5, [r1], #4
 8008082:	d103      	bne.n	800808c <_printf_i+0x190>
 8008084:	f013 0f40 	tst.w	r3, #64	@ 0x40
 8008088:	bf18      	it	ne
 800808a:	b2ad      	uxthne	r5, r5
 800808c:	6031      	str	r1, [r6, #0]
 800808e:	07d9      	lsls	r1, r3, #31
 8008090:	bf44      	itt	mi
 8008092:	f043 0320 	orrmi.w	r3, r3, #32
 8008096:	6023      	strmi	r3, [r4, #0]
 8008098:	b11d      	cbz	r5, 80080a2 <_printf_i+0x1a6>
 800809a:	2310      	movs	r3, #16
 800809c:	e7aa      	b.n	8007ff4 <_printf_i+0xf8>
 800809e:	4828      	ldr	r0, [pc, #160]	@ (8008140 <_printf_i+0x244>)
 80080a0:	e7e7      	b.n	8008072 <_printf_i+0x176>
 80080a2:	6823      	ldr	r3, [r4, #0]
 80080a4:	f023 0320 	bic.w	r3, r3, #32
 80080a8:	6023      	str	r3, [r4, #0]
 80080aa:	e7f6      	b.n	800809a <_printf_i+0x19e>
 80080ac:	230a      	movs	r3, #10
 80080ae:	e7a1      	b.n	8007ff4 <_printf_i+0xf8>
 80080b0:	4616      	mov	r6, r2
 80080b2:	e7b9      	b.n	8008028 <_printf_i+0x12c>
 80080b4:	6833      	ldr	r3, [r6, #0]
 80080b6:	6825      	ldr	r5, [r4, #0]
 80080b8:	6961      	ldr	r1, [r4, #20]
 80080ba:	1d18      	adds	r0, r3, #4
 80080bc:	6030      	str	r0, [r6, #0]
 80080be:	062e      	lsls	r6, r5, #24
 80080c0:	681b      	ldr	r3, [r3, #0]
 80080c2:	d501      	bpl.n	80080c8 <_printf_i+0x1cc>
 80080c4:	6019      	str	r1, [r3, #0]
 80080c6:	e002      	b.n	80080ce <_printf_i+0x1d2>
 80080c8:	0668      	lsls	r0, r5, #25
 80080ca:	d5fb      	bpl.n	80080c4 <_printf_i+0x1c8>
 80080cc:	8019      	strh	r1, [r3, #0]
 80080ce:	2300      	movs	r3, #0
 80080d0:	6123      	str	r3, [r4, #16]
 80080d2:	4616      	mov	r6, r2
 80080d4:	e7b8      	b.n	8008048 <_printf_i+0x14c>
 80080d6:	6833      	ldr	r3, [r6, #0]
 80080d8:	1d1a      	adds	r2, r3, #4
 80080da:	6032      	str	r2, [r6, #0]
 80080dc:	681e      	ldr	r6, [r3, #0]
 80080de:	6862      	ldr	r2, [r4, #4]
 80080e0:	2100      	movs	r1, #0
 80080e2:	4630      	mov	r0, r6
 80080e4:	f7f8 f89c 	bl	8000220 <memchr>
 80080e8:	b108      	cbz	r0, 80080ee <_printf_i+0x1f2>
 80080ea:	1b80      	subs	r0, r0, r6
 80080ec:	6060      	str	r0, [r4, #4]
 80080ee:	6863      	ldr	r3, [r4, #4]
 80080f0:	6123      	str	r3, [r4, #16]
 80080f2:	2300      	movs	r3, #0
 80080f4:	f884 3043 	strb.w	r3, [r4, #67]	@ 0x43
 80080f8:	e7a6      	b.n	8008048 <_printf_i+0x14c>
 80080fa:	6923      	ldr	r3, [r4, #16]
 80080fc:	4632      	mov	r2, r6
 80080fe:	4641      	mov	r1, r8
 8008100:	4638      	mov	r0, r7
 8008102:	47c8      	blx	r9
 8008104:	3001      	adds	r0, #1
 8008106:	d0a9      	beq.n	800805c <_printf_i+0x160>
 8008108:	6823      	ldr	r3, [r4, #0]
 800810a:	079b      	lsls	r3, r3, #30
 800810c:	d413      	bmi.n	8008136 <_printf_i+0x23a>
 800810e:	68e0      	ldr	r0, [r4, #12]
 8008110:	9b03      	ldr	r3, [sp, #12]
 8008112:	4298      	cmp	r0, r3
 8008114:	bfb8      	it	lt
 8008116:	4618      	movlt	r0, r3
 8008118:	e7a2      	b.n	8008060 <_printf_i+0x164>
 800811a:	2301      	movs	r3, #1
 800811c:	4632      	mov	r2, r6
 800811e:	4641      	mov	r1, r8
 8008120:	4638      	mov	r0, r7
 8008122:	47c8      	blx	r9
 8008124:	3001      	adds	r0, #1
 8008126:	d099      	beq.n	800805c <_printf_i+0x160>
 8008128:	3501      	adds	r5, #1
 800812a:	68e3      	ldr	r3, [r4, #12]
 800812c:	9903      	ldr	r1, [sp, #12]
 800812e:	1a5b      	subs	r3, r3, r1
 8008130:	42ab      	cmp	r3, r5
 8008132:	dcf2      	bgt.n	800811a <_printf_i+0x21e>
 8008134:	e7eb      	b.n	800810e <_printf_i+0x212>
 8008136:	2500      	movs	r5, #0
 8008138:	f104 0619 	add.w	r6, r4, #25
 800813c:	e7f5      	b.n	800812a <_printf_i+0x22e>
 800813e:	bf00      	nop
 8008140:	08008f40 	.word	0x08008f40
 8008144:	08008f51 	.word	0x08008f51

08008148 <__sflush_r>:
 8008148:	f9b1 200c 	ldrsh.w	r2, [r1, #12]
 800814c:	e92d 41f0 	stmdb	sp!, {r4, r5, r6, r7, r8, lr}
 8008150:	0716      	lsls	r6, r2, #28
 8008152:	4605      	mov	r5, r0
 8008154:	460c      	mov	r4, r1
 8008156:	d451      	bmi.n	80081fc <__sflush_r+0xb4>
 8008158:	684b      	ldr	r3, [r1, #4]
 800815a:	2b00      	cmp	r3, #0
 800815c:	dc02      	bgt.n	8008164 <__sflush_r+0x1c>
 800815e:	6c0b      	ldr	r3, [r1, #64]	@ 0x40
 8008160:	2b00      	cmp	r3, #0
 8008162:	dd49      	ble.n	80081f8 <__sflush_r+0xb0>
 8008164:	6ae6      	ldr	r6, [r4, #44]	@ 0x2c
 8008166:	2e00      	cmp	r6, #0
 8008168:	d046      	beq.n	80081f8 <__sflush_r+0xb0>
 800816a:	2300      	movs	r3, #0
 800816c:	f412 5280 	ands.w	r2, r2, #4096	@ 0x1000
 8008170:	682f      	ldr	r7, [r5, #0]
 8008172:	602b      	str	r3, [r5, #0]
 8008174:	d031      	beq.n	80081da <__sflush_r+0x92>
 8008176:	6d62      	ldr	r2, [r4, #84]	@ 0x54
 8008178:	89a3      	ldrh	r3, [r4, #12]
 800817a:	0759      	lsls	r1, r3, #29
 800817c:	d505      	bpl.n	800818a <__sflush_r+0x42>
 800817e:	6863      	ldr	r3, [r4, #4]
 8008180:	1ad2      	subs	r2, r2, r3
 8008182:	6b63      	ldr	r3, [r4, #52]	@ 0x34
 8008184:	b10b      	cbz	r3, 800818a <__sflush_r+0x42>
 8008186:	6c23      	ldr	r3, [r4, #64]	@ 0x40
 8008188:	1ad2      	subs	r2, r2, r3
 800818a:	2300      	movs	r3, #0
 800818c:	6ae6      	ldr	r6, [r4, #44]	@ 0x2c
 800818e:	6a21      	ldr	r1, [r4, #32]
 8008190:	4628      	mov	r0, r5
 8008192:	47b0      	blx	r6
 8008194:	1c42      	adds	r2, r0, #1
 8008196:	f9b4 300c 	ldrsh.w	r3, [r4, #12]
 800819a:	d106      	bne.n	80081aa <__sflush_r+0x62>
 800819c:	6829      	ldr	r1, [r5, #0]
 800819e:	291d      	cmp	r1, #29
 80081a0:	d846      	bhi.n	8008230 <__sflush_r+0xe8>
 80081a2:	4a29      	ldr	r2, [pc, #164]	@ (8008248 <__sflush_r+0x100>)
 80081a4:	40ca      	lsrs	r2, r1
 80081a6:	07d6      	lsls	r6, r2, #31
 80081a8:	d542      	bpl.n	8008230 <__sflush_r+0xe8>
 80081aa:	2200      	movs	r2, #0
 80081ac:	6062      	str	r2, [r4, #4]
 80081ae:	04d9      	lsls	r1, r3, #19
 80081b0:	6922      	ldr	r2, [r4, #16]
 80081b2:	6022      	str	r2, [r4, #0]
 80081b4:	d504      	bpl.n	80081c0 <__sflush_r+0x78>
 80081b6:	1c42      	adds	r2, r0, #1
 80081b8:	d101      	bne.n	80081be <__sflush_r+0x76>
 80081ba:	682b      	ldr	r3, [r5, #0]
 80081bc:	b903      	cbnz	r3, 80081c0 <__sflush_r+0x78>
 80081be:	6560      	str	r0, [r4, #84]	@ 0x54
 80081c0:	6b61      	ldr	r1, [r4, #52]	@ 0x34
 80081c2:	602f      	str	r7, [r5, #0]
 80081c4:	b1c1      	cbz	r1, 80081f8 <__sflush_r+0xb0>
 80081c6:	f104 0344 	add.w	r3, r4, #68	@ 0x44
 80081ca:	4299      	cmp	r1, r3
 80081cc:	d002      	beq.n	80081d4 <__sflush_r+0x8c>
 80081ce:	4628      	mov	r0, r5
 80081d0:	f7fe fbc2 	bl	8006958 <_free_r>
 80081d4:	2300      	movs	r3, #0
 80081d6:	6363      	str	r3, [r4, #52]	@ 0x34
 80081d8:	e00e      	b.n	80081f8 <__sflush_r+0xb0>
 80081da:	6a21      	ldr	r1, [r4, #32]
 80081dc:	2301      	movs	r3, #1
 80081de:	4628      	mov	r0, r5
 80081e0:	47b0      	blx	r6
 80081e2:	4602      	mov	r2, r0
 80081e4:	1c50      	adds	r0, r2, #1
 80081e6:	d1c7      	bne.n	8008178 <__sflush_r+0x30>
 80081e8:	682b      	ldr	r3, [r5, #0]
 80081ea:	2b00      	cmp	r3, #0
 80081ec:	d0c4      	beq.n	8008178 <__sflush_r+0x30>
 80081ee:	2b1d      	cmp	r3, #29
 80081f0:	d001      	beq.n	80081f6 <__sflush_r+0xae>
 80081f2:	2b16      	cmp	r3, #22
 80081f4:	d11a      	bne.n	800822c <__sflush_r+0xe4>
 80081f6:	602f      	str	r7, [r5, #0]
 80081f8:	2000      	movs	r0, #0
 80081fa:	e01e      	b.n	800823a <__sflush_r+0xf2>
 80081fc:	690f      	ldr	r7, [r1, #16]
 80081fe:	2f00      	cmp	r7, #0
 8008200:	d0fa      	beq.n	80081f8 <__sflush_r+0xb0>
 8008202:	0793      	lsls	r3, r2, #30
 8008204:	680e      	ldr	r6, [r1, #0]
 8008206:	bf08      	it	eq
 8008208:	694b      	ldreq	r3, [r1, #20]
 800820a:	600f      	str	r7, [r1, #0]
 800820c:	bf18      	it	ne
 800820e:	2300      	movne	r3, #0
 8008210:	eba6 0807 	sub.w	r8, r6, r7
 8008214:	608b      	str	r3, [r1, #8]
 8008216:	f1b8 0f00 	cmp.w	r8, #0
 800821a:	dded      	ble.n	80081f8 <__sflush_r+0xb0>
 800821c:	6a21      	ldr	r1, [r4, #32]
 800821e:	6aa6      	ldr	r6, [r4, #40]	@ 0x28
 8008220:	4643      	mov	r3, r8
 8008222:	463a      	mov	r2, r7
 8008224:	4628      	mov	r0, r5
 8008226:	47b0      	blx	r6
 8008228:	2800      	cmp	r0, #0
 800822a:	dc08      	bgt.n	800823e <__sflush_r+0xf6>
 800822c:	f9b4 300c 	ldrsh.w	r3, [r4, #12]
 8008230:	f043 0340 	orr.w	r3, r3, #64	@ 0x40
 8008234:	81a3      	strh	r3, [r4, #12]
 8008236:	f04f 30ff 	mov.w	r0, #4294967295
 800823a:	e8bd 81f0 	ldmia.w	sp!, {r4, r5, r6, r7, r8, pc}
 800823e:	4407      	add	r7, r0
 8008240:	eba8 0800 	sub.w	r8, r8, r0
 8008244:	e7e7      	b.n	8008216 <__sflush_r+0xce>
 8008246:	bf00      	nop
 8008248:	20400001 	.word	0x20400001

0800824c <_fflush_r>:
 800824c:	b538      	push	{r3, r4, r5, lr}
 800824e:	690b      	ldr	r3, [r1, #16]
 8008250:	4605      	mov	r5, r0
 8008252:	460c      	mov	r4, r1
 8008254:	b913      	cbnz	r3, 800825c <_fflush_r+0x10>
 8008256:	2500      	movs	r5, #0
 8008258:	4628      	mov	r0, r5
 800825a:	bd38      	pop	{r3, r4, r5, pc}
 800825c:	b118      	cbz	r0, 8008266 <_fflush_r+0x1a>
 800825e:	6a03      	ldr	r3, [r0, #32]
 8008260:	b90b      	cbnz	r3, 8008266 <_fflush_r+0x1a>
 8008262:	f7fe fa1f 	bl	80066a4 <__sinit>
 8008266:	f9b4 300c 	ldrsh.w	r3, [r4, #12]
 800826a:	2b00      	cmp	r3, #0
 800826c:	d0f3      	beq.n	8008256 <_fflush_r+0xa>
 800826e:	6e62      	ldr	r2, [r4, #100]	@ 0x64
 8008270:	07d0      	lsls	r0, r2, #31
 8008272:	d404      	bmi.n	800827e <_fflush_r+0x32>
 8008274:	0599      	lsls	r1, r3, #22
 8008276:	d402      	bmi.n	800827e <_fflush_r+0x32>
 8008278:	6da0      	ldr	r0, [r4, #88]	@ 0x58
 800827a:	f7fe fb54 	bl	8006926 <__retarget_lock_acquire_recursive>
 800827e:	4628      	mov	r0, r5
 8008280:	4621      	mov	r1, r4
 8008282:	f7ff ff61 	bl	8008148 <__sflush_r>
 8008286:	6e63      	ldr	r3, [r4, #100]	@ 0x64
 8008288:	07da      	lsls	r2, r3, #31
 800828a:	4605      	mov	r5, r0
 800828c:	d4e4      	bmi.n	8008258 <_fflush_r+0xc>
 800828e:	89a3      	ldrh	r3, [r4, #12]
 8008290:	059b      	lsls	r3, r3, #22
 8008292:	d4e1      	bmi.n	8008258 <_fflush_r+0xc>
 8008294:	6da0      	ldr	r0, [r4, #88]	@ 0x58
 8008296:	f7fe fb47 	bl	8006928 <__retarget_lock_release_recursive>
 800829a:	e7dd      	b.n	8008258 <_fflush_r+0xc>

0800829c <_sbrk_r>:
 800829c:	b538      	push	{r3, r4, r5, lr}
 800829e:	4d06      	ldr	r5, [pc, #24]	@ (80082b8 <_sbrk_r+0x1c>)
 80082a0:	2300      	movs	r3, #0
 80082a2:	4604      	mov	r4, r0
 80082a4:	4608      	mov	r0, r1
 80082a6:	602b      	str	r3, [r5, #0]
 80082a8:	f7fc f87a 	bl	80043a0 <_sbrk>
 80082ac:	1c43      	adds	r3, r0, #1
 80082ae:	d102      	bne.n	80082b6 <_sbrk_r+0x1a>
 80082b0:	682b      	ldr	r3, [r5, #0]
 80082b2:	b103      	cbz	r3, 80082b6 <_sbrk_r+0x1a>
 80082b4:	6023      	str	r3, [r4, #0]
 80082b6:	bd38      	pop	{r3, r4, r5, pc}
 80082b8:	200006a0 	.word	0x200006a0

080082bc <__assert_func>:
 80082bc:	b51f      	push	{r0, r1, r2, r3, r4, lr}
 80082be:	4614      	mov	r4, r2
 80082c0:	461a      	mov	r2, r3
 80082c2:	4b09      	ldr	r3, [pc, #36]	@ (80082e8 <__assert_func+0x2c>)
 80082c4:	681b      	ldr	r3, [r3, #0]
 80082c6:	4605      	mov	r5, r0
 80082c8:	68d8      	ldr	r0, [r3, #12]
 80082ca:	b14c      	cbz	r4, 80082e0 <__assert_func+0x24>
 80082cc:	4b07      	ldr	r3, [pc, #28]	@ (80082ec <__assert_func+0x30>)
 80082ce:	9100      	str	r1, [sp, #0]
 80082d0:	e9cd 3401 	strd	r3, r4, [sp, #4]
 80082d4:	4906      	ldr	r1, [pc, #24]	@ (80082f0 <__assert_func+0x34>)
 80082d6:	462b      	mov	r3, r5
 80082d8:	f000 f858 	bl	800838c <fiprintf>
 80082dc:	f000 f868 	bl	80083b0 <abort>
 80082e0:	4b04      	ldr	r3, [pc, #16]	@ (80082f4 <__assert_func+0x38>)
 80082e2:	461c      	mov	r4, r3
 80082e4:	e7f3      	b.n	80082ce <__assert_func+0x12>
 80082e6:	bf00      	nop
 80082e8:	200001a8 	.word	0x200001a8
 80082ec:	08008f62 	.word	0x08008f62
 80082f0:	08008f6f 	.word	0x08008f6f
 80082f4:	08008f9d 	.word	0x08008f9d

080082f8 <_calloc_r>:
 80082f8:	b570      	push	{r4, r5, r6, lr}
 80082fa:	fba1 5402 	umull	r5, r4, r1, r2
 80082fe:	b934      	cbnz	r4, 800830e <_calloc_r+0x16>
 8008300:	4629      	mov	r1, r5
 8008302:	f7fe fed1 	bl	80070a8 <_malloc_r>
 8008306:	4606      	mov	r6, r0
 8008308:	b928      	cbnz	r0, 8008316 <_calloc_r+0x1e>
 800830a:	4630      	mov	r0, r6
 800830c:	bd70      	pop	{r4, r5, r6, pc}
 800830e:	220c      	movs	r2, #12
 8008310:	6002      	str	r2, [r0, #0]
 8008312:	2600      	movs	r6, #0
 8008314:	e7f9      	b.n	800830a <_calloc_r+0x12>
 8008316:	462a      	mov	r2, r5
 8008318:	4621      	mov	r1, r4
 800831a:	f7fe fa78 	bl	800680e <memset>
 800831e:	e7f4      	b.n	800830a <_calloc_r+0x12>

08008320 <malloc>:
 8008320:	4b02      	ldr	r3, [pc, #8]	@ (800832c <malloc+0xc>)
 8008322:	4601      	mov	r1, r0
 8008324:	6818      	ldr	r0, [r3, #0]
 8008326:	f7fe bebf 	b.w	80070a8 <_malloc_r>
 800832a:	bf00      	nop
 800832c:	200001a8 	.word	0x200001a8

08008330 <_realloc_r>:
 8008330:	e92d 41f0 	stmdb	sp!, {r4, r5, r6, r7, r8, lr}
 8008334:	4607      	mov	r7, r0
 8008336:	4614      	mov	r4, r2
 8008338:	460d      	mov	r5, r1
 800833a:	b921      	cbnz	r1, 8008346 <_realloc_r+0x16>
 800833c:	e8bd 41f0 	ldmia.w	sp!, {r4, r5, r6, r7, r8, lr}
 8008340:	4611      	mov	r1, r2
 8008342:	f7fe beb1 	b.w	80070a8 <_malloc_r>
 8008346:	b92a      	cbnz	r2, 8008354 <_realloc_r+0x24>
 8008348:	f7fe fb06 	bl	8006958 <_free_r>
 800834c:	4625      	mov	r5, r4
 800834e:	4628      	mov	r0, r5
 8008350:	e8bd 81f0 	ldmia.w	sp!, {r4, r5, r6, r7, r8, pc}
 8008354:	f000 f833 	bl	80083be <_malloc_usable_size_r>
 8008358:	4284      	cmp	r4, r0
 800835a:	4606      	mov	r6, r0
 800835c:	d802      	bhi.n	8008364 <_realloc_r+0x34>
 800835e:	ebb4 0f50 	cmp.w	r4, r0, lsr #1
 8008362:	d8f4      	bhi.n	800834e <_realloc_r+0x1e>
 8008364:	4621      	mov	r1, r4
 8008366:	4638      	mov	r0, r7
 8008368:	f7fe fe9e 	bl	80070a8 <_malloc_r>
 800836c:	4680      	mov	r8, r0
 800836e:	b908      	cbnz	r0, 8008374 <_realloc_r+0x44>
 8008370:	4645      	mov	r5, r8
 8008372:	e7ec      	b.n	800834e <_realloc_r+0x1e>
 8008374:	42b4      	cmp	r4, r6
 8008376:	4622      	mov	r2, r4
 8008378:	4629      	mov	r1, r5
 800837a:	bf28      	it	cs
 800837c:	4632      	movcs	r2, r6
 800837e:	f7fe fad4 	bl	800692a <memcpy>
 8008382:	4629      	mov	r1, r5
 8008384:	4638      	mov	r0, r7
 8008386:	f7fe fae7 	bl	8006958 <_free_r>
 800838a:	e7f1      	b.n	8008370 <_realloc_r+0x40>

0800838c <fiprintf>:
 800838c:	b40e      	push	{r1, r2, r3}
 800838e:	b503      	push	{r0, r1, lr}
 8008390:	4601      	mov	r1, r0
 8008392:	ab03      	add	r3, sp, #12
 8008394:	4805      	ldr	r0, [pc, #20]	@ (80083ac <fiprintf+0x20>)
 8008396:	f853 2b04 	ldr.w	r2, [r3], #4
 800839a:	6800      	ldr	r0, [r0, #0]
 800839c:	9301      	str	r3, [sp, #4]
 800839e:	f000 f83f 	bl	8008420 <_vfiprintf_r>
 80083a2:	b002      	add	sp, #8
 80083a4:	f85d eb04 	ldr.w	lr, [sp], #4
 80083a8:	b003      	add	sp, #12
 80083aa:	4770      	bx	lr
 80083ac:	200001a8 	.word	0x200001a8

080083b0 <abort>:
 80083b0:	b508      	push	{r3, lr}
 80083b2:	2006      	movs	r0, #6
 80083b4:	f000 fa02 	bl	80087bc <raise>
 80083b8:	2001      	movs	r0, #1
 80083ba:	f7fb ff79 	bl	80042b0 <_exit>

080083be <_malloc_usable_size_r>:
 80083be:	f851 3c04 	ldr.w	r3, [r1, #-4]
 80083c2:	1f18      	subs	r0, r3, #4
 80083c4:	2b00      	cmp	r3, #0
 80083c6:	bfbc      	itt	lt
 80083c8:	580b      	ldrlt	r3, [r1, r0]
 80083ca:	18c0      	addlt	r0, r0, r3
 80083cc:	4770      	bx	lr

080083ce <__sfputc_r>:
 80083ce:	6893      	ldr	r3, [r2, #8]
 80083d0:	3b01      	subs	r3, #1
 80083d2:	2b00      	cmp	r3, #0
 80083d4:	b410      	push	{r4}
 80083d6:	6093      	str	r3, [r2, #8]
 80083d8:	da08      	bge.n	80083ec <__sfputc_r+0x1e>
 80083da:	6994      	ldr	r4, [r2, #24]
 80083dc:	42a3      	cmp	r3, r4
 80083de:	db01      	blt.n	80083e4 <__sfputc_r+0x16>
 80083e0:	290a      	cmp	r1, #10
 80083e2:	d103      	bne.n	80083ec <__sfputc_r+0x1e>
 80083e4:	f85d 4b04 	ldr.w	r4, [sp], #4
 80083e8:	f000 b92e 	b.w	8008648 <__swbuf_r>
 80083ec:	6813      	ldr	r3, [r2, #0]
 80083ee:	1c58      	adds	r0, r3, #1
 80083f0:	6010      	str	r0, [r2, #0]
 80083f2:	7019      	strb	r1, [r3, #0]
 80083f4:	4608      	mov	r0, r1
 80083f6:	f85d 4b04 	ldr.w	r4, [sp], #4
 80083fa:	4770      	bx	lr

080083fc <__sfputs_r>:
 80083fc:	b5f8      	push	{r3, r4, r5, r6, r7, lr}
 80083fe:	4606      	mov	r6, r0
 8008400:	460f      	mov	r7, r1
 8008402:	4614      	mov	r4, r2
 8008404:	18d5      	adds	r5, r2, r3
 8008406:	42ac      	cmp	r4, r5
 8008408:	d101      	bne.n	800840e <__sfputs_r+0x12>
 800840a:	2000      	movs	r0, #0
 800840c:	e007      	b.n	800841e <__sfputs_r+0x22>
 800840e:	f814 1b01 	ldrb.w	r1, [r4], #1
 8008412:	463a      	mov	r2, r7
 8008414:	4630      	mov	r0, r6
 8008416:	f7ff ffda 	bl	80083ce <__sfputc_r>
 800841a:	1c43      	adds	r3, r0, #1
 800841c:	d1f3      	bne.n	8008406 <__sfputs_r+0xa>
 800841e:	bdf8      	pop	{r3, r4, r5, r6, r7, pc}

08008420 <_vfiprintf_r>:
 8008420:	e92d 47f0 	stmdb	sp!, {r4, r5, r6, r7, r8, r9, sl, lr}
 8008424:	460d      	mov	r5, r1
 8008426:	b09c      	sub	sp, #112	@ 0x70
 8008428:	4614      	mov	r4, r2
 800842a:	461f      	mov	r7, r3
 800842c:	4606      	mov	r6, r0
 800842e:	b118      	cbz	r0, 8008438 <_vfiprintf_r+0x18>
 8008430:	6a03      	ldr	r3, [r0, #32]
 8008432:	b90b      	cbnz	r3, 8008438 <_vfiprintf_r+0x18>
 8008434:	f7fe f936 	bl	80066a4 <__sinit>
 8008438:	6e6b      	ldr	r3, [r5, #100]	@ 0x64
 800843a:	07d9      	lsls	r1, r3, #31
 800843c:	d405      	bmi.n	800844a <_vfiprintf_r+0x2a>
 800843e:	89ab      	ldrh	r3, [r5, #12]
 8008440:	059a      	lsls	r2, r3, #22
 8008442:	d402      	bmi.n	800844a <_vfiprintf_r+0x2a>
 8008444:	6da8      	ldr	r0, [r5, #88]	@ 0x58
 8008446:	f7fe fa6e 	bl	8006926 <__retarget_lock_acquire_recursive>
 800844a:	89ab      	ldrh	r3, [r5, #12]
 800844c:	071b      	lsls	r3, r3, #28
 800844e:	d501      	bpl.n	8008454 <_vfiprintf_r+0x34>
 8008450:	692b      	ldr	r3, [r5, #16]
 8008452:	b99b      	cbnz	r3, 800847c <_vfiprintf_r+0x5c>
 8008454:	4629      	mov	r1, r5
 8008456:	4630      	mov	r0, r6
 8008458:	f000 f934 	bl	80086c4 <__swsetup_r>
 800845c:	b170      	cbz	r0, 800847c <_vfiprintf_r+0x5c>
 800845e:	6e6b      	ldr	r3, [r5, #100]	@ 0x64
 8008460:	07dc      	lsls	r4, r3, #31
 8008462:	d504      	bpl.n	800846e <_vfiprintf_r+0x4e>
 8008464:	f04f 30ff 	mov.w	r0, #4294967295
 8008468:	b01c      	add	sp, #112	@ 0x70
 800846a:	e8bd 87f0 	ldmia.w	sp!, {r4, r5, r6, r7, r8, r9, sl, pc}
 800846e:	89ab      	ldrh	r3, [r5, #12]
 8008470:	0598      	lsls	r0, r3, #22
 8008472:	d4f7      	bmi.n	8008464 <_vfiprintf_r+0x44>
 8008474:	6da8      	ldr	r0, [r5, #88]	@ 0x58
 8008476:	f7fe fa57 	bl	8006928 <__retarget_lock_release_recursive>
 800847a:	e7f3      	b.n	8008464 <_vfiprintf_r+0x44>
 800847c:	2300      	movs	r3, #0
 800847e:	9309      	str	r3, [sp, #36]	@ 0x24
 8008480:	2320      	movs	r3, #32
 8008482:	f88d 3029 	strb.w	r3, [sp, #41]	@ 0x29
 8008486:	9703      	str	r7, [sp, #12]
 8008488:	2330      	movs	r3, #48	@ 0x30
 800848a:	4f6a      	ldr	r7, [pc, #424]	@ (8008634 <_vfiprintf_r+0x214>)
 800848c:	f88d 302a 	strb.w	r3, [sp, #42]	@ 0x2a
 8008490:	f04f 0801 	mov.w	r8, #1
 8008494:	4623      	mov	r3, r4
 8008496:	4699      	mov	r9, r3
 8008498:	f813 2b01 	ldrb.w	r2, [r3], #1
 800849c:	b10a      	cbz	r2, 80084a2 <_vfiprintf_r+0x82>
 800849e:	2a25      	cmp	r2, #37	@ 0x25
 80084a0:	d1f9      	bne.n	8008496 <_vfiprintf_r+0x76>
 80084a2:	ebb9 0a04 	subs.w	sl, r9, r4
 80084a6:	d00b      	beq.n	80084c0 <_vfiprintf_r+0xa0>
 80084a8:	4653      	mov	r3, sl
 80084aa:	4622      	mov	r2, r4
 80084ac:	4629      	mov	r1, r5
 80084ae:	4630      	mov	r0, r6
 80084b0:	f7ff ffa4 	bl	80083fc <__sfputs_r>
 80084b4:	3001      	adds	r0, #1
 80084b6:	f000 80a4 	beq.w	8008602 <_vfiprintf_r+0x1e2>
 80084ba:	9a09      	ldr	r2, [sp, #36]	@ 0x24
 80084bc:	4452      	add	r2, sl
 80084be:	9209      	str	r2, [sp, #36]	@ 0x24
 80084c0:	f899 3000 	ldrb.w	r3, [r9]
 80084c4:	2b00      	cmp	r3, #0
 80084c6:	f000 809c 	beq.w	8008602 <_vfiprintf_r+0x1e2>
 80084ca:	2300      	movs	r3, #0
 80084cc:	f04f 32ff 	mov.w	r2, #4294967295
 80084d0:	e9cd 2305 	strd	r2, r3, [sp, #20]
 80084d4:	f109 0901 	add.w	r9, r9, #1
 80084d8:	9304      	str	r3, [sp, #16]
 80084da:	9307      	str	r3, [sp, #28]
 80084dc:	f88d 3053 	strb.w	r3, [sp, #83]	@ 0x53
 80084e0:	931a      	str	r3, [sp, #104]	@ 0x68
 80084e2:	464c      	mov	r4, r9
 80084e4:	4853      	ldr	r0, [pc, #332]	@ (8008634 <_vfiprintf_r+0x214>)
 80084e6:	f814 1b01 	ldrb.w	r1, [r4], #1
 80084ea:	2205      	movs	r2, #5
 80084ec:	f7f7 fe98 	bl	8000220 <memchr>
 80084f0:	9b04      	ldr	r3, [sp, #16]
 80084f2:	b9d0      	cbnz	r0, 800852a <_vfiprintf_r+0x10a>
 80084f4:	06d9      	lsls	r1, r3, #27
 80084f6:	bf44      	itt	mi
 80084f8:	2220      	movmi	r2, #32
 80084fa:	f88d 2053 	strbmi.w	r2, [sp, #83]	@ 0x53
 80084fe:	071a      	lsls	r2, r3, #28
 8008500:	bf44      	itt	mi
 8008502:	222b      	movmi	r2, #43	@ 0x2b
 8008504:	f88d 2053 	strbmi.w	r2, [sp, #83]	@ 0x53
 8008508:	f899 2000 	ldrb.w	r2, [r9]
 800850c:	2a2a      	cmp	r2, #42	@ 0x2a
 800850e:	d013      	beq.n	8008538 <_vfiprintf_r+0x118>
 8008510:	9a07      	ldr	r2, [sp, #28]
 8008512:	464c      	mov	r4, r9
 8008514:	2000      	movs	r0, #0
 8008516:	f04f 0c0a 	mov.w	ip, #10
 800851a:	4621      	mov	r1, r4
 800851c:	f811 3b01 	ldrb.w	r3, [r1], #1
 8008520:	3b30      	subs	r3, #48	@ 0x30
 8008522:	2b09      	cmp	r3, #9
 8008524:	d949      	bls.n	80085ba <_vfiprintf_r+0x19a>
 8008526:	b968      	cbnz	r0, 8008544 <_vfiprintf_r+0x124>
 8008528:	e013      	b.n	8008552 <_vfiprintf_r+0x132>
 800852a:	1bc0      	subs	r0, r0, r7
 800852c:	fa08 f000 	lsl.w	r0, r8, r0
 8008530:	4318      	orrs	r0, r3
 8008532:	9004      	str	r0, [sp, #16]
 8008534:	46a1      	mov	r9, r4
 8008536:	e7d4      	b.n	80084e2 <_vfiprintf_r+0xc2>
 8008538:	9a03      	ldr	r2, [sp, #12]
 800853a:	1d11      	adds	r1, r2, #4
 800853c:	6812      	ldr	r2, [r2, #0]
 800853e:	9103      	str	r1, [sp, #12]
 8008540:	2a00      	cmp	r2, #0
 8008542:	db01      	blt.n	8008548 <_vfiprintf_r+0x128>
 8008544:	9207      	str	r2, [sp, #28]
 8008546:	e004      	b.n	8008552 <_vfiprintf_r+0x132>
 8008548:	4252      	negs	r2, r2
 800854a:	f043 0302 	orr.w	r3, r3, #2
 800854e:	9207      	str	r2, [sp, #28]
 8008550:	9304      	str	r3, [sp, #16]
 8008552:	7823      	ldrb	r3, [r4, #0]
 8008554:	2b2e      	cmp	r3, #46	@ 0x2e
 8008556:	d10a      	bne.n	800856e <_vfiprintf_r+0x14e>
 8008558:	7863      	ldrb	r3, [r4, #1]
 800855a:	2b2a      	cmp	r3, #42	@ 0x2a
 800855c:	d132      	bne.n	80085c4 <_vfiprintf_r+0x1a4>
 800855e:	9b03      	ldr	r3, [sp, #12]
 8008560:	1d1a      	adds	r2, r3, #4
 8008562:	681b      	ldr	r3, [r3, #0]
 8008564:	9203      	str	r2, [sp, #12]
 8008566:	ea43 73e3 	orr.w	r3, r3, r3, asr #31
 800856a:	3402      	adds	r4, #2
 800856c:	9305      	str	r3, [sp, #20]
 800856e:	f8df 90d4 	ldr.w	r9, [pc, #212]	@ 8008644 <_vfiprintf_r+0x224>
 8008572:	7821      	ldrb	r1, [r4, #0]
 8008574:	2203      	movs	r2, #3
 8008576:	4648      	mov	r0, r9
 8008578:	f7f7 fe52 	bl	8000220 <memchr>
 800857c:	b138      	cbz	r0, 800858e <_vfiprintf_r+0x16e>
 800857e:	9b04      	ldr	r3, [sp, #16]
 8008580:	eba0 0009 	sub.w	r0, r0, r9
 8008584:	2240      	movs	r2, #64	@ 0x40
 8008586:	4082      	lsls	r2, r0
 8008588:	4313      	orrs	r3, r2
 800858a:	3401      	adds	r4, #1
 800858c:	9304      	str	r3, [sp, #16]
 800858e:	f814 1b01 	ldrb.w	r1, [r4], #1
 8008592:	4829      	ldr	r0, [pc, #164]	@ (8008638 <_vfiprintf_r+0x218>)
 8008594:	f88d 1028 	strb.w	r1, [sp, #40]	@ 0x28
 8008598:	2206      	movs	r2, #6
 800859a:	f7f7 fe41 	bl	8000220 <memchr>
 800859e:	2800      	cmp	r0, #0
 80085a0:	d03e      	beq.n	8008620 <_vfiprintf_r+0x200>
 80085a2:	4826      	ldr	r0, [pc, #152]	@ (800863c <_vfiprintf_r+0x21c>)
 80085a4:	bb18      	cbnz	r0, 80085ee <_vfiprintf_r+0x1ce>
 80085a6:	9b03      	ldr	r3, [sp, #12]
 80085a8:	3307      	adds	r3, #7
 80085aa:	f023 0307 	bic.w	r3, r3, #7
 80085ae:	3308      	adds	r3, #8
 80085b0:	9303      	str	r3, [sp, #12]
 80085b2:	9b09      	ldr	r3, [sp, #36]	@ 0x24
 80085b4:	4403      	add	r3, r0
 80085b6:	9309      	str	r3, [sp, #36]	@ 0x24
 80085b8:	e76c      	b.n	8008494 <_vfiprintf_r+0x74>
 80085ba:	fb0c 3202 	mla	r2, ip, r2, r3
 80085be:	460c      	mov	r4, r1
 80085c0:	2001      	movs	r0, #1
 80085c2:	e7aa      	b.n	800851a <_vfiprintf_r+0xfa>
 80085c4:	2300      	movs	r3, #0
 80085c6:	3401      	adds	r4, #1
 80085c8:	9305      	str	r3, [sp, #20]
 80085ca:	4619      	mov	r1, r3
 80085cc:	f04f 0c0a 	mov.w	ip, #10
 80085d0:	4620      	mov	r0, r4
 80085d2:	f810 2b01 	ldrb.w	r2, [r0], #1
 80085d6:	3a30      	subs	r2, #48	@ 0x30
 80085d8:	2a09      	cmp	r2, #9
 80085da:	d903      	bls.n	80085e4 <_vfiprintf_r+0x1c4>
 80085dc:	2b00      	cmp	r3, #0
 80085de:	d0c6      	beq.n	800856e <_vfiprintf_r+0x14e>
 80085e0:	9105      	str	r1, [sp, #20]
 80085e2:	e7c4      	b.n	800856e <_vfiprintf_r+0x14e>
 80085e4:	fb0c 2101 	mla	r1, ip, r1, r2
 80085e8:	4604      	mov	r4, r0
 80085ea:	2301      	movs	r3, #1
 80085ec:	e7f0      	b.n	80085d0 <_vfiprintf_r+0x1b0>
 80085ee:	ab03      	add	r3, sp, #12
 80085f0:	9300      	str	r3, [sp, #0]
 80085f2:	462a      	mov	r2, r5
 80085f4:	4b12      	ldr	r3, [pc, #72]	@ (8008640 <_vfiprintf_r+0x220>)
 80085f6:	a904      	add	r1, sp, #16
 80085f8:	4630      	mov	r0, r6
 80085fa:	f3af 8000 	nop.w
 80085fe:	1c43      	adds	r3, r0, #1
 8008600:	d1d7      	bne.n	80085b2 <_vfiprintf_r+0x192>
 8008602:	6e6b      	ldr	r3, [r5, #100]	@ 0x64
 8008604:	07d9      	lsls	r1, r3, #31
 8008606:	d405      	bmi.n	8008614 <_vfiprintf_r+0x1f4>
 8008608:	89ab      	ldrh	r3, [r5, #12]
 800860a:	059a      	lsls	r2, r3, #22
 800860c:	d402      	bmi.n	8008614 <_vfiprintf_r+0x1f4>
 800860e:	6da8      	ldr	r0, [r5, #88]	@ 0x58
 8008610:	f7fe f98a 	bl	8006928 <__retarget_lock_release_recursive>
 8008614:	89ab      	ldrh	r3, [r5, #12]
 8008616:	065b      	lsls	r3, r3, #25
 8008618:	f53f af24 	bmi.w	8008464 <_vfiprintf_r+0x44>
 800861c:	9809      	ldr	r0, [sp, #36]	@ 0x24
 800861e:	e723      	b.n	8008468 <_vfiprintf_r+0x48>
 8008620:	ab03      	add	r3, sp, #12
 8008622:	9300      	str	r3, [sp, #0]
 8008624:	462a      	mov	r2, r5
 8008626:	4b06      	ldr	r3, [pc, #24]	@ (8008640 <_vfiprintf_r+0x220>)
 8008628:	a904      	add	r1, sp, #16
 800862a:	4630      	mov	r0, r6
 800862c:	f7ff fc66 	bl	8007efc <_printf_i>
 8008630:	e7e5      	b.n	80085fe <_vfiprintf_r+0x1de>
 8008632:	bf00      	nop
 8008634:	08008f2f 	.word	0x08008f2f
 8008638:	08008f39 	.word	0x08008f39
 800863c:	00000000 	.word	0x00000000
 8008640:	080083fd 	.word	0x080083fd
 8008644:	08008f35 	.word	0x08008f35

08008648 <__swbuf_r>:
 8008648:	b5f8      	push	{r3, r4, r5, r6, r7, lr}
 800864a:	460e      	mov	r6, r1
 800864c:	4614      	mov	r4, r2
 800864e:	4605      	mov	r5, r0
 8008650:	b118      	cbz	r0, 800865a <__swbuf_r+0x12>
 8008652:	6a03      	ldr	r3, [r0, #32]
 8008654:	b90b      	cbnz	r3, 800865a <__swbuf_r+0x12>
 8008656:	f7fe f825 	bl	80066a4 <__sinit>
 800865a:	69a3      	ldr	r3, [r4, #24]
 800865c:	60a3      	str	r3, [r4, #8]
 800865e:	89a3      	ldrh	r3, [r4, #12]
 8008660:	071a      	lsls	r2, r3, #28
 8008662:	d501      	bpl.n	8008668 <__swbuf_r+0x20>
 8008664:	6923      	ldr	r3, [r4, #16]
 8008666:	b943      	cbnz	r3, 800867a <__swbuf_r+0x32>
 8008668:	4621      	mov	r1, r4
 800866a:	4628      	mov	r0, r5
 800866c:	f000 f82a 	bl	80086c4 <__swsetup_r>
 8008670:	b118      	cbz	r0, 800867a <__swbuf_r+0x32>
 8008672:	f04f 37ff 	mov.w	r7, #4294967295
 8008676:	4638      	mov	r0, r7
 8008678:	bdf8      	pop	{r3, r4, r5, r6, r7, pc}
 800867a:	6823      	ldr	r3, [r4, #0]
 800867c:	6922      	ldr	r2, [r4, #16]
 800867e:	1a98      	subs	r0, r3, r2
 8008680:	6963      	ldr	r3, [r4, #20]
 8008682:	b2f6      	uxtb	r6, r6
 8008684:	4283      	cmp	r3, r0
 8008686:	4637      	mov	r7, r6
 8008688:	dc05      	bgt.n	8008696 <__swbuf_r+0x4e>
 800868a:	4621      	mov	r1, r4
 800868c:	4628      	mov	r0, r5
 800868e:	f7ff fddd 	bl	800824c <_fflush_r>
 8008692:	2800      	cmp	r0, #0
 8008694:	d1ed      	bne.n	8008672 <__swbuf_r+0x2a>
 8008696:	68a3      	ldr	r3, [r4, #8]
 8008698:	3b01      	subs	r3, #1
 800869a:	60a3      	str	r3, [r4, #8]
 800869c:	6823      	ldr	r3, [r4, #0]
 800869e:	1c5a      	adds	r2, r3, #1
 80086a0:	6022      	str	r2, [r4, #0]
 80086a2:	701e      	strb	r6, [r3, #0]
 80086a4:	6962      	ldr	r2, [r4, #20]
 80086a6:	1c43      	adds	r3, r0, #1
 80086a8:	429a      	cmp	r2, r3
 80086aa:	d004      	beq.n	80086b6 <__swbuf_r+0x6e>
 80086ac:	89a3      	ldrh	r3, [r4, #12]
 80086ae:	07db      	lsls	r3, r3, #31
 80086b0:	d5e1      	bpl.n	8008676 <__swbuf_r+0x2e>
 80086b2:	2e0a      	cmp	r6, #10
 80086b4:	d1df      	bne.n	8008676 <__swbuf_r+0x2e>
 80086b6:	4621      	mov	r1, r4
 80086b8:	4628      	mov	r0, r5
 80086ba:	f7ff fdc7 	bl	800824c <_fflush_r>
 80086be:	2800      	cmp	r0, #0
 80086c0:	d0d9      	beq.n	8008676 <__swbuf_r+0x2e>
 80086c2:	e7d6      	b.n	8008672 <__swbuf_r+0x2a>

080086c4 <__swsetup_r>:
 80086c4:	b538      	push	{r3, r4, r5, lr}
 80086c6:	4b28      	ldr	r3, [pc, #160]	@ (8008768 <__swsetup_r+0xa4>)
 80086c8:	4605      	mov	r5, r0
 80086ca:	6818      	ldr	r0, [r3, #0]
 80086cc:	460c      	mov	r4, r1
 80086ce:	b118      	cbz	r0, 80086d8 <__swsetup_r+0x14>
 80086d0:	6a03      	ldr	r3, [r0, #32]
 80086d2:	b90b      	cbnz	r3, 80086d8 <__swsetup_r+0x14>
 80086d4:	f7fd ffe6 	bl	80066a4 <__sinit>
 80086d8:	f9b4 300c 	ldrsh.w	r3, [r4, #12]
 80086dc:	071a      	lsls	r2, r3, #28
 80086de:	d421      	bmi.n	8008724 <__swsetup_r+0x60>
 80086e0:	06d8      	lsls	r0, r3, #27
 80086e2:	d407      	bmi.n	80086f4 <__swsetup_r+0x30>
 80086e4:	2209      	movs	r2, #9
 80086e6:	602a      	str	r2, [r5, #0]
 80086e8:	f043 0340 	orr.w	r3, r3, #64	@ 0x40
 80086ec:	81a3      	strh	r3, [r4, #12]
 80086ee:	f04f 30ff 	mov.w	r0, #4294967295
 80086f2:	e030      	b.n	8008756 <__swsetup_r+0x92>
 80086f4:	0759      	lsls	r1, r3, #29
 80086f6:	d512      	bpl.n	800871e <__swsetup_r+0x5a>
 80086f8:	6b61      	ldr	r1, [r4, #52]	@ 0x34
 80086fa:	b141      	cbz	r1, 800870e <__swsetup_r+0x4a>
 80086fc:	f104 0344 	add.w	r3, r4, #68	@ 0x44
 8008700:	4299      	cmp	r1, r3
 8008702:	d002      	beq.n	800870a <__swsetup_r+0x46>
 8008704:	4628      	mov	r0, r5
 8008706:	f7fe f927 	bl	8006958 <_free_r>
 800870a:	2300      	movs	r3, #0
 800870c:	6363      	str	r3, [r4, #52]	@ 0x34
 800870e:	2200      	movs	r2, #0
 8008710:	f9b4 300c 	ldrsh.w	r3, [r4, #12]
 8008714:	6062      	str	r2, [r4, #4]
 8008716:	6922      	ldr	r2, [r4, #16]
 8008718:	6022      	str	r2, [r4, #0]
 800871a:	f023 0324 	bic.w	r3, r3, #36	@ 0x24
 800871e:	f043 0308 	orr.w	r3, r3, #8
 8008722:	81a3      	strh	r3, [r4, #12]
 8008724:	6922      	ldr	r2, [r4, #16]
 8008726:	b93a      	cbnz	r2, 8008738 <__swsetup_r+0x74>
 8008728:	059a      	lsls	r2, r3, #22
 800872a:	d501      	bpl.n	8008730 <__swsetup_r+0x6c>
 800872c:	0618      	lsls	r0, r3, #24
 800872e:	d503      	bpl.n	8008738 <__swsetup_r+0x74>
 8008730:	4621      	mov	r1, r4
 8008732:	4628      	mov	r0, r5
 8008734:	f000 f882 	bl	800883c <__smakebuf_r>
 8008738:	f9b4 300c 	ldrsh.w	r3, [r4, #12]
 800873c:	f013 0201 	ands.w	r2, r3, #1
 8008740:	d00a      	beq.n	8008758 <__swsetup_r+0x94>
 8008742:	2200      	movs	r2, #0
 8008744:	60a2      	str	r2, [r4, #8]
 8008746:	6962      	ldr	r2, [r4, #20]
 8008748:	4252      	negs	r2, r2
 800874a:	61a2      	str	r2, [r4, #24]
 800874c:	6922      	ldr	r2, [r4, #16]
 800874e:	b942      	cbnz	r2, 8008762 <__swsetup_r+0x9e>
 8008750:	f013 0080 	ands.w	r0, r3, #128	@ 0x80
 8008754:	d1c8      	bne.n	80086e8 <__swsetup_r+0x24>
 8008756:	bd38      	pop	{r3, r4, r5, pc}
 8008758:	0799      	lsls	r1, r3, #30
 800875a:	bf58      	it	pl
 800875c:	6962      	ldrpl	r2, [r4, #20]
 800875e:	60a2      	str	r2, [r4, #8]
 8008760:	e7f4      	b.n	800874c <__swsetup_r+0x88>
 8008762:	2000      	movs	r0, #0
 8008764:	e7f7      	b.n	8008756 <__swsetup_r+0x92>
 8008766:	bf00      	nop
 8008768:	200001a8 	.word	0x200001a8

0800876c <_raise_r>:
 800876c:	291f      	cmp	r1, #31
 800876e:	b538      	push	{r3, r4, r5, lr}
 8008770:	4605      	mov	r5, r0
 8008772:	460c      	mov	r4, r1
 8008774:	d904      	bls.n	8008780 <_raise_r+0x14>
 8008776:	2316      	movs	r3, #22
 8008778:	6003      	str	r3, [r0, #0]
 800877a:	f04f 30ff 	mov.w	r0, #4294967295
 800877e:	bd38      	pop	{r3, r4, r5, pc}
 8008780:	6bc2      	ldr	r2, [r0, #60]	@ 0x3c
 8008782:	b112      	cbz	r2, 800878a <_raise_r+0x1e>
 8008784:	f852 3021 	ldr.w	r3, [r2, r1, lsl #2]
 8008788:	b94b      	cbnz	r3, 800879e <_raise_r+0x32>
 800878a:	4628      	mov	r0, r5
 800878c:	f000 f830 	bl	80087f0 <_getpid_r>
 8008790:	4622      	mov	r2, r4
 8008792:	4601      	mov	r1, r0
 8008794:	4628      	mov	r0, r5
 8008796:	e8bd 4038 	ldmia.w	sp!, {r3, r4, r5, lr}
 800879a:	f000 b817 	b.w	80087cc <_kill_r>
 800879e:	2b01      	cmp	r3, #1
 80087a0:	d00a      	beq.n	80087b8 <_raise_r+0x4c>
 80087a2:	1c59      	adds	r1, r3, #1
 80087a4:	d103      	bne.n	80087ae <_raise_r+0x42>
 80087a6:	2316      	movs	r3, #22
 80087a8:	6003      	str	r3, [r0, #0]
 80087aa:	2001      	movs	r0, #1
 80087ac:	e7e7      	b.n	800877e <_raise_r+0x12>
 80087ae:	2100      	movs	r1, #0
 80087b0:	f842 1024 	str.w	r1, [r2, r4, lsl #2]
 80087b4:	4620      	mov	r0, r4
 80087b6:	4798      	blx	r3
 80087b8:	2000      	movs	r0, #0
 80087ba:	e7e0      	b.n	800877e <_raise_r+0x12>

080087bc <raise>:
 80087bc:	4b02      	ldr	r3, [pc, #8]	@ (80087c8 <raise+0xc>)
 80087be:	4601      	mov	r1, r0
 80087c0:	6818      	ldr	r0, [r3, #0]
 80087c2:	f7ff bfd3 	b.w	800876c <_raise_r>
 80087c6:	bf00      	nop
 80087c8:	200001a8 	.word	0x200001a8

080087cc <_kill_r>:
 80087cc:	b538      	push	{r3, r4, r5, lr}
 80087ce:	4d07      	ldr	r5, [pc, #28]	@ (80087ec <_kill_r+0x20>)
 80087d0:	2300      	movs	r3, #0
 80087d2:	4604      	mov	r4, r0
 80087d4:	4608      	mov	r0, r1
 80087d6:	4611      	mov	r1, r2
 80087d8:	602b      	str	r3, [r5, #0]
 80087da:	f7fb fd59 	bl	8004290 <_kill>
 80087de:	1c43      	adds	r3, r0, #1
 80087e0:	d102      	bne.n	80087e8 <_kill_r+0x1c>
 80087e2:	682b      	ldr	r3, [r5, #0]
 80087e4:	b103      	cbz	r3, 80087e8 <_kill_r+0x1c>
 80087e6:	6023      	str	r3, [r4, #0]
 80087e8:	bd38      	pop	{r3, r4, r5, pc}
 80087ea:	bf00      	nop
 80087ec:	200006a0 	.word	0x200006a0

080087f0 <_getpid_r>:
 80087f0:	f7fb bd46 	b.w	8004280 <_getpid>

080087f4 <__swhatbuf_r>:
 80087f4:	b570      	push	{r4, r5, r6, lr}
 80087f6:	460c      	mov	r4, r1
 80087f8:	f9b1 100e 	ldrsh.w	r1, [r1, #14]
 80087fc:	2900      	cmp	r1, #0
 80087fe:	b096      	sub	sp, #88	@ 0x58
 8008800:	4615      	mov	r5, r2
 8008802:	461e      	mov	r6, r3
 8008804:	da0a      	bge.n	800881c <__swhatbuf_r+0x28>
 8008806:	89a1      	ldrh	r1, [r4, #12]
 8008808:	f011 0180 	ands.w	r1, r1, #128	@ 0x80
 800880c:	d113      	bne.n	8008836 <__swhatbuf_r+0x42>
 800880e:	f44f 6280 	mov.w	r2, #1024	@ 0x400
 8008812:	2000      	movs	r0, #0
 8008814:	6031      	str	r1, [r6, #0]
 8008816:	602a      	str	r2, [r5, #0]
 8008818:	b016      	add	sp, #88	@ 0x58
 800881a:	bd70      	pop	{r4, r5, r6, pc}
 800881c:	466a      	mov	r2, sp
 800881e:	f000 f847 	bl	80088b0 <_fstat_r>
 8008822:	2800      	cmp	r0, #0
 8008824:	dbef      	blt.n	8008806 <__swhatbuf_r+0x12>
 8008826:	9901      	ldr	r1, [sp, #4]
 8008828:	f401 4170 	and.w	r1, r1, #61440	@ 0xf000
 800882c:	f5a1 5300 	sub.w	r3, r1, #8192	@ 0x2000
 8008830:	4259      	negs	r1, r3
 8008832:	4159      	adcs	r1, r3
 8008834:	e7eb      	b.n	800880e <__swhatbuf_r+0x1a>
 8008836:	2100      	movs	r1, #0
 8008838:	2240      	movs	r2, #64	@ 0x40
 800883a:	e7ea      	b.n	8008812 <__swhatbuf_r+0x1e>

0800883c <__smakebuf_r>:
 800883c:	898b      	ldrh	r3, [r1, #12]
 800883e:	b573      	push	{r0, r1, r4, r5, r6, lr}
 8008840:	079e      	lsls	r6, r3, #30
 8008842:	4605      	mov	r5, r0
 8008844:	460c      	mov	r4, r1
 8008846:	d507      	bpl.n	8008858 <__smakebuf_r+0x1c>
 8008848:	f104 0347 	add.w	r3, r4, #71	@ 0x47
 800884c:	6023      	str	r3, [r4, #0]
 800884e:	6123      	str	r3, [r4, #16]
 8008850:	2301      	movs	r3, #1
 8008852:	6163      	str	r3, [r4, #20]
 8008854:	b002      	add	sp, #8
 8008856:	bd70      	pop	{r4, r5, r6, pc}
 8008858:	ab01      	add	r3, sp, #4
 800885a:	466a      	mov	r2, sp
 800885c:	f7ff ffca 	bl	80087f4 <__swhatbuf_r>
 8008860:	9e00      	ldr	r6, [sp, #0]
 8008862:	4628      	mov	r0, r5
 8008864:	4631      	mov	r1, r6
 8008866:	f7fe fc1f 	bl	80070a8 <_malloc_r>
 800886a:	f9b4 300c 	ldrsh.w	r3, [r4, #12]
 800886e:	b938      	cbnz	r0, 8008880 <__smakebuf_r+0x44>
 8008870:	059a      	lsls	r2, r3, #22
 8008872:	d4ef      	bmi.n	8008854 <__smakebuf_r+0x18>
 8008874:	f023 0303 	bic.w	r3, r3, #3
 8008878:	f043 0302 	orr.w	r3, r3, #2
 800887c:	81a3      	strh	r3, [r4, #12]
 800887e:	e7e3      	b.n	8008848 <__smakebuf_r+0xc>
 8008880:	f043 0380 	orr.w	r3, r3, #128	@ 0x80
 8008884:	81a3      	strh	r3, [r4, #12]
 8008886:	9b01      	ldr	r3, [sp, #4]
 8008888:	6020      	str	r0, [r4, #0]
 800888a:	e9c4 0604 	strd	r0, r6, [r4, #16]
 800888e:	2b00      	cmp	r3, #0
 8008890:	d0e0      	beq.n	8008854 <__smakebuf_r+0x18>
 8008892:	f9b4 100e 	ldrsh.w	r1, [r4, #14]
 8008896:	4628      	mov	r0, r5
 8008898:	f000 f81c 	bl	80088d4 <_isatty_r>
 800889c:	2800      	cmp	r0, #0
 800889e:	d0d9      	beq.n	8008854 <__smakebuf_r+0x18>
 80088a0:	89a3      	ldrh	r3, [r4, #12]
 80088a2:	f023 0303 	bic.w	r3, r3, #3
 80088a6:	f043 0301 	orr.w	r3, r3, #1
 80088aa:	81a3      	strh	r3, [r4, #12]
 80088ac:	e7d2      	b.n	8008854 <__smakebuf_r+0x18>
	...

080088b0 <_fstat_r>:
 80088b0:	b538      	push	{r3, r4, r5, lr}
 80088b2:	4d07      	ldr	r5, [pc, #28]	@ (80088d0 <_fstat_r+0x20>)
 80088b4:	2300      	movs	r3, #0
 80088b6:	4604      	mov	r4, r0
 80088b8:	4608      	mov	r0, r1
 80088ba:	4611      	mov	r1, r2
 80088bc:	602b      	str	r3, [r5, #0]
 80088be:	f7fb fd47 	bl	8004350 <_fstat>
 80088c2:	1c43      	adds	r3, r0, #1
 80088c4:	d102      	bne.n	80088cc <_fstat_r+0x1c>
 80088c6:	682b      	ldr	r3, [r5, #0]
 80088c8:	b103      	cbz	r3, 80088cc <_fstat_r+0x1c>
 80088ca:	6023      	str	r3, [r4, #0]
 80088cc:	bd38      	pop	{r3, r4, r5, pc}
 80088ce:	bf00      	nop
 80088d0:	200006a0 	.word	0x200006a0

080088d4 <_isatty_r>:
 80088d4:	b538      	push	{r3, r4, r5, lr}
 80088d6:	4d06      	ldr	r5, [pc, #24]	@ (80088f0 <_isatty_r+0x1c>)
 80088d8:	2300      	movs	r3, #0
 80088da:	4604      	mov	r4, r0
 80088dc:	4608      	mov	r0, r1
 80088de:	602b      	str	r3, [r5, #0]
 80088e0:	f7fb fd46 	bl	8004370 <_isatty>
 80088e4:	1c43      	adds	r3, r0, #1
 80088e6:	d102      	bne.n	80088ee <_isatty_r+0x1a>
 80088e8:	682b      	ldr	r3, [r5, #0]
 80088ea:	b103      	cbz	r3, 80088ee <_isatty_r+0x1a>
 80088ec:	6023      	str	r3, [r4, #0]
 80088ee:	bd38      	pop	{r3, r4, r5, pc}
 80088f0:	200006a0 	.word	0x200006a0

080088f4 <_init>:
 80088f4:	b5f8      	push	{r3, r4, r5, r6, r7, lr}
 80088f6:	bf00      	nop
 80088f8:	bcf8      	pop	{r3, r4, r5, r6, r7}
 80088fa:	bc08      	pop	{r3}
 80088fc:	469e      	mov	lr, r3
 80088fe:	4770      	bx	lr

08008900 <_fini>:
 8008900:	b5f8      	push	{r3, r4, r5, r6, r7, lr}
 8008902:	bf00      	nop
 8008904:	bcf8      	pop	{r3, r4, r5, r6, r7}
 8008906:	bc08      	pop	{r3}
 8008908:	469e      	mov	lr, r3
 800890a:	4770      	bx	lr
